Archive member included to satisfy reference by file (symbol)

tools/agbcc/lib/libgcc.a(_ashrdi3.o)
                              build/sa2/src/game/math_0.o (__ashrdi3)
tools/agbcc/lib/libgcc.a(_call_via_rX.o)
                              build/sa2/src/core.o (_call_via_r0)
tools/agbcc/lib/libgcc.a(_divdi3.o)
                              build/sa2/asm/math_0.o (__divdi3)
tools/agbcc/lib/libgcc.a(_divsi3.o)
                              build/sa2/src/lib/m4a.o (__divsi3)
tools/agbcc/lib/libgcc.a(_dvmd_tls.o)
                              tools/agbcc/lib/libgcc.a(_divsi3.o) (__div0)
tools/agbcc/lib/libgcc.a(_modsi3.o)
                              build/sa2/src/game/options_screen.o (__modsi3)
tools/agbcc/lib/libgcc.a(_muldi3.o)
                              build/sa2/src/game/math_0.o (__muldi3)
tools/agbcc/lib/libgcc.a(_negdi2.o)
                              build/sa2/asm/math_0.o (__negdi2)
tools/agbcc/lib/libgcc.a(_udivsi3.o)
                              build/sa2/src/game/options_screen.o (__udivsi3)
tools/agbcc/lib/libgcc.a(_umodsi3.o)
                              build/sa2/src/game/options_screen.o (__umodsi3)
tools/agbcc/lib/libc.a(memcpy.o)
                              build/sa2/src/game/options_screen.o (memcpy)
tools/agbcc/lib/libc.a(memset.o)
                              build/sa2/src/game/save.o (memset)

Allocating common symbols
Common symbol       size              file

gSio32MultiLoadArea
                    0x18              build/sa2/src/sio32_multi_load.o

Discarded input sections

 .text          0x0000000000000000        0x0 build/sa2/data/sound_data.o
 .data          0x0000000000000000        0x0 build/sa2/data/sound_data.o
 .bss           0x0000000000000000        0x0 build/sa2/data/sound_data.o
 .ARM.attributes
                0x0000000000000000       0x20 build/sa2/data/sound_data.o
 .data          0x0000000000000000        0x0 build/sa2/src/lib/m4a.o
 .bss           0x0000000000000000        0x0 build/sa2/src/lib/m4a.o
 .ARM.attributes
                0x0000000000000000       0x20 build/sa2/src/lib/m4a.o
 .bss           0x0000000000000000        0x0 build/sa2/src/core.o
 .ARM.attributes
                0x0000000000000000       0x20 build/sa2/src/core.o
 .data          0x0000000000000000        0x0 build/sa2/src/multi_boot.o
 .ARM.attributes
                0x0000000000000000       0x20 build/sa2/src/multi_boot.o
 .ARM.attributes
                0x0000000000000000       0x20 build/sa2/src/lib/agb_flash.o
 .bss           0x0000000000000000        0x0 build/sa2/src/multi_sio.o
 .ARM.attributes
                0x0000000000000000       0x20 build/sa2/src/multi_sio.o
 .data          0x0000000000000000        0x0 build/sa2/src/sio32_multi_load.o
 .bss           0x0000000000000000        0x0 build/sa2/src/sio32_multi_load.o
 .ARM.attributes
                0x0000000000000000       0x20 build/sa2/src/sio32_multi_load.o
 .bss           0x0000000000000000        0x0 build/sa2/src/game/options_screen.o
 .ARM.attributes
                0x0000000000000000       0x20 build/sa2/src/game/options_screen.o
 .bss           0x0000000000000000        0x0 build/sa2/src/game/special_stage/utils.o
 .ARM.attributes
                0x0000000000000000       0x20 build/sa2/src/game/special_stage/utils.o
 .bss           0x0000000000000000        0x0 build/sa2/src/game/save.o
 .ARM.attributes
                0x0000000000000000       0x20 build/sa2/src/game/save.o
 .bss           0x0000000000000000        0x0 build/sa2/src/game/multiboot/collect_rings/time_display.o
 .ARM.attributes
                0x0000000000000000       0x20 build/sa2/src/game/multiboot/collect_rings/time_display.o
 .bss           0x0000000000000000        0x0 build/sa2/src/game/math_0.o
 .ARM.attributes
                0x0000000000000000       0x20 build/sa2/src/game/math_0.o
 .bss           0x0000000000000000        0x0 build/sa2/src/game/backgrounds.o
 .ARM.attributes
                0x0000000000000000       0x20 build/sa2/src/game/backgrounds.o
 .data          0x0000000000000000        0x0 build/sa2/asm/rom_header.o
 .bss           0x0000000000000000        0x0 build/sa2/asm/rom_header.o
 .ARM.attributes
                0x0000000000000000       0x20 build/sa2/asm/rom_header.o
 .data          0x0000000000000000        0x0 build/sa2/asm/crt0.o
 .bss           0x0000000000000000        0x0 build/sa2/asm/crt0.o
 .ARM.attributes
                0x0000000000000000       0x20 build/sa2/asm/crt0.o
 .data          0x0000000000000000        0x0 build/sa2/asm/multi_sio_asm.o
 .bss           0x0000000000000000        0x0 build/sa2/asm/multi_sio_asm.o
 .ARM.attributes
                0x0000000000000000       0x20 build/sa2/asm/multi_sio_asm.o
 .data          0x0000000000000000        0x0 build/sa2/src/main.o
 .bss           0x0000000000000000        0x0 build/sa2/src/main.o
 .ARM.attributes
                0x0000000000000000       0x20 build/sa2/src/main.o
 .data          0x0000000000000000        0x0 build/sa2/src/task.o
 .bss           0x0000000000000000        0x0 build/sa2/src/task.o
 .ARM.attributes
                0x0000000000000000       0x20 build/sa2/src/task.o
 .data          0x0000000000000000        0x0 build/sa2/src/sprite_1.o
 .bss           0x0000000000000000        0x0 build/sa2/src/sprite_1.o
 .ARM.attributes
                0x0000000000000000       0x20 build/sa2/src/sprite_1.o
 .data          0x0000000000000000        0x0 build/sa2/src/bg_update.o
 .bss           0x0000000000000000        0x0 build/sa2/src/bg_update.o
 .ARM.attributes
                0x0000000000000000       0x20 build/sa2/src/bg_update.o
 .data          0x0000000000000000        0x0 build/sa2/src/animation_commands_extra.o
 .bss           0x0000000000000000        0x0 build/sa2/src/animation_commands_extra.o
 .ARM.attributes
                0x0000000000000000       0x20 build/sa2/src/animation_commands_extra.o
 .data          0x0000000000000000        0x0 build/sa2/asm/sprite_2.o
 .bss           0x0000000000000000        0x0 build/sa2/asm/sprite_2.o
 .ARM.attributes
                0x0000000000000000       0x20 build/sa2/asm/sprite_2.o
 .data          0x0000000000000000        0x0 build/sa2/src/sprite_3.o
 .bss           0x0000000000000000        0x0 build/sa2/src/sprite_3.o
 .ARM.attributes
                0x0000000000000000       0x20 build/sa2/src/sprite_3.o
 .data          0x0000000000000000        0x0 build/sa2/asm/sprite_3.o
 .bss           0x0000000000000000        0x0 build/sa2/asm/sprite_3.o
 .ARM.attributes
                0x0000000000000000       0x20 build/sa2/asm/sprite_3.o
 .data          0x0000000000000000        0x0 build/sa2/src/animation_commands.o
 .bss           0x0000000000000000        0x0 build/sa2/src/animation_commands.o
 .ARM.attributes
                0x0000000000000000       0x20 build/sa2/src/animation_commands.o
 .data          0x0000000000000000        0x0 build/sa2/asm/sprite_4.o
 .bss           0x0000000000000000        0x0 build/sa2/asm/sprite_4.o
 .ARM.attributes
                0x0000000000000000       0x20 build/sa2/asm/sprite_4.o
 .data          0x0000000000000000        0x0 build/sa2/src/malloc_ewram.o
 .bss           0x0000000000000000        0x0 build/sa2/src/malloc_ewram.o
 .ARM.attributes
                0x0000000000000000       0x20 build/sa2/src/malloc_ewram.o
 .data          0x0000000000000000        0x0 build/sa2/src/malloc_vram.o
 .bss           0x0000000000000000        0x0 build/sa2/src/malloc_vram.o
 .ARM.attributes
                0x0000000000000000       0x20 build/sa2/src/malloc_vram.o
 .data          0x0000000000000000        0x0 build/sa2/src/input_recorder.o
 .bss           0x0000000000000000        0x0 build/sa2/src/input_recorder.o
 .ARM.attributes
                0x0000000000000000       0x20 build/sa2/src/input_recorder.o
 .data          0x0000000000000000        0x0 build/sa2/asm/entities_0.o
 .bss           0x0000000000000000        0x0 build/sa2/asm/entities_0.o
 .ARM.attributes
                0x0000000000000000       0x20 build/sa2/asm/entities_0.o
 .data          0x0000000000000000        0x0 build/sa2/src/game/interactables_0/spring.o
 .bss           0x0000000000000000        0x0 build/sa2/src/game/interactables_0/spring.o
 .ARM.attributes
                0x0000000000000000       0x20 build/sa2/src/game/interactables_0/spring.o
 .data          0x0000000000000000        0x0 build/sa2/asm/interactable_platform.o
 .bss           0x0000000000000000        0x0 build/sa2/asm/interactable_platform.o
 .ARM.attributes
                0x0000000000000000       0x20 build/sa2/asm/interactable_platform.o
 .data          0x0000000000000000        0x0 build/sa2/asm/interactable_081.o
 .bss           0x0000000000000000        0x0 build/sa2/asm/interactable_081.o
 .ARM.attributes
                0x0000000000000000       0x20 build/sa2/asm/interactable_081.o
 .data          0x0000000000000000        0x0 build/sa2/src/game/interactables_0/ramp.o
 .bss           0x0000000000000000        0x0 build/sa2/src/game/interactables_0/ramp.o
 .ARM.attributes
                0x0000000000000000       0x20 build/sa2/src/game/interactables_0/ramp.o
 .data          0x0000000000000000        0x0 build/sa2/src/game/interactables_0/grind_rail.o
 .bss           0x0000000000000000        0x0 build/sa2/src/game/interactables_0/grind_rail.o
 .ARM.attributes
                0x0000000000000000       0x20 build/sa2/src/game/interactables_0/grind_rail.o
 .data          0x0000000000000000        0x0 build/sa2/src/game/interactables_0/044.o
 .bss           0x0000000000000000        0x0 build/sa2/src/game/interactables_0/044.o
 .ARM.attributes
                0x0000000000000000       0x20 build/sa2/src/game/interactables_0/044.o
 .data          0x0000000000000000        0x0 build/sa2/src/game/interactables_0/clear_pipe.o
 .bss           0x0000000000000000        0x0 build/sa2/src/game/interactables_0/clear_pipe.o
 .ARM.attributes
                0x0000000000000000       0x20 build/sa2/src/game/interactables_0/clear_pipe.o
 .data          0x0000000000000000        0x0 build/sa2/src/game/interactables_0/platform_thin.o
 .bss           0x0000000000000000        0x0 build/sa2/src/game/interactables_0/platform_thin.o
 .ARM.attributes
                0x0000000000000000       0x20 build/sa2/src/game/interactables_0/platform_thin.o
 .data          0x0000000000000000        0x0 build/sa2/src/game/interactables_0/slidy_ice.o
 .bss           0x0000000000000000        0x0 build/sa2/src/game/interactables_0/slidy_ice.o
 .ARM.attributes
                0x0000000000000000       0x20 build/sa2/src/game/interactables_0/slidy_ice.o
 .data          0x0000000000000000        0x0 build/sa2/asm/entities_1.o
 .bss           0x0000000000000000        0x0 build/sa2/asm/entities_1.o
 .ARM.attributes
                0x0000000000000000       0x20 build/sa2/asm/entities_1.o
 .data          0x0000000000000000        0x0 build/sa2/src/game/player_callbacks_0.o
 .bss           0x0000000000000000        0x0 build/sa2/src/game/player_callbacks_0.o
 .ARM.attributes
                0x0000000000000000       0x20 build/sa2/src/game/player_callbacks_0.o
 .data          0x0000000000000000        0x0 build/sa2/asm/entities_2.o
 .bss           0x0000000000000000        0x0 build/sa2/asm/entities_2.o
 .ARM.attributes
                0x0000000000000000       0x20 build/sa2/asm/entities_2.o
 .data          0x0000000000000000        0x0 build/sa2/src/game/init.o
 .bss           0x0000000000000000        0x0 build/sa2/src/game/init.o
 .ARM.attributes
                0x0000000000000000       0x20 build/sa2/src/game/init.o
 .data          0x0000000000000000        0x0 build/sa2/src/game/game.o
 .bss           0x0000000000000000        0x0 build/sa2/src/game/game.o
 .ARM.attributes
                0x0000000000000000       0x20 build/sa2/src/game/game.o
 .data          0x0000000000000000        0x0 build/sa2/asm/game.o
 .bss           0x0000000000000000        0x0 build/sa2/asm/game.o
 .ARM.attributes
                0x0000000000000000       0x20 build/sa2/asm/game.o
 .data          0x0000000000000000        0x0 build/sa2/src/game/player_callbacks_1.o
 .bss           0x0000000000000000        0x0 build/sa2/src/game/player_callbacks_1.o
 .ARM.attributes
                0x0000000000000000       0x20 build/sa2/src/game/player_callbacks_1.o
 .data          0x0000000000000000        0x0 build/sa2/asm/game_2.o
 .bss           0x0000000000000000        0x0 build/sa2/asm/game_2.o
 .ARM.attributes
                0x0000000000000000       0x20 build/sa2/asm/game_2.o
 .data          0x0000000000000000        0x0 build/sa2/asm/stage_ui.o
 .bss           0x0000000000000000        0x0 build/sa2/asm/stage_ui.o
 .ARM.attributes
                0x0000000000000000       0x20 build/sa2/asm/stage_ui.o
 .data          0x0000000000000000        0x0 build/sa2/src/game/stage_ui.o
 .bss           0x0000000000000000        0x0 build/sa2/src/game/stage_ui.o
 .ARM.attributes
                0x0000000000000000       0x20 build/sa2/src/game/stage_ui.o
 .data          0x0000000000000000        0x0 build/sa2/asm/stage_debug_ui.o
 .bss           0x0000000000000000        0x0 build/sa2/asm/stage_debug_ui.o
 .ARM.attributes
                0x0000000000000000       0x20 build/sa2/asm/stage_debug_ui.o
 .data          0x0000000000000000        0x0 build/sa2/src/game/screen_transition.o
 .bss           0x0000000000000000        0x0 build/sa2/src/game/screen_transition.o
 .ARM.attributes
                0x0000000000000000       0x20 build/sa2/src/game/screen_transition.o
 .data          0x0000000000000000        0x0 build/sa2/src/game/trapped_animals.o
 .bss           0x0000000000000000        0x0 build/sa2/src/game/trapped_animals.o
 .ARM.attributes
                0x0000000000000000       0x20 build/sa2/src/game/trapped_animals.o
 .data          0x0000000000000000        0x0 build/sa2/src/game/stage_intro.o
 .bss           0x0000000000000000        0x0 build/sa2/src/game/stage_intro.o
 .ARM.attributes
                0x0000000000000000       0x20 build/sa2/src/game/stage_intro.o
 .data          0x0000000000000000        0x0 build/sa2/asm/stage_intro.o
 .bss           0x0000000000000000        0x0 build/sa2/asm/stage_intro.o
 .ARM.attributes
                0x0000000000000000       0x20 build/sa2/asm/stage_intro.o
 .data          0x0000000000000000        0x0 build/sa2/asm/stage_outro.o
 .bss           0x0000000000000000        0x0 build/sa2/asm/stage_outro.o
 .ARM.attributes
                0x0000000000000000       0x20 build/sa2/asm/stage_outro.o
 .data          0x0000000000000000        0x0 build/sa2/src/game/character_select.o
 .bss           0x0000000000000000        0x0 build/sa2/src/game/character_select.o
 .ARM.attributes
                0x0000000000000000       0x20 build/sa2/src/game/character_select.o
 .data          0x0000000000000000        0x0 build/sa2/src/game/course_select.o
 .bss           0x0000000000000000        0x0 build/sa2/src/game/course_select.o
 .ARM.attributes
                0x0000000000000000       0x20 build/sa2/src/game/course_select.o
 .data          0x0000000000000000        0x0 build/sa2/src/game/countdown.o
 .bss           0x0000000000000000        0x0 build/sa2/src/game/countdown.o
 .ARM.attributes
                0x0000000000000000       0x20 build/sa2/src/game/countdown.o
 .data          0x0000000000000000        0x0 build/sa2/src/game/game_over.o
 .bss           0x0000000000000000        0x0 build/sa2/src/game/game_over.o
 .ARM.attributes
                0x0000000000000000       0x20 build/sa2/src/game/game_over.o
 .data          0x0000000000000000        0x0 build/sa2/src/game/true_area_53/intro.o
 .bss           0x0000000000000000        0x0 build/sa2/src/game/true_area_53/intro.o
 .ARM.attributes
                0x0000000000000000       0x20 build/sa2/src/game/true_area_53/intro.o
 .data          0x0000000000000000        0x0 build/sa2/asm/true_area_53.o
 .bss           0x0000000000000000        0x0 build/sa2/asm/true_area_53.o
 .ARM.attributes
                0x0000000000000000       0x20 build/sa2/asm/true_area_53.o
 .data          0x0000000000000000        0x0 build/sa2/asm/enemies_shared.o
 .bss           0x0000000000000000        0x0 build/sa2/asm/enemies_shared.o
 .ARM.attributes
                0x0000000000000000       0x20 build/sa2/asm/enemies_shared.o
 .data          0x0000000000000000        0x0 build/sa2/asm/enemy_mon.o
 .bss           0x0000000000000000        0x0 build/sa2/asm/enemy_mon.o
 .ARM.attributes
                0x0000000000000000       0x20 build/sa2/asm/enemy_mon.o
 .data          0x0000000000000000        0x0 build/sa2/asm/enemy_gohla.o
 .bss           0x0000000000000000        0x0 build/sa2/asm/enemy_gohla.o
 .ARM.attributes
                0x0000000000000000       0x20 build/sa2/asm/enemy_gohla.o
 .data          0x0000000000000000        0x0 build/sa2/asm/enemy_kura_kura.o
 .bss           0x0000000000000000        0x0 build/sa2/asm/enemy_kura_kura.o
 .ARM.attributes
                0x0000000000000000       0x20 build/sa2/asm/enemy_kura_kura.o
 .data          0x0000000000000000        0x0 build/sa2/asm/enemy_kubinaga.o
 .bss           0x0000000000000000        0x0 build/sa2/asm/enemy_kubinaga.o
 .ARM.attributes
                0x0000000000000000       0x20 build/sa2/asm/enemy_kubinaga.o
 .data          0x0000000000000000        0x0 build/sa2/asm/enemy_buzzer.o
 .bss           0x0000000000000000        0x0 build/sa2/asm/enemy_buzzer.o
 .ARM.attributes
                0x0000000000000000       0x20 build/sa2/asm/enemy_buzzer.o
 .data          0x0000000000000000        0x0 build/sa2/asm/enemy_kiki.o
 .bss           0x0000000000000000        0x0 build/sa2/asm/enemy_kiki.o
 .ARM.attributes
                0x0000000000000000       0x20 build/sa2/asm/enemy_kiki.o
 .data          0x0000000000000000        0x0 build/sa2/asm/enemy_koura.o
 .bss           0x0000000000000000        0x0 build/sa2/asm/enemy_koura.o
 .ARM.attributes
                0x0000000000000000       0x20 build/sa2/asm/enemy_koura.o
 .data          0x0000000000000000        0x0 build/sa2/src/game/enemies/bell.o
 .bss           0x0000000000000000        0x0 build/sa2/src/game/enemies/bell.o
 .ARM.attributes
                0x0000000000000000       0x20 build/sa2/src/game/enemies/bell.o
 .data          0x0000000000000000        0x0 build/sa2/asm/enemy_yado.o
 .bss           0x0000000000000000        0x0 build/sa2/asm/enemy_yado.o
 .ARM.attributes
                0x0000000000000000       0x20 build/sa2/asm/enemy_yado.o
 .data          0x0000000000000000        0x0 build/sa2/asm/enemy_piko_piko.o
 .bss           0x0000000000000000        0x0 build/sa2/asm/enemy_piko_piko.o
 .ARM.attributes
                0x0000000000000000       0x20 build/sa2/asm/enemy_piko_piko.o
 .data          0x0000000000000000        0x0 build/sa2/asm/enemy_circus.o
 .bss           0x0000000000000000        0x0 build/sa2/asm/enemy_circus.o
 .ARM.attributes
                0x0000000000000000       0x20 build/sa2/asm/enemy_circus.o
 .data          0x0000000000000000        0x0 build/sa2/asm/enemy_madillo.o
 .bss           0x0000000000000000        0x0 build/sa2/asm/enemy_madillo.o
 .ARM.attributes
                0x0000000000000000       0x20 build/sa2/asm/enemy_madillo.o
 .data          0x0000000000000000        0x0 build/sa2/asm/enemy_straw.o
 .bss           0x0000000000000000        0x0 build/sa2/asm/enemy_straw.o
 .ARM.attributes
                0x0000000000000000       0x20 build/sa2/asm/enemy_straw.o
 .data          0x0000000000000000        0x0 build/sa2/asm/enemy_hammerhead.o
 .bss           0x0000000000000000        0x0 build/sa2/asm/enemy_hammerhead.o
 .ARM.attributes
                0x0000000000000000       0x20 build/sa2/asm/enemy_hammerhead.o
 .data          0x0000000000000000        0x0 build/sa2/src/game/enemies/spinner.o
 .bss           0x0000000000000000        0x0 build/sa2/src/game/enemies/spinner.o
 .ARM.attributes
                0x0000000000000000       0x20 build/sa2/src/game/enemies/spinner.o
 .data          0x0000000000000000        0x0 build/sa2/asm/enemy_mouse.o
 .bss           0x0000000000000000        0x0 build/sa2/asm/enemy_mouse.o
 .ARM.attributes
                0x0000000000000000       0x20 build/sa2/asm/enemy_mouse.o
 .data          0x0000000000000000        0x0 build/sa2/asm/enemy_pen.o
 .bss           0x0000000000000000        0x0 build/sa2/asm/enemy_pen.o
 .ARM.attributes
                0x0000000000000000       0x20 build/sa2/asm/enemy_pen.o
 .data          0x0000000000000000        0x0 build/sa2/asm/enemy_geji_geji.o
 .bss           0x0000000000000000        0x0 build/sa2/asm/enemy_geji_geji.o
 .ARM.attributes
                0x0000000000000000       0x20 build/sa2/asm/enemy_geji_geji.o
 .data          0x0000000000000000        0x0 build/sa2/asm/enemy_balloon.o
 .bss           0x0000000000000000        0x0 build/sa2/asm/enemy_balloon.o
 .ARM.attributes
                0x0000000000000000       0x20 build/sa2/asm/enemy_balloon.o
 .data          0x0000000000000000        0x0 build/sa2/asm/enemy_flickey.o
 .bss           0x0000000000000000        0x0 build/sa2/asm/enemy_flickey.o
 .ARM.attributes
                0x0000000000000000       0x20 build/sa2/asm/enemy_flickey.o
 .data          0x0000000000000000        0x0 build/sa2/asm/enemy_kyura.o
 .bss           0x0000000000000000        0x0 build/sa2/asm/enemy_kyura.o
 .ARM.attributes
                0x0000000000000000       0x20 build/sa2/asm/enemy_kyura.o
 .data          0x0000000000000000        0x0 build/sa2/asm/enemy_bullet_buzzer.o
 .bss           0x0000000000000000        0x0 build/sa2/asm/enemy_bullet_buzzer.o
 .ARM.attributes
                0x0000000000000000       0x20 build/sa2/asm/enemy_bullet_buzzer.o
 .data          0x0000000000000000        0x0 build/sa2/asm/enemy_star.o
 .bss           0x0000000000000000        0x0 build/sa2/asm/enemy_star.o
 .ARM.attributes
                0x0000000000000000       0x20 build/sa2/asm/enemy_star.o
 .data          0x0000000000000000        0x0 build/sa2/src/game/multiplayer/mode_select.o
 .bss           0x0000000000000000        0x0 build/sa2/src/game/multiplayer/mode_select.o
 .ARM.attributes
                0x0000000000000000       0x20 build/sa2/src/game/multiplayer/mode_select.o
 .data          0x0000000000000000        0x0 build/sa2/src/game/multiplayer/multipak_connection.o
 .bss           0x0000000000000000        0x0 build/sa2/src/game/multiplayer/multipak_connection.o
 .ARM.attributes
                0x0000000000000000       0x20 build/sa2/src/game/multiplayer/multipak_connection.o
 .data          0x0000000000000000        0x0 build/sa2/src/game/multiplayer/communication_outcome.o
 .bss           0x0000000000000000        0x0 build/sa2/src/game/multiplayer/communication_outcome.o
 .ARM.attributes
                0x0000000000000000       0x20 build/sa2/src/game/multiplayer/communication_outcome.o
 .data          0x0000000000000000        0x0 build/sa2/src/game/multiplayer/results.o
 .bss           0x0000000000000000        0x0 build/sa2/src/game/multiplayer/results.o
 .ARM.attributes
                0x0000000000000000       0x20 build/sa2/src/game/multiplayer/results.o
 .data          0x0000000000000000        0x0 build/sa2/src/game/multiplayer/team_play.o
 .bss           0x0000000000000000        0x0 build/sa2/src/game/multiplayer/team_play.o
 .ARM.attributes
                0x0000000000000000       0x20 build/sa2/src/game/multiplayer/team_play.o
 .data          0x0000000000000000        0x0 build/sa2/src/game/interactables_1/decoration.o
 .bss           0x0000000000000000        0x0 build/sa2/src/game/interactables_1/decoration.o
 .ARM.attributes
                0x0000000000000000       0x20 build/sa2/src/game/interactables_1/decoration.o
 .data          0x0000000000000000        0x0 build/sa2/src/game/interactables_1/booster.o
 .bss           0x0000000000000000        0x0 build/sa2/src/game/interactables_1/booster.o
 .ARM.attributes
                0x0000000000000000       0x20 build/sa2/src/game/interactables_1/booster.o
 .data          0x0000000000000000        0x0 build/sa2/src/game/interactables_1/incline_ramp.o
 .bss           0x0000000000000000        0x0 build/sa2/src/game/interactables_1/incline_ramp.o
 .ARM.attributes
                0x0000000000000000       0x20 build/sa2/src/game/interactables_1/incline_ramp.o
 .data          0x0000000000000000        0x0 build/sa2/src/game/interactables_1/spring_bouncy.o
 .bss           0x0000000000000000        0x0 build/sa2/src/game/interactables_1/spring_bouncy.o
 .ARM.attributes
                0x0000000000000000       0x20 build/sa2/src/game/interactables_1/spring_bouncy.o
 .data          0x0000000000000000        0x0 build/sa2/src/game/interactables_1/019.o
 .bss           0x0000000000000000        0x0 build/sa2/src/game/interactables_1/019.o
 .ARM.attributes
                0x0000000000000000       0x20 build/sa2/src/game/interactables_1/019.o
 .data          0x0000000000000000        0x0 build/sa2/src/game/interactables_1/toggle_player_layer.o
 .bss           0x0000000000000000        0x0 build/sa2/src/game/interactables_1/toggle_player_layer.o
 .ARM.attributes
                0x0000000000000000       0x20 build/sa2/src/game/interactables_1/toggle_player_layer.o
 .data          0x0000000000000000        0x0 build/sa2/src/game/interactables_1/rotating_handle.o
 .bss           0x0000000000000000        0x0 build/sa2/src/game/interactables_1/rotating_handle.o
 .ARM.attributes
                0x0000000000000000       0x20 build/sa2/src/game/interactables_1/rotating_handle.o
 .data          0x0000000000000000        0x0 build/sa2/src/game/interactables_1/gapped_loop.o
 .bss           0x0000000000000000        0x0 build/sa2/src/game/interactables_1/gapped_loop.o
 .ARM.attributes
                0x0000000000000000       0x20 build/sa2/src/game/interactables_1/gapped_loop.o
 .data          0x0000000000000000        0x0 build/sa2/src/game/interactables_1/spikes.o
 .bss           0x0000000000000000        0x0 build/sa2/src/game/interactables_1/spikes.o
 .ARM.attributes
                0x0000000000000000       0x20 build/sa2/src/game/interactables_1/spikes.o
 .data          0x0000000000000000        0x0 build/sa2/src/game/interactables_1/corkscrew.o
 .bss           0x0000000000000000        0x0 build/sa2/src/game/interactables_1/corkscrew.o
 .ARM.attributes
                0x0000000000000000       0x20 build/sa2/src/game/interactables_1/corkscrew.o
 .data          0x0000000000000000        0x0 build/sa2/src/game/interactables_1/bouncy_bar.o
 .bss           0x0000000000000000        0x0 build/sa2/src/game/interactables_1/bouncy_bar.o
 .ARM.attributes
                0x0000000000000000       0x20 build/sa2/src/game/interactables_1/bouncy_bar.o
 .data          0x0000000000000000        0x0 build/sa2/asm/interactable_corkscrew_3D.o
 .bss           0x0000000000000000        0x0 build/sa2/asm/interactable_corkscrew_3D.o
 .ARM.attributes
                0x0000000000000000       0x20 build/sa2/asm/interactable_corkscrew_3D.o
 .data          0x0000000000000000        0x0 build/sa2/src/game/interactables_1/stage_goal.o
 .bss           0x0000000000000000        0x0 build/sa2/src/game/interactables_1/stage_goal.o
 .ARM.attributes
                0x0000000000000000       0x20 build/sa2/src/game/interactables_1/stage_goal.o
 .data          0x0000000000000000        0x0 build/sa2/src/game/interactables_1/checkpoint.o
 .bss           0x0000000000000000        0x0 build/sa2/src/game/interactables_1/checkpoint.o
 .ARM.attributes
                0x0000000000000000       0x20 build/sa2/src/game/interactables_1/checkpoint.o
 .data          0x0000000000000000        0x0 build/sa2/src/game/interactables_1/windmill.o
 .bss           0x0000000000000000        0x0 build/sa2/src/game/interactables_1/windmill.o
 .ARM.attributes
                0x0000000000000000       0x20 build/sa2/src/game/interactables_1/windmill.o
 .data          0x0000000000000000        0x0 build/sa2/src/game/special_stage/main.o
 .bss           0x0000000000000000        0x0 build/sa2/src/game/special_stage/main.o
 .ARM.attributes
                0x0000000000000000       0x20 build/sa2/src/game/special_stage/main.o
 .data          0x0000000000000000        0x0 build/sa2/src/game/special_stage/player.o
 .bss           0x0000000000000000        0x0 build/sa2/src/game/special_stage/player.o
 .ARM.attributes
                0x0000000000000000       0x20 build/sa2/src/game/special_stage/player.o
 .data          0x0000000000000000        0x0 build/sa2/src/game/special_stage/collectables.o
 .bss           0x0000000000000000        0x0 build/sa2/src/game/special_stage/collectables.o
 .ARM.attributes
                0x0000000000000000       0x20 build/sa2/src/game/special_stage/collectables.o
 .data          0x0000000000000000        0x0 build/sa2/src/game/special_stage/world.o
 .bss           0x0000000000000000        0x0 build/sa2/src/game/special_stage/world.o
 .ARM.attributes
                0x0000000000000000       0x20 build/sa2/src/game/special_stage/world.o
 .data          0x0000000000000000        0x0 build/sa2/src/game/special_stage/physics.o
 .bss           0x0000000000000000        0x0 build/sa2/src/game/special_stage/physics.o
 .ARM.attributes
                0x0000000000000000       0x20 build/sa2/src/game/special_stage/physics.o
 .data          0x0000000000000000        0x0 build/sa2/src/game/special_stage/ui.o
 .bss           0x0000000000000000        0x0 build/sa2/src/game/special_stage/ui.o
 .ARM.attributes
                0x0000000000000000       0x20 build/sa2/src/game/special_stage/ui.o
 .data          0x0000000000000000        0x0 build/sa2/src/game/special_stage/guard_robo.o
 .bss           0x0000000000000000        0x0 build/sa2/src/game/special_stage/guard_robo.o
 .ARM.attributes
                0x0000000000000000       0x20 build/sa2/src/game/special_stage/guard_robo.o
 .data          0x0000000000000000        0x0 build/sa2/src/game/interactables_2/hot_crater/wind_up_stick.o
 .bss           0x0000000000000000        0x0 build/sa2/src/game/interactables_2/hot_crater/wind_up_stick.o
 .ARM.attributes
                0x0000000000000000       0x20 build/sa2/src/game/interactables_2/hot_crater/wind_up_stick.o
 .data          0x0000000000000000        0x0 build/sa2/src/game/interactables_2/hot_crater/hook_rail.o
 .bss           0x0000000000000000        0x0 build/sa2/src/game/interactables_2/hot_crater/hook_rail.o
 .ARM.attributes
                0x0000000000000000       0x20 build/sa2/src/game/interactables_2/hot_crater/hook_rail.o
 .data          0x0000000000000000        0x0 build/sa2/src/game/interactables_2/hot_crater/turn_around_bar.o
 .bss           0x0000000000000000        0x0 build/sa2/src/game/interactables_2/hot_crater/turn_around_bar.o
 .ARM.attributes
                0x0000000000000000       0x20 build/sa2/src/game/interactables_2/hot_crater/turn_around_bar.o
 .data          0x0000000000000000        0x0 build/sa2/src/game/interactables_2/hot_crater/crane.o
 .bss           0x0000000000000000        0x0 build/sa2/src/game/interactables_2/hot_crater/crane.o
 .ARM.attributes
                0x0000000000000000       0x20 build/sa2/src/game/interactables_2/hot_crater/crane.o
 .data          0x0000000000000000        0x0 build/sa2/src/game/interactables_2/hot_crater/dash_ring.o
 .bss           0x0000000000000000        0x0 build/sa2/src/game/interactables_2/hot_crater/dash_ring.o
 .ARM.attributes
                0x0000000000000000       0x20 build/sa2/src/game/interactables_2/hot_crater/dash_ring.o
 .data          0x0000000000000000        0x0 build/sa2/src/game/interactables_2/hot_crater/floating_spring.o
 .bss           0x0000000000000000        0x0 build/sa2/src/game/interactables_2/hot_crater/floating_spring.o
 .ARM.attributes
                0x0000000000000000       0x20 build/sa2/src/game/interactables_2/hot_crater/floating_spring.o
 .data          0x0000000000000000        0x0 build/sa2/src/game/interactables_2/music_plant/note_sphere.o
 .bss           0x0000000000000000        0x0 build/sa2/src/game/interactables_2/music_plant/note_sphere.o
 .ARM.attributes
                0x0000000000000000       0x20 build/sa2/src/game/interactables_2/music_plant/note_sphere.o
 .data          0x0000000000000000        0x0 build/sa2/src/game/interactables_2/music_plant/note_block.o
 .bss           0x0000000000000000        0x0 build/sa2/src/game/interactables_2/music_plant/note_block.o
 .ARM.attributes
                0x0000000000000000       0x20 build/sa2/src/game/interactables_2/music_plant/note_block.o
 .data          0x0000000000000000        0x0 build/sa2/src/game/interactables_2/music_plant/guitar_string.o
 .bss           0x0000000000000000        0x0 build/sa2/src/game/interactables_2/music_plant/guitar_string.o
 .ARM.attributes
                0x0000000000000000       0x20 build/sa2/src/game/interactables_2/music_plant/guitar_string.o
 .data          0x0000000000000000        0x0 build/sa2/src/game/interactables_2/music_plant/keyboard.o
 .bss           0x0000000000000000        0x0 build/sa2/src/game/interactables_2/music_plant/keyboard.o
 .ARM.attributes
                0x0000000000000000       0x20 build/sa2/src/game/interactables_2/music_plant/keyboard.o
 .data          0x0000000000000000        0x0 build/sa2/src/game/interactables_2/music_plant/german_flute.o
 .bss           0x0000000000000000        0x0 build/sa2/src/game/interactables_2/music_plant/german_flute.o
 .ARM.attributes
                0x0000000000000000       0x20 build/sa2/src/game/interactables_2/music_plant/german_flute.o
 .data          0x0000000000000000        0x0 build/sa2/src/game/interactables_2/music_plant/handlers_ia_pipe_horn.o
 .bss           0x0000000000000000        0x0 build/sa2/src/game/interactables_2/music_plant/handlers_ia_pipe_horn.o
 .ARM.attributes
                0x0000000000000000       0x20 build/sa2/src/game/interactables_2/music_plant/handlers_ia_pipe_horn.o
 .data          0x0000000000000000        0x0 build/sa2/src/game/interactables_2/music_plant/pipe_horn.o
 .bss           0x0000000000000000        0x0 build/sa2/src/game/interactables_2/music_plant/pipe_horn.o
 .ARM.attributes
                0x0000000000000000       0x20 build/sa2/src/game/interactables_2/music_plant/pipe_horn.o
 .data          0x0000000000000000        0x0 build/sa2/src/game/interactables_2/ice_paradise/slowing_snow.o
 .bss           0x0000000000000000        0x0 build/sa2/src/game/interactables_2/ice_paradise/slowing_snow.o
 .ARM.attributes
                0x0000000000000000       0x20 build/sa2/src/game/interactables_2/ice_paradise/slowing_snow.o
 .data          0x0000000000000000        0x0 build/sa2/src/game/interactables_2/ice_paradise/funnel_sphere.o
 .bss           0x0000000000000000        0x0 build/sa2/src/game/interactables_2/ice_paradise/funnel_sphere.o
 .ARM.attributes
                0x0000000000000000       0x20 build/sa2/src/game/interactables_2/ice_paradise/funnel_sphere.o
 .data          0x0000000000000000        0x0 build/sa2/src/game/interactables_2/ice_paradise/half_pipe.o
 .bss           0x0000000000000000        0x0 build/sa2/src/game/interactables_2/ice_paradise/half_pipe.o
 .ARM.attributes
                0x0000000000000000       0x20 build/sa2/src/game/interactables_2/ice_paradise/half_pipe.o
 .data          0x0000000000000000        0x0 build/sa2/src/game/interactables_2/ice_paradise/069.o
 .bss           0x0000000000000000        0x0 build/sa2/src/game/interactables_2/ice_paradise/069.o
 .ARM.attributes
                0x0000000000000000       0x20 build/sa2/src/game/interactables_2/ice_paradise/069.o
 .data          0x0000000000000000        0x0 build/sa2/src/game/interactables_2/tec_base/note_block.o
 .bss           0x0000000000000000        0x0 build/sa2/src/game/interactables_2/tec_base/note_block.o
 .ARM.attributes
                0x0000000000000000       0x20 build/sa2/src/game/interactables_2/tec_base/note_block.o
 .data          0x0000000000000000        0x0 build/sa2/src/game/interactables_2/tec_base/light_bridge.o
 .bss           0x0000000000000000        0x0 build/sa2/src/game/interactables_2/tec_base/light_bridge.o
 .ARM.attributes
                0x0000000000000000       0x20 build/sa2/src/game/interactables_2/tec_base/light_bridge.o
 .data          0x0000000000000000        0x0 build/sa2/src/game/interactables_2/tec_base/075.o
 .bss           0x0000000000000000        0x0 build/sa2/src/game/interactables_2/tec_base/075.o
 .ARM.attributes
                0x0000000000000000       0x20 build/sa2/src/game/interactables_2/tec_base/075.o
 .data          0x0000000000000000        0x0 build/sa2/src/game/interactables_2/tec_base/078.o
 .bss           0x0000000000000000        0x0 build/sa2/src/game/interactables_2/tec_base/078.o
 .ARM.attributes
                0x0000000000000000       0x20 build/sa2/src/game/interactables_2/tec_base/078.o
 .data          0x0000000000000000        0x0 build/sa2/src/game/interactables_2/tec_base/080.o
 .bss           0x0000000000000000        0x0 build/sa2/src/game/interactables_2/tec_base/080.o
 .ARM.attributes
                0x0000000000000000       0x20 build/sa2/src/game/interactables_2/tec_base/080.o
 .data          0x0000000000000000        0x0 build/sa2/src/game/interactables_2/sky_canyon/giant_propeller.o
 .bss           0x0000000000000000        0x0 build/sa2/src/game/interactables_2/sky_canyon/giant_propeller.o
 .ARM.attributes
                0x0000000000000000       0x20 build/sa2/src/game/interactables_2/sky_canyon/giant_propeller.o
 .data          0x0000000000000000        0x0 build/sa2/src/game/interactables_2/sky_canyon/small_windmill.o
 .bss           0x0000000000000000        0x0 build/sa2/src/game/interactables_2/sky_canyon/small_windmill.o
 .ARM.attributes
                0x0000000000000000       0x20 build/sa2/src/game/interactables_2/sky_canyon/small_windmill.o
 .data          0x0000000000000000        0x0 build/sa2/src/game/interactables_2/sky_canyon/085.o
 .bss           0x0000000000000000        0x0 build/sa2/src/game/interactables_2/sky_canyon/085.o
 .ARM.attributes
                0x0000000000000000       0x20 build/sa2/src/game/interactables_2/sky_canyon/085.o
 .data          0x0000000000000000        0x0 build/sa2/src/game/interactables_2/sky_canyon/whirlwind.o
 .bss           0x0000000000000000        0x0 build/sa2/src/game/interactables_2/sky_canyon/whirlwind.o
 .ARM.attributes
                0x0000000000000000       0x20 build/sa2/src/game/interactables_2/sky_canyon/whirlwind.o
 .data          0x0000000000000000        0x0 build/sa2/asm/interactable_087.o
 .bss           0x0000000000000000        0x0 build/sa2/asm/interactable_087.o
 .ARM.attributes
                0x0000000000000000       0x20 build/sa2/asm/interactable_087.o
 .data          0x0000000000000000        0x0 build/sa2/asm/interactable_091.o
 .bss           0x0000000000000000        0x0 build/sa2/asm/interactable_091.o
 .ARM.attributes
                0x0000000000000000       0x20 build/sa2/asm/interactable_091.o
 .data          0x0000000000000000        0x0 build/sa2/asm/interactable_093.o
 .bss           0x0000000000000000        0x0 build/sa2/asm/interactable_093.o
 .ARM.attributes
                0x0000000000000000       0x20 build/sa2/asm/interactable_093.o
 .data          0x0000000000000000        0x0 build/sa2/src/game/interactables_2/sky_canyon/094.o
 .bss           0x0000000000000000        0x0 build/sa2/src/game/interactables_2/sky_canyon/094.o
 .ARM.attributes
                0x0000000000000000       0x20 build/sa2/src/game/interactables_2/sky_canyon/094.o
 .data          0x0000000000000000        0x0 build/sa2/src/game/interactables_2/sky_canyon/095.o
 .bss           0x0000000000000000        0x0 build/sa2/src/game/interactables_2/sky_canyon/095.o
 .ARM.attributes
                0x0000000000000000       0x20 build/sa2/src/game/interactables_2/sky_canyon/095.o
 .data          0x0000000000000000        0x0 build/sa2/src/game/interactables_2/sky_canyon/flying_handle.o
 .bss           0x0000000000000000        0x0 build/sa2/src/game/interactables_2/sky_canyon/flying_handle.o
 .ARM.attributes
                0x0000000000000000       0x20 build/sa2/src/game/interactables_2/sky_canyon/flying_handle.o
 .data          0x0000000000000000        0x0 build/sa2/src/game/interactables_2/egg_utopia/speeding_platform.o
 .bss           0x0000000000000000        0x0 build/sa2/src/game/interactables_2/egg_utopia/speeding_platform.o
 .ARM.attributes
                0x0000000000000000       0x20 build/sa2/src/game/interactables_2/egg_utopia/speeding_platform.o
 .data          0x0000000000000000        0x0 build/sa2/src/game/interactables_2/egg_utopia/gravity_toggle.o
 .bss           0x0000000000000000        0x0 build/sa2/src/game/interactables_2/egg_utopia/gravity_toggle.o
 .ARM.attributes
                0x0000000000000000       0x20 build/sa2/src/game/interactables_2/egg_utopia/gravity_toggle.o
 .data          0x0000000000000000        0x0 build/sa2/src/game/interactables_2/notification_ring_bonus.o
 .bss           0x0000000000000000        0x0 build/sa2/src/game/interactables_2/notification_ring_bonus.o
 .ARM.attributes
                0x0000000000000000       0x20 build/sa2/src/game/interactables_2/notification_ring_bonus.o
 .data          0x0000000000000000        0x0 build/sa2/src/game/interactables_2/sky_canyon_init.o
 .bss           0x0000000000000000        0x0 build/sa2/src/game/interactables_2/sky_canyon_init.o
 .ARM.attributes
                0x0000000000000000       0x20 build/sa2/src/game/interactables_2/sky_canyon_init.o
 .data          0x0000000000000000        0x0 build/sa2/src/game/interactables_2/105.o
 .bss           0x0000000000000000        0x0 build/sa2/src/game/interactables_2/105.o
 .ARM.attributes
                0x0000000000000000       0x20 build/sa2/src/game/interactables_2/105.o
 .data          0x0000000000000000        0x0 build/sa2/src/game/interactables_2/note_particle.o
 .bss           0x0000000000000000        0x0 build/sa2/src/game/interactables_2/note_particle.o
 .ARM.attributes
                0x0000000000000000       0x20 build/sa2/src/game/interactables_2/note_particle.o
 .data          0x0000000000000000        0x0 build/sa2/src/game/interactables_2/special_ring.o
 .bss           0x0000000000000000        0x0 build/sa2/src/game/interactables_2/special_ring.o
 .ARM.attributes
                0x0000000000000000       0x20 build/sa2/src/game/interactables_2/special_ring.o
 .data          0x0000000000000000        0x0 build/sa2/src/game/multiboot/connection.o
 .bss           0x0000000000000000        0x0 build/sa2/src/game/multiboot/connection.o
 .ARM.attributes
                0x0000000000000000       0x20 build/sa2/src/game/multiboot/connection.o
 .data          0x0000000000000000        0x0 build/sa2/src/game/multiboot/collect_rings/results.o
 .bss           0x0000000000000000        0x0 build/sa2/src/game/multiboot/collect_rings/results.o
 .ARM.attributes
                0x0000000000000000       0x20 build/sa2/src/game/multiboot/collect_rings/results.o
 .data          0x0000000000000000        0x0 build/sa2/asm/math_0.o
 .bss           0x0000000000000000        0x0 build/sa2/asm/math_0.o
 .ARM.attributes
                0x0000000000000000       0x20 build/sa2/asm/math_0.o
 .data          0x0000000000000000        0x0 build/sa2/asm/math_1.o
 .bss           0x0000000000000000        0x0 build/sa2/asm/math_1.o
 .ARM.attributes
                0x0000000000000000       0x20 build/sa2/asm/math_1.o
 .data          0x0000000000000000        0x0 build/sa2/src/game/math_1.o
 .bss           0x0000000000000000        0x0 build/sa2/src/game/math_1.o
 .ARM.attributes
                0x0000000000000000       0x20 build/sa2/src/game/math_1.o
 .data          0x0000000000000000        0x0 build/sa2/src/game/item_box.o
 .bss           0x0000000000000000        0x0 build/sa2/src/game/item_box.o
 .ARM.attributes
                0x0000000000000000       0x20 build/sa2/src/game/item_box.o
 .data          0x0000000000000000        0x0 build/sa2/asm/item_box.o
 .bss           0x0000000000000000        0x0 build/sa2/asm/item_box.o
 .ARM.attributes
                0x0000000000000000       0x20 build/sa2/asm/item_box.o
 .data          0x0000000000000000        0x0 build/sa2/src/game/heart_particles_effect.o
 .bss           0x0000000000000000        0x0 build/sa2/src/game/heart_particles_effect.o
 .ARM.attributes
                0x0000000000000000       0x20 build/sa2/src/game/heart_particles_effect.o
 .data          0x0000000000000000        0x0 build/sa2/src/game/race_progress.o
 .bss           0x0000000000000000        0x0 build/sa2/src/game/race_progress.o
 .ARM.attributes
                0x0000000000000000       0x20 build/sa2/src/game/race_progress.o
 .data          0x0000000000000000        0x0 build/sa2/src/game/unknown_effect.o
 .bss           0x0000000000000000        0x0 build/sa2/src/game/unknown_effect.o
 .ARM.attributes
                0x0000000000000000       0x20 build/sa2/src/game/unknown_effect.o
 .data          0x0000000000000000        0x0 build/sa2/src/game/multiplayer_lobby.o
 .bss           0x0000000000000000        0x0 build/sa2/src/game/multiplayer_lobby.o
 .ARM.attributes
                0x0000000000000000       0x20 build/sa2/src/game/multiplayer_lobby.o
 .data          0x0000000000000000        0x0 build/sa2/src/game/time_attack/mode_select.o
 .bss           0x0000000000000000        0x0 build/sa2/src/game/time_attack/mode_select.o
 .ARM.attributes
                0x0000000000000000       0x20 build/sa2/src/game/time_attack/mode_select.o
 .data          0x0000000000000000        0x0 build/sa2/src/game/time_attack/lobby.o
 .bss           0x0000000000000000        0x0 build/sa2/src/game/time_attack/lobby.o
 .ARM.attributes
                0x0000000000000000       0x20 build/sa2/src/game/time_attack/lobby.o
 .data          0x0000000000000000        0x0 build/sa2/src/game/time_attack/results.o
 .bss           0x0000000000000000        0x0 build/sa2/src/game/time_attack/results.o
 .ARM.attributes
                0x0000000000000000       0x20 build/sa2/src/game/time_attack/results.o
 .data          0x0000000000000000        0x0 build/sa2/src/game/boost_effect.o
 .bss           0x0000000000000000        0x0 build/sa2/src/game/boost_effect.o
 .ARM.attributes
                0x0000000000000000       0x20 build/sa2/src/game/boost_effect.o
 .data          0x0000000000000000        0x0 build/sa2/src/game/sound_test.o
 .bss           0x0000000000000000        0x0 build/sa2/src/game/sound_test.o
 .ARM.attributes
                0x0000000000000000       0x20 build/sa2/src/game/sound_test.o
 .data          0x0000000000000000        0x0 build/sa2/src/game/title_screen.o
 .bss           0x0000000000000000        0x0 build/sa2/src/game/title_screen.o
 .ARM.attributes
                0x0000000000000000       0x20 build/sa2/src/game/title_screen.o
 .data          0x0000000000000000        0x0 build/sa2/src/game/cutscenes/level_endings.o
 .bss           0x0000000000000000        0x0 build/sa2/src/game/cutscenes/level_endings.o
 .ARM.attributes
                0x0000000000000000       0x20 build/sa2/src/game/cutscenes/level_endings.o
 .data          0x0000000000000000        0x0 build/sa2/src/game/cutscenes/endings.o
 .bss           0x0000000000000000        0x0 build/sa2/src/game/cutscenes/endings.o
 .ARM.attributes
                0x0000000000000000       0x20 build/sa2/src/game/cutscenes/endings.o
 .data          0x0000000000000000        0x0 build/sa2/src/game/cutscenes/credits.o
 .bss           0x0000000000000000        0x0 build/sa2/src/game/cutscenes/credits.o
 .ARM.attributes
                0x0000000000000000       0x20 build/sa2/src/game/cutscenes/credits.o
 .data          0x0000000000000000        0x0 build/sa2/src/game/cutscenes/credits_slides.o
 .bss           0x0000000000000000        0x0 build/sa2/src/game/cutscenes/credits_slides.o
 .ARM.attributes
                0x0000000000000000       0x20 build/sa2/src/game/cutscenes/credits_slides.o
 .data          0x0000000000000000        0x0 build/sa2/src/game/cutscenes/credits_end.o
 .bss           0x0000000000000000        0x0 build/sa2/src/game/cutscenes/credits_end.o
 .ARM.attributes
                0x0000000000000000       0x20 build/sa2/src/game/cutscenes/credits_end.o
 .data          0x0000000000000000        0x0 build/sa2/src/game/cutscenes/extra_ending_fall.o
 .bss           0x0000000000000000        0x0 build/sa2/src/game/cutscenes/extra_ending_fall.o
 .ARM.attributes
                0x0000000000000000       0x20 build/sa2/src/game/cutscenes/extra_ending_fall.o
 .data          0x0000000000000000        0x0 build/sa2/src/game/cutscenes/extra_ending_slides.o
 .bss           0x0000000000000000        0x0 build/sa2/src/game/cutscenes/extra_ending_slides.o
 .ARM.attributes
                0x0000000000000000       0x20 build/sa2/src/game/cutscenes/extra_ending_slides.o
 .data          0x0000000000000000        0x0 build/sa2/src/game/cutscenes/final_ending_fall.o
 .bss           0x0000000000000000        0x0 build/sa2/src/game/cutscenes/final_ending_fall.o
 .ARM.attributes
                0x0000000000000000       0x20 build/sa2/src/game/cutscenes/final_ending_fall.o
 .data          0x0000000000000000        0x0 build/sa2/src/game/cutscenes/final_ending_land.o
 .bss           0x0000000000000000        0x0 build/sa2/src/game/cutscenes/final_ending_land.o
 .ARM.attributes
                0x0000000000000000       0x20 build/sa2/src/game/cutscenes/final_ending_land.o
 .data          0x0000000000000000        0x0 build/sa2/src/game/cutscenes/missing_emeralds.o
 .bss           0x0000000000000000        0x0 build/sa2/src/game/cutscenes/missing_emeralds.o
 .ARM.attributes
                0x0000000000000000       0x20 build/sa2/src/game/cutscenes/missing_emeralds.o
 .data          0x0000000000000000        0x0 build/sa2/asm/m4a0.o
 .bss           0x0000000000000000        0x0 build/sa2/asm/m4a0.o
 .ARM.attributes
                0x0000000000000000       0x20 build/sa2/asm/m4a0.o
 .data          0x0000000000000000        0x0 build/sa2/src/lib/agb_flash_512k.o
 .bss           0x0000000000000000        0x0 build/sa2/src/lib/agb_flash_512k.o
 .ARM.attributes
                0x0000000000000000       0x20 build/sa2/src/lib/agb_flash_512k.o
 .data          0x0000000000000000        0x0 build/sa2/src/lib/agb_flash_le_512k.o
 .bss           0x0000000000000000        0x0 build/sa2/src/lib/agb_flash_le_512k.o
 .ARM.attributes
                0x0000000000000000       0x20 build/sa2/src/lib/agb_flash_le_512k.o
 .data          0x0000000000000000        0x0 build/sa2/src/lib/agb_flash_mx_512k.o
 .bss           0x0000000000000000        0x0 build/sa2/src/lib/agb_flash_mx_512k.o
 .ARM.attributes
                0x0000000000000000       0x20 build/sa2/src/lib/agb_flash_mx_512k.o
 .data          0x0000000000000000        0x0 build/sa2/asm/libagbsyscall.o
 .bss           0x0000000000000000        0x0 build/sa2/asm/libagbsyscall.o
 .ARM.attributes
                0x0000000000000000       0x20 build/sa2/asm/libagbsyscall.o
 .text          0x0000000000000000        0x0 build/sa2/src/trig.o
 .data          0x0000000000000000        0x0 build/sa2/src/trig.o
 .bss           0x0000000000000000        0x0 build/sa2/src/trig.o
 .ARM.attributes
                0x0000000000000000       0x20 build/sa2/src/trig.o
 .text          0x0000000000000000        0x0 build/sa2/data/multiboot_chao_garden.o
 .data          0x0000000000000000        0x0 build/sa2/data/multiboot_chao_garden.o
 .bss           0x0000000000000000        0x0 build/sa2/data/multiboot_chao_garden.o
 .ARM.attributes
                0x0000000000000000       0x20 build/sa2/data/multiboot_chao_garden.o
 .text          0x0000000000000000        0x0 build/sa2/src/game/interactables_0/platform.o
 .data          0x0000000000000000        0x0 build/sa2/src/game/interactables_0/platform.o
 .bss           0x0000000000000000        0x0 build/sa2/src/game/interactables_0/platform.o
 .ARM.attributes
                0x0000000000000000       0x20 build/sa2/src/game/interactables_0/platform.o
 .text          0x0000000000000000        0x0 build/sa2/src/game/stage.o
 .data          0x0000000000000000        0x0 build/sa2/src/game/stage.o
 .bss           0x0000000000000000        0x0 build/sa2/src/game/stage.o
 .ARM.attributes
                0x0000000000000000       0x20 build/sa2/src/game/stage.o
 .text          0x0000000000000000        0x0 build/sa2/data/true_area_53_data.o
 .data          0x0000000000000000        0x0 build/sa2/data/true_area_53_data.o
 .bss           0x0000000000000000        0x0 build/sa2/data/true_area_53_data.o
 .ARM.attributes
                0x0000000000000000       0x20 build/sa2/data/true_area_53_data.o
 .text          0x0000000000000000        0x0 build/sa2/src/game/special_stage/data.o
 .data          0x0000000000000000        0x0 build/sa2/src/game/special_stage/data.o
 .bss           0x0000000000000000        0x0 build/sa2/src/game/special_stage/data.o
 .ARM.attributes
                0x0000000000000000       0x20 build/sa2/src/game/special_stage/data.o
 .text          0x0000000000000000        0x0 build/sa2/src/game/special_stage/tables.o
 .data          0x0000000000000000        0x0 build/sa2/src/game/special_stage/tables.o
 .bss           0x0000000000000000        0x0 build/sa2/src/game/special_stage/tables.o
 .ARM.attributes
                0x0000000000000000       0x20 build/sa2/src/game/special_stage/tables.o
 .text          0x0000000000000000        0x0 build/sa2/data/handlers_ia_pipe_horn_data.o
 .data          0x0000000000000000        0x0 build/sa2/data/handlers_ia_pipe_horn_data.o
 .bss           0x0000000000000000        0x0 build/sa2/data/handlers_ia_pipe_horn_data.o
 .ARM.attributes
                0x0000000000000000       0x20 build/sa2/data/handlers_ia_pipe_horn_data.o
 .text          0x0000000000000000        0x0 build/sa2/data/data5.o
 .data          0x0000000000000000        0x0 build/sa2/data/data5.o
 .bss           0x0000000000000000        0x0 build/sa2/data/data5.o
 .ARM.attributes
                0x0000000000000000       0x20 build/sa2/data/data5.o
 .text          0x0000000000000000        0x0 build/sa2/data/sprite_data.o
 .data          0x0000000000000000        0x0 build/sa2/data/sprite_data.o
 .bss           0x0000000000000000        0x0 build/sa2/data/sprite_data.o
 .ARM.attributes
                0x0000000000000000       0x20 build/sa2/data/sprite_data.o
 .text          0x0000000000000000        0x0 build/sa2/data/map_data.o
 .data          0x0000000000000000        0x0 build/sa2/data/map_data.o
 .bss           0x0000000000000000        0x0 build/sa2/data/map_data.o
 .ARM.attributes
                0x0000000000000000       0x20 build/sa2/data/map_data.o
 .text          0x0000000000000000        0x0 build/sa2/src/lib/m4a_tables.o
 .data          0x0000000000000000        0x0 build/sa2/src/lib/m4a_tables.o
 .bss           0x0000000000000000        0x0 build/sa2/src/lib/m4a_tables.o
 .ARM.attributes
                0x0000000000000000       0x20 build/sa2/src/lib/m4a_tables.o
 .text          0x0000000000000000        0x0 build/sa2/sound/songs/midi/mus_intro.o
 .data          0x0000000000000000        0x0 build/sa2/sound/songs/midi/mus_intro.o
 .bss           0x0000000000000000        0x0 build/sa2/sound/songs/midi/mus_intro.o
 .ARM.attributes
                0x0000000000000000       0x20 build/sa2/sound/songs/midi/mus_intro.o
 .text          0x0000000000000000        0x0 build/sa2/sound/songs/midi/mus_title_fanfare.o
 .data          0x0000000000000000        0x0 build/sa2/sound/songs/midi/mus_title_fanfare.o
 .bss           0x0000000000000000        0x0 build/sa2/sound/songs/midi/mus_title_fanfare.o
 .ARM.attributes
                0x0000000000000000       0x20 build/sa2/sound/songs/midi/mus_title_fanfare.o
 .text          0x0000000000000000        0x0 build/sa2/sound/songs/midi/mus_character_selection.o
 .data          0x0000000000000000        0x0 build/sa2/sound/songs/midi/mus_character_selection.o
 .bss           0x0000000000000000        0x0 build/sa2/sound/songs/midi/mus_character_selection.o
 .ARM.attributes
                0x0000000000000000       0x20 build/sa2/sound/songs/midi/mus_character_selection.o
 .text          0x0000000000000000        0x0 build/sa2/sound/songs/midi/mus_ta_course_selection.o
 .data          0x0000000000000000        0x0 build/sa2/sound/songs/midi/mus_ta_course_selection.o
 .bss           0x0000000000000000        0x0 build/sa2/sound/songs/midi/mus_ta_course_selection.o
 .ARM.attributes
                0x0000000000000000       0x20 build/sa2/sound/songs/midi/mus_ta_course_selection.o
 .text          0x0000000000000000        0x0 build/sa2/sound/songs/midi/mus_course_selection_2.o
 .data          0x0000000000000000        0x0 build/sa2/sound/songs/midi/mus_course_selection_2.o
 .bss           0x0000000000000000        0x0 build/sa2/sound/songs/midi/mus_course_selection_2.o
 .ARM.attributes
                0x0000000000000000       0x20 build/sa2/sound/songs/midi/mus_course_selection_2.o
 .text          0x0000000000000000        0x0 build/sa2/sound/songs/midi/mus_course_selection_3.o
 .data          0x0000000000000000        0x0 build/sa2/sound/songs/midi/mus_course_selection_3.o
 .bss           0x0000000000000000        0x0 build/sa2/sound/songs/midi/mus_course_selection_3.o
 .ARM.attributes
                0x0000000000000000       0x20 build/sa2/sound/songs/midi/mus_course_selection_3.o
 .text          0x0000000000000000        0x0 build/sa2/sound/songs/midi/mus_time_attack_menu.o
 .data          0x0000000000000000        0x0 build/sa2/sound/songs/midi/mus_time_attack_menu.o
 .bss           0x0000000000000000        0x0 build/sa2/sound/songs/midi/mus_time_attack_menu.o
 .ARM.attributes
                0x0000000000000000       0x20 build/sa2/sound/songs/midi/mus_time_attack_menu.o
 .text          0x0000000000000000        0x0 build/sa2/sound/songs/midi/mus_options.o
 .data          0x0000000000000000        0x0 build/sa2/sound/songs/midi/mus_options.o
 .bss           0x0000000000000000        0x0 build/sa2/sound/songs/midi/mus_options.o
 .ARM.attributes
                0x0000000000000000       0x20 build/sa2/sound/songs/midi/mus_options.o
 .text          0x0000000000000000        0x0 build/sa2/sound/songs/midi/mus_leaf_forest__act_1.o
 .data          0x0000000000000000        0x0 build/sa2/sound/songs/midi/mus_leaf_forest__act_1.o
 .bss           0x0000000000000000        0x0 build/sa2/sound/songs/midi/mus_leaf_forest__act_1.o
 .ARM.attributes
                0x0000000000000000       0x20 build/sa2/sound/songs/midi/mus_leaf_forest__act_1.o
 .text          0x0000000000000000        0x0 build/sa2/sound/songs/midi/mus_leaf_forest__act_2.o
 .data          0x0000000000000000        0x0 build/sa2/sound/songs/midi/mus_leaf_forest__act_2.o
 .bss           0x0000000000000000        0x0 build/sa2/sound/songs/midi/mus_leaf_forest__act_2.o
 .ARM.attributes
                0x0000000000000000       0x20 build/sa2/sound/songs/midi/mus_leaf_forest__act_2.o
 .text          0x0000000000000000        0x0 build/sa2/sound/songs/midi/mus_hot_crater__act_1.o
 .data          0x0000000000000000        0x0 build/sa2/sound/songs/midi/mus_hot_crater__act_1.o
 .bss           0x0000000000000000        0x0 build/sa2/sound/songs/midi/mus_hot_crater__act_1.o
 .ARM.attributes
                0x0000000000000000       0x20 build/sa2/sound/songs/midi/mus_hot_crater__act_1.o
 .text          0x0000000000000000        0x0 build/sa2/sound/songs/midi/mus_hot_crater__act_2.o
 .data          0x0000000000000000        0x0 build/sa2/sound/songs/midi/mus_hot_crater__act_2.o
 .bss           0x0000000000000000        0x0 build/sa2/sound/songs/midi/mus_hot_crater__act_2.o
 .ARM.attributes
                0x0000000000000000       0x20 build/sa2/sound/songs/midi/mus_hot_crater__act_2.o
 .text          0x0000000000000000        0x0 build/sa2/sound/songs/midi/mus_music_plant__act_1.o
 .data          0x0000000000000000        0x0 build/sa2/sound/songs/midi/mus_music_plant__act_1.o
 .bss           0x0000000000000000        0x0 build/sa2/sound/songs/midi/mus_music_plant__act_1.o
 .ARM.attributes
                0x0000000000000000       0x20 build/sa2/sound/songs/midi/mus_music_plant__act_1.o
 .text          0x0000000000000000        0x0 build/sa2/sound/songs/midi/mus_music_plant__act_2.o
 .data          0x0000000000000000        0x0 build/sa2/sound/songs/midi/mus_music_plant__act_2.o
 .bss           0x0000000000000000        0x0 build/sa2/sound/songs/midi/mus_music_plant__act_2.o
 .ARM.attributes
                0x0000000000000000       0x20 build/sa2/sound/songs/midi/mus_music_plant__act_2.o
 .text          0x0000000000000000        0x0 build/sa2/sound/songs/midi/mus_ice_paradise__act_1.o
 .data          0x0000000000000000        0x0 build/sa2/sound/songs/midi/mus_ice_paradise__act_1.o
 .bss           0x0000000000000000        0x0 build/sa2/sound/songs/midi/mus_ice_paradise__act_1.o
 .ARM.attributes
                0x0000000000000000       0x20 build/sa2/sound/songs/midi/mus_ice_paradise__act_1.o
 .text          0x0000000000000000        0x0 build/sa2/sound/songs/midi/mus_ice_paradise__act_2.o
 .data          0x0000000000000000        0x0 build/sa2/sound/songs/midi/mus_ice_paradise__act_2.o
 .bss           0x0000000000000000        0x0 build/sa2/sound/songs/midi/mus_ice_paradise__act_2.o
 .ARM.attributes
                0x0000000000000000       0x20 build/sa2/sound/songs/midi/mus_ice_paradise__act_2.o
 .text          0x0000000000000000        0x0 build/sa2/sound/songs/midi/mus_sky_canyon__act_1.o
 .data          0x0000000000000000        0x0 build/sa2/sound/songs/midi/mus_sky_canyon__act_1.o
 .bss           0x0000000000000000        0x0 build/sa2/sound/songs/midi/mus_sky_canyon__act_1.o
 .ARM.attributes
                0x0000000000000000       0x20 build/sa2/sound/songs/midi/mus_sky_canyon__act_1.o
 .text          0x0000000000000000        0x0 build/sa2/sound/songs/midi/mus_sky_canyon__act_2.o
 .data          0x0000000000000000        0x0 build/sa2/sound/songs/midi/mus_sky_canyon__act_2.o
 .bss           0x0000000000000000        0x0 build/sa2/sound/songs/midi/mus_sky_canyon__act_2.o
 .ARM.attributes
                0x0000000000000000       0x20 build/sa2/sound/songs/midi/mus_sky_canyon__act_2.o
 .text          0x0000000000000000        0x0 build/sa2/sound/songs/midi/mus_techno_base__act_1.o
 .data          0x0000000000000000        0x0 build/sa2/sound/songs/midi/mus_techno_base__act_1.o
 .bss           0x0000000000000000        0x0 build/sa2/sound/songs/midi/mus_techno_base__act_1.o
 .ARM.attributes
                0x0000000000000000       0x20 build/sa2/sound/songs/midi/mus_techno_base__act_1.o
 .text          0x0000000000000000        0x0 build/sa2/sound/songs/midi/mus_techno_base__act_2.o
 .data          0x0000000000000000        0x0 build/sa2/sound/songs/midi/mus_techno_base__act_2.o
 .bss           0x0000000000000000        0x0 build/sa2/sound/songs/midi/mus_techno_base__act_2.o
 .ARM.attributes
                0x0000000000000000       0x20 build/sa2/sound/songs/midi/mus_techno_base__act_2.o
 .text          0x0000000000000000        0x0 build/sa2/sound/songs/midi/mus_egg_utopia__act_1.o
 .data          0x0000000000000000        0x0 build/sa2/sound/songs/midi/mus_egg_utopia__act_1.o
 .bss           0x0000000000000000        0x0 build/sa2/sound/songs/midi/mus_egg_utopia__act_1.o
 .ARM.attributes
                0x0000000000000000       0x20 build/sa2/sound/songs/midi/mus_egg_utopia__act_1.o
 .text          0x0000000000000000        0x0 build/sa2/sound/songs/midi/mus_egg_utopia__act_2.o
 .data          0x0000000000000000        0x0 build/sa2/sound/songs/midi/mus_egg_utopia__act_2.o
 .bss           0x0000000000000000        0x0 build/sa2/sound/songs/midi/mus_egg_utopia__act_2.o
 .ARM.attributes
                0x0000000000000000       0x20 build/sa2/sound/songs/midi/mus_egg_utopia__act_2.o
 .text          0x0000000000000000        0x0 build/sa2/sound/songs/midi/mus_xx__final_zone.o
 .data          0x0000000000000000        0x0 build/sa2/sound/songs/midi/mus_xx__final_zone.o
 .bss           0x0000000000000000        0x0 build/sa2/sound/songs/midi/mus_xx__final_zone.o
 .ARM.attributes
                0x0000000000000000       0x20 build/sa2/sound/songs/midi/mus_xx__final_zone.o
 .text          0x0000000000000000        0x0 build/sa2/sound/songs/midi/mus_true_area_53.o
 .data          0x0000000000000000        0x0 build/sa2/sound/songs/midi/mus_true_area_53.o
 .bss           0x0000000000000000        0x0 build/sa2/sound/songs/midi/mus_true_area_53.o
 .ARM.attributes
                0x0000000000000000       0x20 build/sa2/sound/songs/midi/mus_true_area_53.o
 .text          0x0000000000000000        0x0 build/sa2/sound/songs/midi/mus_invincibility.o
 .data          0x0000000000000000        0x0 build/sa2/sound/songs/midi/mus_invincibility.o
 .bss           0x0000000000000000        0x0 build/sa2/sound/songs/midi/mus_invincibility.o
 .ARM.attributes
                0x0000000000000000       0x20 build/sa2/sound/songs/midi/mus_invincibility.o
 .text          0x0000000000000000        0x0 build/sa2/sound/songs/midi/mus_drowning.o
 .data          0x0000000000000000        0x0 build/sa2/sound/songs/midi/mus_drowning.o
 .bss           0x0000000000000000        0x0 build/sa2/sound/songs/midi/mus_drowning.o
 .ARM.attributes
                0x0000000000000000       0x20 build/sa2/sound/songs/midi/mus_drowning.o
 .text          0x0000000000000000        0x0 build/sa2/sound/songs/midi/mus_boss.o
 .data          0x0000000000000000        0x0 build/sa2/sound/songs/midi/mus_boss.o
 .bss           0x0000000000000000        0x0 build/sa2/sound/songs/midi/mus_boss.o
 .ARM.attributes
                0x0000000000000000       0x20 build/sa2/sound/songs/midi/mus_boss.o
 .text          0x0000000000000000        0x0 build/sa2/sound/songs/midi/mus_boss_pinch.o
 .data          0x0000000000000000        0x0 build/sa2/sound/songs/midi/mus_boss_pinch.o
 .bss           0x0000000000000000        0x0 build/sa2/sound/songs/midi/mus_boss_pinch.o
 .ARM.attributes
                0x0000000000000000       0x20 build/sa2/sound/songs/midi/mus_boss_pinch.o
 .text          0x0000000000000000        0x0 build/sa2/sound/songs/midi/mus_boss_knuckles.o
 .data          0x0000000000000000        0x0 build/sa2/sound/songs/midi/mus_boss_knuckles.o
 .bss           0x0000000000000000        0x0 build/sa2/sound/songs/midi/mus_boss_knuckles.o
 .ARM.attributes
                0x0000000000000000       0x20 build/sa2/sound/songs/midi/mus_boss_knuckles.o
 .text          0x0000000000000000        0x0 build/sa2/sound/songs/midi/mus_7_boss.o
 .data          0x0000000000000000        0x0 build/sa2/sound/songs/midi/mus_7_boss.o
 .bss           0x0000000000000000        0x0 build/sa2/sound/songs/midi/mus_7_boss.o
 .ARM.attributes
                0x0000000000000000       0x20 build/sa2/sound/songs/midi/mus_7_boss.o
 .text          0x0000000000000000        0x0 build/sa2/sound/songs/midi/mus_7_boss_pinch.o
 .data          0x0000000000000000        0x0 build/sa2/sound/songs/midi/mus_7_boss_pinch.o
 .bss           0x0000000000000000        0x0 build/sa2/sound/songs/midi/mus_7_boss_pinch.o
 .ARM.attributes
                0x0000000000000000       0x20 build/sa2/sound/songs/midi/mus_7_boss_pinch.o
 .text          0x0000000000000000        0x0 build/sa2/sound/songs/midi/mus_final_boss.o
 .data          0x0000000000000000        0x0 build/sa2/sound/songs/midi/mus_final_boss.o
 .bss           0x0000000000000000        0x0 build/sa2/sound/songs/midi/mus_final_boss.o
 .ARM.attributes
                0x0000000000000000       0x20 build/sa2/sound/songs/midi/mus_final_boss.o
 .text          0x0000000000000000        0x0 build/sa2/sound/songs/midi/mus_final_boss_pinch.o
 .data          0x0000000000000000        0x0 build/sa2/sound/songs/midi/mus_final_boss_pinch.o
 .bss           0x0000000000000000        0x0 build/sa2/sound/songs/midi/mus_final_boss_pinch.o
 .ARM.attributes
                0x0000000000000000       0x20 build/sa2/sound/songs/midi/mus_final_boss_pinch.o
 .text          0x0000000000000000        0x0 build/sa2/sound/songs/midi/mus_game_over.o
 .data          0x0000000000000000        0x0 build/sa2/sound/songs/midi/mus_game_over.o
 .bss           0x0000000000000000        0x0 build/sa2/sound/songs/midi/mus_game_over.o
 .ARM.attributes
                0x0000000000000000       0x20 build/sa2/sound/songs/midi/mus_game_over.o
 .text          0x0000000000000000        0x0 build/sa2/sound/songs/midi/mus_final_ending.o
 .data          0x0000000000000000        0x0 build/sa2/sound/songs/midi/mus_final_ending.o
 .bss           0x0000000000000000        0x0 build/sa2/sound/songs/midi/mus_final_ending.o
 .ARM.attributes
                0x0000000000000000       0x20 build/sa2/sound/songs/midi/mus_final_ending.o
 .text          0x0000000000000000        0x0 build/sa2/sound/songs/midi/mus_extra_ending.o
 .data          0x0000000000000000        0x0 build/sa2/sound/songs/midi/mus_extra_ending.o
 .bss           0x0000000000000000        0x0 build/sa2/sound/songs/midi/mus_extra_ending.o
 .ARM.attributes
                0x0000000000000000       0x20 build/sa2/sound/songs/midi/mus_extra_ending.o
 .text          0x0000000000000000        0x0 build/sa2/sound/songs/midi/mus_staff_credits.o
 .data          0x0000000000000000        0x0 build/sa2/sound/songs/midi/mus_staff_credits.o
 .bss           0x0000000000000000        0x0 build/sa2/sound/songs/midi/mus_staff_credits.o
 .ARM.attributes
                0x0000000000000000       0x20 build/sa2/sound/songs/midi/mus_staff_credits.o
 .text          0x0000000000000000        0x0 build/sa2/sound/songs/midi/mus_demo_1.o
 .data          0x0000000000000000        0x0 build/sa2/sound/songs/midi/mus_demo_1.o
 .bss           0x0000000000000000        0x0 build/sa2/sound/songs/midi/mus_demo_1.o
 .ARM.attributes
                0x0000000000000000       0x20 build/sa2/sound/songs/midi/mus_demo_1.o
 .text          0x0000000000000000        0x0 build/sa2/sound/songs/midi/mus_demo_2.o
 .data          0x0000000000000000        0x0 build/sa2/sound/songs/midi/mus_demo_2.o
 .bss           0x0000000000000000        0x0 build/sa2/sound/songs/midi/mus_demo_2.o
 .ARM.attributes
                0x0000000000000000       0x20 build/sa2/sound/songs/midi/mus_demo_2.o
 .text          0x0000000000000000        0x0 build/sa2/sound/songs/midi/mus_extra_demo_1.o
 .data          0x0000000000000000        0x0 build/sa2/sound/songs/midi/mus_extra_demo_1.o
 .bss           0x0000000000000000        0x0 build/sa2/sound/songs/midi/mus_extra_demo_1.o
 .ARM.attributes
                0x0000000000000000       0x20 build/sa2/sound/songs/midi/mus_extra_demo_1.o
 .text          0x0000000000000000        0x0 build/sa2/sound/songs/midi/mus_extra_demo_2.o
 .data          0x0000000000000000        0x0 build/sa2/sound/songs/midi/mus_extra_demo_2.o
 .bss           0x0000000000000000        0x0 build/sa2/sound/songs/midi/mus_extra_demo_2.o
 .ARM.attributes
                0x0000000000000000       0x20 build/sa2/sound/songs/midi/mus_extra_demo_2.o
 .text          0x0000000000000000        0x0 build/sa2/sound/songs/midi/mus_special_stage_intro.o
 .data          0x0000000000000000        0x0 build/sa2/sound/songs/midi/mus_special_stage_intro.o
 .bss           0x0000000000000000        0x0 build/sa2/sound/songs/midi/mus_special_stage_intro.o
 .ARM.attributes
                0x0000000000000000       0x20 build/sa2/sound/songs/midi/mus_special_stage_intro.o
 .text          0x0000000000000000        0x0 build/sa2/sound/songs/midi/mus_special_stage.o
 .data          0x0000000000000000        0x0 build/sa2/sound/songs/midi/mus_special_stage.o
 .bss           0x0000000000000000        0x0 build/sa2/sound/songs/midi/mus_special_stage.o
 .ARM.attributes
                0x0000000000000000       0x20 build/sa2/sound/songs/midi/mus_special_stage.o
 .text          0x0000000000000000        0x0 build/sa2/sound/songs/midi/mus_special_stage_pinch.o
 .data          0x0000000000000000        0x0 build/sa2/sound/songs/midi/mus_special_stage_pinch.o
 .bss           0x0000000000000000        0x0 build/sa2/sound/songs/midi/mus_special_stage_pinch.o
 .ARM.attributes
                0x0000000000000000       0x20 build/sa2/sound/songs/midi/mus_special_stage_pinch.o
 .text          0x0000000000000000        0x0 build/sa2/sound/songs/midi/mus_achievement.o
 .data          0x0000000000000000        0x0 build/sa2/sound/songs/midi/mus_achievement.o
 .bss           0x0000000000000000        0x0 build/sa2/sound/songs/midi/mus_achievement.o
 .ARM.attributes
                0x0000000000000000       0x20 build/sa2/sound/songs/midi/mus_achievement.o
 .text          0x0000000000000000        0x0 build/sa2/sound/songs/midi/mus_special_stage_clear.o
 .data          0x0000000000000000        0x0 build/sa2/sound/songs/midi/mus_special_stage_clear.o
 .bss           0x0000000000000000        0x0 build/sa2/sound/songs/midi/mus_special_stage_clear.o
 .ARM.attributes
                0x0000000000000000       0x20 build/sa2/sound/songs/midi/mus_special_stage_clear.o
 .text          0x0000000000000000        0x0 build/sa2/sound/songs/midi/mus_special_stage_result.o
 .data          0x0000000000000000        0x0 build/sa2/sound/songs/midi/mus_special_stage_result.o
 .bss           0x0000000000000000        0x0 build/sa2/sound/songs/midi/mus_special_stage_result.o
 .ARM.attributes
                0x0000000000000000       0x20 build/sa2/sound/songs/midi/mus_special_stage_result.o
 .text          0x0000000000000000        0x0 build/sa2/sound/songs/midi/mus_chaos_emerald.o
 .data          0x0000000000000000        0x0 build/sa2/sound/songs/midi/mus_chaos_emerald.o
 .bss           0x0000000000000000        0x0 build/sa2/sound/songs/midi/mus_chaos_emerald.o
 .ARM.attributes
                0x0000000000000000       0x20 build/sa2/sound/songs/midi/mus_chaos_emerald.o
 .text          0x0000000000000000        0x0 build/sa2/sound/songs/midi/mus_special_stage_result_lose.o
 .data          0x0000000000000000        0x0 build/sa2/sound/songs/midi/mus_special_stage_result_lose.o
 .bss           0x0000000000000000        0x0 build/sa2/sound/songs/midi/mus_special_stage_result_lose.o
 .ARM.attributes
                0x0000000000000000       0x20 build/sa2/sound/songs/midi/mus_special_stage_result_lose.o
 .text          0x0000000000000000        0x0 build/sa2/sound/songs/midi/mus_vs_2.o
 .data          0x0000000000000000        0x0 build/sa2/sound/songs/midi/mus_vs_2.o
 .bss           0x0000000000000000        0x0 build/sa2/sound/songs/midi/mus_vs_2.o
 .ARM.attributes
                0x0000000000000000       0x20 build/sa2/sound/songs/midi/mus_vs_2.o
 .text          0x0000000000000000        0x0 build/sa2/sound/songs/midi/mus_vs_3.o
 .data          0x0000000000000000        0x0 build/sa2/sound/songs/midi/mus_vs_3.o
 .bss           0x0000000000000000        0x0 build/sa2/sound/songs/midi/mus_vs_3.o
 .ARM.attributes
                0x0000000000000000       0x20 build/sa2/sound/songs/midi/mus_vs_3.o
 .text          0x0000000000000000        0x0 build/sa2/sound/songs/midi/mus_connection_pending.o
 .data          0x0000000000000000        0x0 build/sa2/sound/songs/midi/mus_connection_pending.o
 .bss           0x0000000000000000        0x0 build/sa2/sound/songs/midi/mus_connection_pending.o
 .ARM.attributes
                0x0000000000000000       0x20 build/sa2/sound/songs/midi/mus_connection_pending.o
 .text          0x0000000000000000        0x0 build/sa2/sound/songs/midi/mus_vs_lobby.o
 .data          0x0000000000000000        0x0 build/sa2/sound/songs/midi/mus_vs_lobby.o
 .bss           0x0000000000000000        0x0 build/sa2/sound/songs/midi/mus_vs_lobby.o
 .ARM.attributes
                0x0000000000000000       0x20 build/sa2/sound/songs/midi/mus_vs_lobby.o
 .text          0x0000000000000000        0x0 build/sa2/sound/songs/midi/mus_vs_select_pak_mode.o
 .data          0x0000000000000000        0x0 build/sa2/sound/songs/midi/mus_vs_select_pak_mode.o
 .bss           0x0000000000000000        0x0 build/sa2/sound/songs/midi/mus_vs_select_pak_mode.o
 .ARM.attributes
                0x0000000000000000       0x20 build/sa2/sound/songs/midi/mus_vs_select_pak_mode.o
 .text          0x0000000000000000        0x0 build/sa2/sound/songs/midi/se_ring.o
 .data          0x0000000000000000        0x0 build/sa2/sound/songs/midi/se_ring.o
 .bss           0x0000000000000000        0x0 build/sa2/sound/songs/midi/se_ring.o
 .ARM.attributes
                0x0000000000000000       0x20 build/sa2/sound/songs/midi/se_ring.o
 .text          0x0000000000000000        0x0 build/sa2/sound/songs/midi/se_shift.o
 .data          0x0000000000000000        0x0 build/sa2/sound/songs/midi/se_shift.o
 .bss           0x0000000000000000        0x0 build/sa2/sound/songs/midi/se_shift.o
 .ARM.attributes
                0x0000000000000000       0x20 build/sa2/sound/songs/midi/se_shift.o
 .text          0x0000000000000000        0x0 build/sa2/sound/songs/midi/se_success.o
 .data          0x0000000000000000        0x0 build/sa2/sound/songs/midi/se_success.o
 .bss           0x0000000000000000        0x0 build/sa2/sound/songs/midi/se_success.o
 .ARM.attributes
                0x0000000000000000       0x20 build/sa2/sound/songs/midi/se_success.o
 .text          0x0000000000000000        0x0 build/sa2/sound/songs/midi/se_abort.o
 .data          0x0000000000000000        0x0 build/sa2/sound/songs/midi/se_abort.o
 .bss           0x0000000000000000        0x0 build/sa2/sound/songs/midi/se_abort.o
 .ARM.attributes
                0x0000000000000000       0x20 build/sa2/sound/songs/midi/se_abort.o
 .text          0x0000000000000000        0x0 build/sa2/sound/songs/midi/se_select.o
 .data          0x0000000000000000        0x0 build/sa2/sound/songs/midi/se_select.o
 .bss           0x0000000000000000        0x0 build/sa2/sound/songs/midi/se_select.o
 .ARM.attributes
                0x0000000000000000       0x20 build/sa2/sound/songs/midi/se_select.o
 .text          0x0000000000000000        0x0 build/sa2/sound/songs/midi/se_return.o
 .data          0x0000000000000000        0x0 build/sa2/sound/songs/midi/se_return.o
 .bss           0x0000000000000000        0x0 build/sa2/sound/songs/midi/se_return.o
 .ARM.attributes
                0x0000000000000000       0x20 build/sa2/sound/songs/midi/se_return.o
 .text          0x0000000000000000        0x0 build/sa2/sound/songs/midi/se_menu_cursor_move.o
 .data          0x0000000000000000        0x0 build/sa2/sound/songs/midi/se_menu_cursor_move.o
 .bss           0x0000000000000000        0x0 build/sa2/sound/songs/midi/se_menu_cursor_move.o
 .ARM.attributes
                0x0000000000000000       0x20 build/sa2/sound/songs/midi/se_menu_cursor_move.o
 .text          0x0000000000000000        0x0 build/sa2/sound/songs/midi/se_spin_attack.o
 .data          0x0000000000000000        0x0 build/sa2/sound/songs/midi/se_spin_attack.o
 .bss           0x0000000000000000        0x0 build/sa2/sound/songs/midi/se_spin_attack.o
 .ARM.attributes
                0x0000000000000000       0x20 build/sa2/sound/songs/midi/se_spin_attack.o
 .text          0x0000000000000000        0x0 build/sa2/sound/songs/midi/se_spin_dash_release.o
 .data          0x0000000000000000        0x0 build/sa2/sound/songs/midi/se_spin_dash_release.o
 .bss           0x0000000000000000        0x0 build/sa2/sound/songs/midi/se_spin_dash_release.o
 .ARM.attributes
                0x0000000000000000       0x20 build/sa2/sound/songs/midi/se_spin_dash_release.o
 .text          0x0000000000000000        0x0 build/sa2/sound/songs/midi/se_sonic_skid_attack.o
 .data          0x0000000000000000        0x0 build/sa2/sound/songs/midi/se_sonic_skid_attack.o
 .bss           0x0000000000000000        0x0 build/sa2/sound/songs/midi/se_sonic_skid_attack.o
 .ARM.attributes
                0x0000000000000000       0x20 build/sa2/sound/songs/midi/se_sonic_skid_attack.o
 .text          0x0000000000000000        0x0 build/sa2/sound/songs/midi/se_sonic_midair_somersault.o
 .data          0x0000000000000000        0x0 build/sa2/sound/songs/midi/se_sonic_midair_somersault.o
 .bss           0x0000000000000000        0x0 build/sa2/sound/songs/midi/se_sonic_midair_somersault.o
 .ARM.attributes
                0x0000000000000000       0x20 build/sa2/sound/songs/midi/se_sonic_midair_somersault.o
 .text          0x0000000000000000        0x0 build/sa2/sound/songs/midi/se_sonic_insta_shield.o
 .data          0x0000000000000000        0x0 build/sa2/sound/songs/midi/se_sonic_insta_shield.o
 .bss           0x0000000000000000        0x0 build/sa2/sound/songs/midi/se_sonic_insta_shield.o
 .ARM.attributes
                0x0000000000000000       0x20 build/sa2/sound/songs/midi/se_sonic_insta_shield.o
 .text          0x0000000000000000        0x0 build/sa2/sound/songs/midi/se_114.o
 .data          0x0000000000000000        0x0 build/sa2/sound/songs/midi/se_114.o
 .bss           0x0000000000000000        0x0 build/sa2/sound/songs/midi/se_114.o
 .ARM.attributes
                0x0000000000000000       0x20 build/sa2/sound/songs/midi/se_114.o
 .text          0x0000000000000000        0x0 build/sa2/sound/songs/midi/se_brake.o
 .data          0x0000000000000000        0x0 build/sa2/sound/songs/midi/se_brake.o
 .bss           0x0000000000000000        0x0 build/sa2/sound/songs/midi/se_brake.o
 .ARM.attributes
                0x0000000000000000       0x20 build/sa2/sound/songs/midi/se_brake.o
 .text          0x0000000000000000        0x0 build/sa2/sound/songs/midi/se_jump.o
 .data          0x0000000000000000        0x0 build/sa2/sound/songs/midi/se_jump.o
 .bss           0x0000000000000000        0x0 build/sa2/sound/songs/midi/se_jump.o
 .ARM.attributes
                0x0000000000000000       0x20 build/sa2/sound/songs/midi/se_jump.o
 .text          0x0000000000000000        0x0 build/sa2/sound/songs/midi/se_ring_copy.o
 .data          0x0000000000000000        0x0 build/sa2/sound/songs/midi/se_ring_copy.o
 .bss           0x0000000000000000        0x0 build/sa2/sound/songs/midi/se_ring_copy.o
 .ARM.attributes
                0x0000000000000000       0x20 build/sa2/sound/songs/midi/se_ring_copy.o
 .text          0x0000000000000000        0x0 build/sa2/sound/songs/midi/se_rings_lost.o
 .data          0x0000000000000000        0x0 build/sa2/sound/songs/midi/se_rings_lost.o
 .bss           0x0000000000000000        0x0 build/sa2/sound/songs/midi/se_rings_lost.o
 .ARM.attributes
                0x0000000000000000       0x20 build/sa2/sound/songs/midi/se_rings_lost.o
 .text          0x0000000000000000        0x0 build/sa2/sound/songs/midi/se_life_lost.o
 .data          0x0000000000000000        0x0 build/sa2/sound/songs/midi/se_life_lost.o
 .bss           0x0000000000000000        0x0 build/sa2/sound/songs/midi/se_life_lost.o
 .ARM.attributes
                0x0000000000000000       0x20 build/sa2/sound/songs/midi/se_life_lost.o
 .text          0x0000000000000000        0x0 build/sa2/sound/songs/midi/se_tails_propeller_flying.o
 .data          0x0000000000000000        0x0 build/sa2/sound/songs/midi/se_tails_propeller_flying.o
 .bss           0x0000000000000000        0x0 build/sa2/sound/songs/midi/se_tails_propeller_flying.o
 .ARM.attributes
                0x0000000000000000       0x20 build/sa2/sound/songs/midi/se_tails_propeller_flying.o
 .text          0x0000000000000000        0x0 build/sa2/sound/songs/midi/se_tails_tail_swipe.o
 .data          0x0000000000000000        0x0 build/sa2/sound/songs/midi/se_tails_tail_swipe.o
 .bss           0x0000000000000000        0x0 build/sa2/sound/songs/midi/se_tails_tail_swipe.o
 .ARM.attributes
                0x0000000000000000       0x20 build/sa2/sound/songs/midi/se_tails_tail_swipe.o
 .text          0x0000000000000000        0x0 build/sa2/sound/songs/midi/se_125.o
 .data          0x0000000000000000        0x0 build/sa2/sound/songs/midi/se_125.o
 .bss           0x0000000000000000        0x0 build/sa2/sound/songs/midi/se_125.o
 .ARM.attributes
                0x0000000000000000       0x20 build/sa2/sound/songs/midi/se_125.o
 .text          0x0000000000000000        0x0 build/sa2/sound/songs/midi/se_126.o
 .data          0x0000000000000000        0x0 build/sa2/sound/songs/midi/se_126.o
 .bss           0x0000000000000000        0x0 build/sa2/sound/songs/midi/se_126.o
 .ARM.attributes
                0x0000000000000000       0x20 build/sa2/sound/songs/midi/se_126.o
 .text          0x0000000000000000        0x0 build/sa2/sound/songs/midi/se_127.o
 .data          0x0000000000000000        0x0 build/sa2/sound/songs/midi/se_127.o
 .bss           0x0000000000000000        0x0 build/sa2/sound/songs/midi/se_127.o
 .ARM.attributes
                0x0000000000000000       0x20 build/sa2/sound/songs/midi/se_127.o
 .text          0x0000000000000000        0x0 build/sa2/sound/songs/midi/se_amy_ground_hammer.o
 .data          0x0000000000000000        0x0 build/sa2/sound/songs/midi/se_amy_ground_hammer.o
 .bss           0x0000000000000000        0x0 build/sa2/sound/songs/midi/se_amy_ground_hammer.o
 .ARM.attributes
                0x0000000000000000       0x20 build/sa2/sound/songs/midi/se_amy_ground_hammer.o
 .text          0x0000000000000000        0x0 build/sa2/sound/songs/midi/se_amy_super_hammer_attack.o
 .data          0x0000000000000000        0x0 build/sa2/sound/songs/midi/se_amy_super_hammer_attack.o
 .bss           0x0000000000000000        0x0 build/sa2/sound/songs/midi/se_amy_super_hammer_attack.o
 .ARM.attributes
                0x0000000000000000       0x20 build/sa2/sound/songs/midi/se_amy_super_hammer_attack.o
 .text          0x0000000000000000        0x0 build/sa2/sound/songs/midi/se_amy_hammer_swirl.o
 .data          0x0000000000000000        0x0 build/sa2/sound/songs/midi/se_amy_hammer_swirl.o
 .bss           0x0000000000000000        0x0 build/sa2/sound/songs/midi/se_amy_hammer_swirl.o
 .ARM.attributes
                0x0000000000000000       0x20 build/sa2/sound/songs/midi/se_amy_hammer_swirl.o
 .text          0x0000000000000000        0x0 build/sa2/sound/songs/midi/se_sa1_goal_post.o
 .data          0x0000000000000000        0x0 build/sa2/sound/songs/midi/se_sa1_goal_post.o
 .bss           0x0000000000000000        0x0 build/sa2/sound/songs/midi/se_sa1_goal_post.o
 .ARM.attributes
                0x0000000000000000       0x20 build/sa2/sound/songs/midi/se_sa1_goal_post.o
 .text          0x0000000000000000        0x0 build/sa2/sound/songs/midi/se_item_box.o
 .data          0x0000000000000000        0x0 build/sa2/sound/songs/midi/se_item_box.o
 .bss           0x0000000000000000        0x0 build/sa2/sound/songs/midi/se_item_box.o
 .ARM.attributes
                0x0000000000000000       0x20 build/sa2/sound/songs/midi/se_item_box.o
 .text          0x0000000000000000        0x0 build/sa2/sound/songs/midi/se_timer.o
 .data          0x0000000000000000        0x0 build/sa2/sound/songs/midi/se_timer.o
 .bss           0x0000000000000000        0x0 build/sa2/sound/songs/midi/se_timer.o
 .ARM.attributes
                0x0000000000000000       0x20 build/sa2/sound/songs/midi/se_timer.o
 .text          0x0000000000000000        0x0 build/sa2/sound/songs/midi/se_stage_result_counter.o
 .data          0x0000000000000000        0x0 build/sa2/sound/songs/midi/se_stage_result_counter.o
 .bss           0x0000000000000000        0x0 build/sa2/sound/songs/midi/se_stage_result_counter.o
 .ARM.attributes
                0x0000000000000000       0x20 build/sa2/sound/songs/midi/se_stage_result_counter.o
 .text          0x0000000000000000        0x0 build/sa2/sound/songs/midi/se_stage_result_counter_done.o
 .data          0x0000000000000000        0x0 build/sa2/sound/songs/midi/se_stage_result_counter_done.o
 .bss           0x0000000000000000        0x0 build/sa2/sound/songs/midi/se_stage_result_counter_done.o
 .ARM.attributes
                0x0000000000000000       0x20 build/sa2/sound/songs/midi/se_stage_result_counter_done.o
 .text          0x0000000000000000        0x0 build/sa2/sound/songs/midi/se_pause_screen.o
 .data          0x0000000000000000        0x0 build/sa2/sound/songs/midi/se_pause_screen.o
 .bss           0x0000000000000000        0x0 build/sa2/sound/songs/midi/se_pause_screen.o
 .ARM.attributes
                0x0000000000000000       0x20 build/sa2/sound/songs/midi/se_pause_screen.o
 .text          0x0000000000000000        0x0 build/sa2/sound/songs/midi/se_143.o
 .data          0x0000000000000000        0x0 build/sa2/sound/songs/midi/se_143.o
 .bss           0x0000000000000000        0x0 build/sa2/sound/songs/midi/se_143.o
 .ARM.attributes
                0x0000000000000000       0x20 build/sa2/sound/songs/midi/se_143.o
 .text          0x0000000000000000        0x0 build/sa2/sound/songs/midi/se_144.o
 .data          0x0000000000000000        0x0 build/sa2/sound/songs/midi/se_144.o
 .bss           0x0000000000000000        0x0 build/sa2/sound/songs/midi/se_144.o
 .ARM.attributes
                0x0000000000000000       0x20 build/sa2/sound/songs/midi/se_144.o
 .text          0x0000000000000000        0x0 build/sa2/sound/songs/midi/se_145.o
 .data          0x0000000000000000        0x0 build/sa2/sound/songs/midi/se_145.o
 .bss           0x0000000000000000        0x0 build/sa2/sound/songs/midi/se_145.o
 .ARM.attributes
                0x0000000000000000       0x20 build/sa2/sound/songs/midi/se_145.o
 .text          0x0000000000000000        0x0 build/sa2/sound/songs/midi/se_146.o
 .data          0x0000000000000000        0x0 build/sa2/sound/songs/midi/se_146.o
 .bss           0x0000000000000000        0x0 build/sa2/sound/songs/midi/se_146.o
 .ARM.attributes
                0x0000000000000000       0x20 build/sa2/sound/songs/midi/se_146.o
 .text          0x0000000000000000        0x0 build/sa2/sound/songs/midi/se_spin.o
 .data          0x0000000000000000        0x0 build/sa2/sound/songs/midi/se_spin.o
 .bss           0x0000000000000000        0x0 build/sa2/sound/songs/midi/se_spin.o
 .ARM.attributes
                0x0000000000000000       0x20 build/sa2/sound/songs/midi/se_spin.o
 .text          0x0000000000000000        0x0 build/sa2/sound/songs/midi/se_148.o
 .data          0x0000000000000000        0x0 build/sa2/sound/songs/midi/se_148.o
 .bss           0x0000000000000000        0x0 build/sa2/sound/songs/midi/se_148.o
 .ARM.attributes
                0x0000000000000000       0x20 build/sa2/sound/songs/midi/se_148.o
 .text          0x0000000000000000        0x0 build/sa2/sound/songs/midi/se_149.o
 .data          0x0000000000000000        0x0 build/sa2/sound/songs/midi/se_149.o
 .bss           0x0000000000000000        0x0 build/sa2/sound/songs/midi/se_149.o
 .ARM.attributes
                0x0000000000000000       0x20 build/sa2/sound/songs/midi/se_149.o
 .text          0x0000000000000000        0x0 build/sa2/sound/songs/midi/se_item_box_2.o
 .data          0x0000000000000000        0x0 build/sa2/sound/songs/midi/se_item_box_2.o
 .bss           0x0000000000000000        0x0 build/sa2/sound/songs/midi/se_item_box_2.o
 .ARM.attributes
                0x0000000000000000       0x20 build/sa2/sound/songs/midi/se_item_box_2.o
 .text          0x0000000000000000        0x0 build/sa2/sound/songs/midi/se_151.o
 .data          0x0000000000000000        0x0 build/sa2/sound/songs/midi/se_151.o
 .bss           0x0000000000000000        0x0 build/sa2/sound/songs/midi/se_151.o
 .ARM.attributes
                0x0000000000000000       0x20 build/sa2/sound/songs/midi/se_151.o
 .text          0x0000000000000000        0x0 build/sa2/sound/songs/midi/se_checkpoint.o
 .data          0x0000000000000000        0x0 build/sa2/sound/songs/midi/se_checkpoint.o
 .bss           0x0000000000000000        0x0 build/sa2/sound/songs/midi/se_checkpoint.o
 .ARM.attributes
                0x0000000000000000       0x20 build/sa2/sound/songs/midi/se_checkpoint.o
 .text          0x0000000000000000        0x0 build/sa2/sound/songs/midi/se_spring.o
 .data          0x0000000000000000        0x0 build/sa2/sound/songs/midi/se_spring.o
 .bss           0x0000000000000000        0x0 build/sa2/sound/songs/midi/se_spring.o
 .ARM.attributes
                0x0000000000000000       0x20 build/sa2/sound/songs/midi/se_spring.o
 .text          0x0000000000000000        0x0 build/sa2/sound/songs/midi/se_spikes.o
 .data          0x0000000000000000        0x0 build/sa2/sound/songs/midi/se_spikes.o
 .bss           0x0000000000000000        0x0 build/sa2/sound/songs/midi/se_spikes.o
 .ARM.attributes
                0x0000000000000000       0x20 build/sa2/sound/songs/midi/se_spikes.o
 .text          0x0000000000000000        0x0 build/sa2/sound/songs/midi/se_speed_booster.o
 .data          0x0000000000000000        0x0 build/sa2/sound/songs/midi/se_speed_booster.o
 .bss           0x0000000000000000        0x0 build/sa2/sound/songs/midi/se_speed_booster.o
 .ARM.attributes
                0x0000000000000000       0x20 build/sa2/sound/songs/midi/se_speed_booster.o
 .text          0x0000000000000000        0x0 build/sa2/sound/songs/midi/se_156.o
 .data          0x0000000000000000        0x0 build/sa2/sound/songs/midi/se_156.o
 .bss           0x0000000000000000        0x0 build/sa2/sound/songs/midi/se_156.o
 .ARM.attributes
                0x0000000000000000       0x20 build/sa2/sound/songs/midi/se_156.o
 .text          0x0000000000000000        0x0 build/sa2/sound/songs/midi/se_157.o
 .data          0x0000000000000000        0x0 build/sa2/sound/songs/midi/se_157.o
 .bss           0x0000000000000000        0x0 build/sa2/sound/songs/midi/se_157.o
 .ARM.attributes
                0x0000000000000000       0x20 build/sa2/sound/songs/midi/se_157.o
 .text          0x0000000000000000        0x0 build/sa2/sound/songs/midi/se_air_bubble.o
 .data          0x0000000000000000        0x0 build/sa2/sound/songs/midi/se_air_bubble.o
 .bss           0x0000000000000000        0x0 build/sa2/sound/songs/midi/se_air_bubble.o
 .ARM.attributes
                0x0000000000000000       0x20 build/sa2/sound/songs/midi/se_air_bubble.o
 .text          0x0000000000000000        0x0 build/sa2/sound/songs/midi/se_alarm_1.o
 .data          0x0000000000000000        0x0 build/sa2/sound/songs/midi/se_alarm_1.o
 .bss           0x0000000000000000        0x0 build/sa2/sound/songs/midi/se_alarm_1.o
 .ARM.attributes
                0x0000000000000000       0x20 build/sa2/sound/songs/midi/se_alarm_1.o
 .text          0x0000000000000000        0x0 build/sa2/sound/songs/midi/se_alarm_2.o
 .data          0x0000000000000000        0x0 build/sa2/sound/songs/midi/se_alarm_2.o
 .bss           0x0000000000000000        0x0 build/sa2/sound/songs/midi/se_alarm_2.o
 .ARM.attributes
                0x0000000000000000       0x20 build/sa2/sound/songs/midi/se_alarm_2.o
 .text          0x0000000000000000        0x0 build/sa2/sound/songs/midi/se_alarm_3.o
 .data          0x0000000000000000        0x0 build/sa2/sound/songs/midi/se_alarm_3.o
 .bss           0x0000000000000000        0x0 build/sa2/sound/songs/midi/se_alarm_3.o
 .ARM.attributes
                0x0000000000000000       0x20 build/sa2/sound/songs/midi/se_alarm_3.o
 .text          0x0000000000000000        0x0 build/sa2/sound/songs/midi/se_alarm_4.o
 .data          0x0000000000000000        0x0 build/sa2/sound/songs/midi/se_alarm_4.o
 .bss           0x0000000000000000        0x0 build/sa2/sound/songs/midi/se_alarm_4.o
 .ARM.attributes
                0x0000000000000000       0x20 build/sa2/sound/songs/midi/se_alarm_4.o
 .text          0x0000000000000000        0x0 build/sa2/sound/songs/midi/se_alarm_5.o
 .data          0x0000000000000000        0x0 build/sa2/sound/songs/midi/se_alarm_5.o
 .bss           0x0000000000000000        0x0 build/sa2/sound/songs/midi/se_alarm_5.o
 .ARM.attributes
                0x0000000000000000       0x20 build/sa2/sound/songs/midi/se_alarm_5.o
 .text          0x0000000000000000        0x0 build/sa2/sound/songs/midi/se_alarm_6.o
 .data          0x0000000000000000        0x0 build/sa2/sound/songs/midi/se_alarm_6.o
 .bss           0x0000000000000000        0x0 build/sa2/sound/songs/midi/se_alarm_6.o
 .ARM.attributes
                0x0000000000000000       0x20 build/sa2/sound/songs/midi/se_alarm_6.o
 .text          0x0000000000000000        0x0 build/sa2/sound/songs/midi/se_alarm_7.o
 .data          0x0000000000000000        0x0 build/sa2/sound/songs/midi/se_alarm_7.o
 .bss           0x0000000000000000        0x0 build/sa2/sound/songs/midi/se_alarm_7.o
 .ARM.attributes
                0x0000000000000000       0x20 build/sa2/sound/songs/midi/se_alarm_7.o
 .text          0x0000000000000000        0x0 build/sa2/sound/songs/midi/se_alarm_8.o
 .data          0x0000000000000000        0x0 build/sa2/sound/songs/midi/se_alarm_8.o
 .bss           0x0000000000000000        0x0 build/sa2/sound/songs/midi/se_alarm_8.o
 .ARM.attributes
                0x0000000000000000       0x20 build/sa2/sound/songs/midi/se_alarm_8.o
 .text          0x0000000000000000        0x0 build/sa2/sound/songs/midi/se_alarm_9.o
 .data          0x0000000000000000        0x0 build/sa2/sound/songs/midi/se_alarm_9.o
 .bss           0x0000000000000000        0x0 build/sa2/sound/songs/midi/se_alarm_9.o
 .ARM.attributes
                0x0000000000000000       0x20 build/sa2/sound/songs/midi/se_alarm_9.o
 .text          0x0000000000000000        0x0 build/sa2/sound/songs/midi/se_alarm_10.o
 .data          0x0000000000000000        0x0 build/sa2/sound/songs/midi/se_alarm_10.o
 .bss           0x0000000000000000        0x0 build/sa2/sound/songs/midi/se_alarm_10.o
 .ARM.attributes
                0x0000000000000000       0x20 build/sa2/sound/songs/midi/se_alarm_10.o
 .text          0x0000000000000000        0x0 build/sa2/sound/songs/midi/se_springy_pole.o
 .data          0x0000000000000000        0x0 build/sa2/sound/songs/midi/se_springy_pole.o
 .bss           0x0000000000000000        0x0 build/sa2/sound/songs/midi/se_springy_pole.o
 .ARM.attributes
                0x0000000000000000       0x20 build/sa2/sound/songs/midi/se_springy_pole.o
 .text          0x0000000000000000        0x0 build/sa2/sound/songs/midi/se_springy_spring.o
 .data          0x0000000000000000        0x0 build/sa2/sound/songs/midi/se_springy_spring.o
 .bss           0x0000000000000000        0x0 build/sa2/sound/songs/midi/se_springy_spring.o
 .ARM.attributes
                0x0000000000000000       0x20 build/sa2/sound/songs/midi/se_springy_spring.o
 .text          0x0000000000000000        0x0 build/sa2/sound/songs/midi/voice__announcer__sonic_advance_2.o
 .data          0x0000000000000000        0x0 build/sa2/sound/songs/midi/voice__announcer__sonic_advance_2.o
 .bss           0x0000000000000000        0x0 build/sa2/sound/songs/midi/voice__announcer__sonic_advance_2.o
 .ARM.attributes
                0x0000000000000000       0x20 build/sa2/sound/songs/midi/voice__announcer__sonic_advance_2.o
 .text          0x0000000000000000        0x0 build/sa2/sound/songs/midi/voice__announcer__sonic.o
 .data          0x0000000000000000        0x0 build/sa2/sound/songs/midi/voice__announcer__sonic.o
 .bss           0x0000000000000000        0x0 build/sa2/sound/songs/midi/voice__announcer__sonic.o
 .ARM.attributes
                0x0000000000000000       0x20 build/sa2/sound/songs/midi/voice__announcer__sonic.o
 .text          0x0000000000000000        0x0 build/sa2/sound/songs/midi/voice__announcer__tails.o
 .data          0x0000000000000000        0x0 build/sa2/sound/songs/midi/voice__announcer__tails.o
 .bss           0x0000000000000000        0x0 build/sa2/sound/songs/midi/voice__announcer__tails.o
 .ARM.attributes
                0x0000000000000000       0x20 build/sa2/sound/songs/midi/voice__announcer__tails.o
 .text          0x0000000000000000        0x0 build/sa2/sound/songs/midi/voice__announcer__knuckles.o
 .data          0x0000000000000000        0x0 build/sa2/sound/songs/midi/voice__announcer__knuckles.o
 .bss           0x0000000000000000        0x0 build/sa2/sound/songs/midi/voice__announcer__knuckles.o
 .ARM.attributes
                0x0000000000000000       0x20 build/sa2/sound/songs/midi/voice__announcer__knuckles.o
 .text          0x0000000000000000        0x0 build/sa2/sound/songs/midi/voice__announcer__amy.o
 .data          0x0000000000000000        0x0 build/sa2/sound/songs/midi/voice__announcer__amy.o
 .bss           0x0000000000000000        0x0 build/sa2/sound/songs/midi/voice__announcer__amy.o
 .ARM.attributes
                0x0000000000000000       0x20 build/sa2/sound/songs/midi/voice__announcer__amy.o
 .text          0x0000000000000000        0x0 build/sa2/sound/songs/midi/voice__announcer__cream.o
 .data          0x0000000000000000        0x0 build/sa2/sound/songs/midi/voice__announcer__cream.o
 .bss           0x0000000000000000        0x0 build/sa2/sound/songs/midi/voice__announcer__cream.o
 .ARM.attributes
                0x0000000000000000       0x20 build/sa2/sound/songs/midi/voice__announcer__cream.o
 .text          0x0000000000000000        0x0 build/sa2/sound/songs/midi/voice__announcer__3.o
 .data          0x0000000000000000        0x0 build/sa2/sound/songs/midi/voice__announcer__3.o
 .bss           0x0000000000000000        0x0 build/sa2/sound/songs/midi/voice__announcer__3.o
 .ARM.attributes
                0x0000000000000000       0x20 build/sa2/sound/songs/midi/voice__announcer__3.o
 .text          0x0000000000000000        0x0 build/sa2/sound/songs/midi/voice__announcer__2.o
 .data          0x0000000000000000        0x0 build/sa2/sound/songs/midi/voice__announcer__2.o
 .bss           0x0000000000000000        0x0 build/sa2/sound/songs/midi/voice__announcer__2.o
 .ARM.attributes
                0x0000000000000000       0x20 build/sa2/sound/songs/midi/voice__announcer__2.o
 .text          0x0000000000000000        0x0 build/sa2/sound/songs/midi/voice__announcer__1.o
 .data          0x0000000000000000        0x0 build/sa2/sound/songs/midi/voice__announcer__1.o
 .bss           0x0000000000000000        0x0 build/sa2/sound/songs/midi/voice__announcer__1.o
 .ARM.attributes
                0x0000000000000000       0x20 build/sa2/sound/songs/midi/voice__announcer__1.o
 .text          0x0000000000000000        0x0 build/sa2/sound/songs/midi/voice__announcer__go.o
 .data          0x0000000000000000        0x0 build/sa2/sound/songs/midi/voice__announcer__go.o
 .bss           0x0000000000000000        0x0 build/sa2/sound/songs/midi/voice__announcer__go.o
 .ARM.attributes
                0x0000000000000000       0x20 build/sa2/sound/songs/midi/voice__announcer__go.o
 .text          0x0000000000000000        0x0 build/sa2/sound/songs/midi/voice__announcer__congratulations.o
 .data          0x0000000000000000        0x0 build/sa2/sound/songs/midi/voice__announcer__congratulations.o
 .bss           0x0000000000000000        0x0 build/sa2/sound/songs/midi/voice__announcer__congratulations.o
 .ARM.attributes
                0x0000000000000000       0x20 build/sa2/sound/songs/midi/voice__announcer__congratulations.o
 .text          0x0000000000000000        0x0 build/sa2/sound/songs/midi/se_map_move.o
 .data          0x0000000000000000        0x0 build/sa2/sound/songs/midi/se_map_move.o
 .bss           0x0000000000000000        0x0 build/sa2/sound/songs/midi/se_map_move.o
 .ARM.attributes
                0x0000000000000000       0x20 build/sa2/sound/songs/midi/se_map_move.o
 .text          0x0000000000000000        0x0 build/sa2/sound/songs/midi/se_map_214.o
 .data          0x0000000000000000        0x0 build/sa2/sound/songs/midi/se_map_214.o
 .bss           0x0000000000000000        0x0 build/sa2/sound/songs/midi/se_map_214.o
 .ARM.attributes
                0x0000000000000000       0x20 build/sa2/sound/songs/midi/se_map_214.o
 .text          0x0000000000000000        0x0 build/sa2/sound/songs/midi/se_map_move_end.o
 .data          0x0000000000000000        0x0 build/sa2/sound/songs/midi/se_map_move_end.o
 .bss           0x0000000000000000        0x0 build/sa2/sound/songs/midi/se_map_move_end.o
 .ARM.attributes
                0x0000000000000000       0x20 build/sa2/sound/songs/midi/se_map_move_end.o
 .text          0x0000000000000000        0x0 build/sa2/sound/songs/midi/se_216.o
 .data          0x0000000000000000        0x0 build/sa2/sound/songs/midi/se_216.o
 .bss           0x0000000000000000        0x0 build/sa2/sound/songs/midi/se_216.o
 .ARM.attributes
                0x0000000000000000       0x20 build/sa2/sound/songs/midi/se_216.o
 .text          0x0000000000000000        0x0 build/sa2/sound/songs/midi/se_217.o
 .data          0x0000000000000000        0x0 build/sa2/sound/songs/midi/se_217.o
 .bss           0x0000000000000000        0x0 build/sa2/sound/songs/midi/se_217.o
 .ARM.attributes
                0x0000000000000000       0x20 build/sa2/sound/songs/midi/se_217.o
 .text          0x0000000000000000        0x0 build/sa2/sound/songs/midi/se_218.o
 .data          0x0000000000000000        0x0 build/sa2/sound/songs/midi/se_218.o
 .bss           0x0000000000000000        0x0 build/sa2/sound/songs/midi/se_218.o
 .ARM.attributes
                0x0000000000000000       0x20 build/sa2/sound/songs/midi/se_218.o
 .text          0x0000000000000000        0x0 build/sa2/sound/songs/midi/se_219.o
 .data          0x0000000000000000        0x0 build/sa2/sound/songs/midi/se_219.o
 .bss           0x0000000000000000        0x0 build/sa2/sound/songs/midi/se_219.o
 .ARM.attributes
                0x0000000000000000       0x20 build/sa2/sound/songs/midi/se_219.o
 .text          0x0000000000000000        0x0 build/sa2/sound/songs/midi/se_delete_game_data.o
 .data          0x0000000000000000        0x0 build/sa2/sound/songs/midi/se_delete_game_data.o
 .bss           0x0000000000000000        0x0 build/sa2/sound/songs/midi/se_delete_game_data.o
 .ARM.attributes
                0x0000000000000000       0x20 build/sa2/sound/songs/midi/se_delete_game_data.o
 .text          0x0000000000000000        0x0 build/sa2/sound/songs/midi/se_221.o
 .data          0x0000000000000000        0x0 build/sa2/sound/songs/midi/se_221.o
 .bss           0x0000000000000000        0x0 build/sa2/sound/songs/midi/se_221.o
 .ARM.attributes
                0x0000000000000000       0x20 build/sa2/sound/songs/midi/se_221.o
 .text          0x0000000000000000        0x0 build/sa2/sound/songs/midi/se_222.o
 .data          0x0000000000000000        0x0 build/sa2/sound/songs/midi/se_222.o
 .bss           0x0000000000000000        0x0 build/sa2/sound/songs/midi/se_222.o
 .ARM.attributes
                0x0000000000000000       0x20 build/sa2/sound/songs/midi/se_222.o
 .text          0x0000000000000000        0x0 build/sa2/sound/songs/midi/se_223.o
 .data          0x0000000000000000        0x0 build/sa2/sound/songs/midi/se_223.o
 .bss           0x0000000000000000        0x0 build/sa2/sound/songs/midi/se_223.o
 .ARM.attributes
                0x0000000000000000       0x20 build/sa2/sound/songs/midi/se_223.o
 .text          0x0000000000000000        0x0 build/sa2/sound/songs/midi/se_224.o
 .data          0x0000000000000000        0x0 build/sa2/sound/songs/midi/se_224.o
 .bss           0x0000000000000000        0x0 build/sa2/sound/songs/midi/se_224.o
 .ARM.attributes
                0x0000000000000000       0x20 build/sa2/sound/songs/midi/se_224.o
 .text          0x0000000000000000        0x0 build/sa2/sound/songs/midi/se_225.o
 .data          0x0000000000000000        0x0 build/sa2/sound/songs/midi/se_225.o
 .bss           0x0000000000000000        0x0 build/sa2/sound/songs/midi/se_225.o
 .ARM.attributes
                0x0000000000000000       0x20 build/sa2/sound/songs/midi/se_225.o
 .text          0x0000000000000000        0x0 build/sa2/sound/songs/midi/se_226.o
 .data          0x0000000000000000        0x0 build/sa2/sound/songs/midi/se_226.o
 .bss           0x0000000000000000        0x0 build/sa2/sound/songs/midi/se_226.o
 .ARM.attributes
                0x0000000000000000       0x20 build/sa2/sound/songs/midi/se_226.o
 .text          0x0000000000000000        0x0 build/sa2/sound/songs/midi/se_cream_flying.o
 .data          0x0000000000000000        0x0 build/sa2/sound/songs/midi/se_cream_flying.o
 .bss           0x0000000000000000        0x0 build/sa2/sound/songs/midi/se_cream_flying.o
 .ARM.attributes
                0x0000000000000000       0x20 build/sa2/sound/songs/midi/se_cream_flying.o
 .text          0x0000000000000000        0x0 build/sa2/sound/songs/midi/se_228.o
 .data          0x0000000000000000        0x0 build/sa2/sound/songs/midi/se_228.o
 .bss           0x0000000000000000        0x0 build/sa2/sound/songs/midi/se_228.o
 .ARM.attributes
                0x0000000000000000       0x20 build/sa2/sound/songs/midi/se_228.o
 .text          0x0000000000000000        0x0 build/sa2/sound/songs/midi/se_cream_cheese_attack.o
 .data          0x0000000000000000        0x0 build/sa2/sound/songs/midi/se_cream_cheese_attack.o
 .bss           0x0000000000000000        0x0 build/sa2/sound/songs/midi/se_cream_cheese_attack.o
 .ARM.attributes
                0x0000000000000000       0x20 build/sa2/sound/songs/midi/se_cream_cheese_attack.o
 .text          0x0000000000000000        0x0 build/sa2/sound/songs/midi/se_230.o
 .data          0x0000000000000000        0x0 build/sa2/sound/songs/midi/se_230.o
 .bss           0x0000000000000000        0x0 build/sa2/sound/songs/midi/se_230.o
 .ARM.attributes
                0x0000000000000000       0x20 build/sa2/sound/songs/midi/se_230.o
 .text          0x0000000000000000        0x0 build/sa2/sound/songs/midi/se_231.o
 .data          0x0000000000000000        0x0 build/sa2/sound/songs/midi/se_231.o
 .bss           0x0000000000000000        0x0 build/sa2/sound/songs/midi/se_231.o
 .ARM.attributes
                0x0000000000000000       0x20 build/sa2/sound/songs/midi/se_231.o
 .text          0x0000000000000000        0x0 build/sa2/sound/songs/midi/se_long_brake.o
 .data          0x0000000000000000        0x0 build/sa2/sound/songs/midi/se_long_brake.o
 .bss           0x0000000000000000        0x0 build/sa2/sound/songs/midi/se_long_brake.o
 .ARM.attributes
                0x0000000000000000       0x20 build/sa2/sound/songs/midi/se_long_brake.o
 .text          0x0000000000000000        0x0 build/sa2/sound/songs/midi/se_234.o
 .data          0x0000000000000000        0x0 build/sa2/sound/songs/midi/se_234.o
 .bss           0x0000000000000000        0x0 build/sa2/sound/songs/midi/se_234.o
 .ARM.attributes
                0x0000000000000000       0x20 build/sa2/sound/songs/midi/se_234.o
 .text          0x0000000000000000        0x0 build/sa2/sound/songs/midi/se_235.o
 .data          0x0000000000000000        0x0 build/sa2/sound/songs/midi/se_235.o
 .bss           0x0000000000000000        0x0 build/sa2/sound/songs/midi/se_235.o
 .ARM.attributes
                0x0000000000000000       0x20 build/sa2/sound/songs/midi/se_235.o
 .text          0x0000000000000000        0x0 build/sa2/sound/songs/midi/se_236.o
 .data          0x0000000000000000        0x0 build/sa2/sound/songs/midi/se_236.o
 .bss           0x0000000000000000        0x0 build/sa2/sound/songs/midi/se_236.o
 .ARM.attributes
                0x0000000000000000       0x20 build/sa2/sound/songs/midi/se_236.o
 .text          0x0000000000000000        0x0 build/sa2/sound/songs/midi/se_237.o
 .data          0x0000000000000000        0x0 build/sa2/sound/songs/midi/se_237.o
 .bss           0x0000000000000000        0x0 build/sa2/sound/songs/midi/se_237.o
 .ARM.attributes
                0x0000000000000000       0x20 build/sa2/sound/songs/midi/se_237.o
 .text          0x0000000000000000        0x0 build/sa2/sound/songs/midi/se_238.o
 .data          0x0000000000000000        0x0 build/sa2/sound/songs/midi/se_238.o
 .bss           0x0000000000000000        0x0 build/sa2/sound/songs/midi/se_238.o
 .ARM.attributes
                0x0000000000000000       0x20 build/sa2/sound/songs/midi/se_238.o
 .text          0x0000000000000000        0x0 build/sa2/sound/songs/midi/se_239.o
 .data          0x0000000000000000        0x0 build/sa2/sound/songs/midi/se_239.o
 .bss           0x0000000000000000        0x0 build/sa2/sound/songs/midi/se_239.o
 .ARM.attributes
                0x0000000000000000       0x20 build/sa2/sound/songs/midi/se_239.o
 .text          0x0000000000000000        0x0 build/sa2/sound/songs/midi/se_241.o
 .data          0x0000000000000000        0x0 build/sa2/sound/songs/midi/se_241.o
 .bss           0x0000000000000000        0x0 build/sa2/sound/songs/midi/se_241.o
 .ARM.attributes
                0x0000000000000000       0x20 build/sa2/sound/songs/midi/se_241.o
 .text          0x0000000000000000        0x0 build/sa2/sound/songs/midi/se_242.o
 .data          0x0000000000000000        0x0 build/sa2/sound/songs/midi/se_242.o
 .bss           0x0000000000000000        0x0 build/sa2/sound/songs/midi/se_242.o
 .ARM.attributes
                0x0000000000000000       0x20 build/sa2/sound/songs/midi/se_242.o
 .text          0x0000000000000000        0x0 build/sa2/sound/songs/midi/se_243.o
 .data          0x0000000000000000        0x0 build/sa2/sound/songs/midi/se_243.o
 .bss           0x0000000000000000        0x0 build/sa2/sound/songs/midi/se_243.o
 .ARM.attributes
                0x0000000000000000       0x20 build/sa2/sound/songs/midi/se_243.o
 .text          0x0000000000000000        0x0 build/sa2/sound/songs/midi/se_244.o
 .data          0x0000000000000000        0x0 build/sa2/sound/songs/midi/se_244.o
 .bss           0x0000000000000000        0x0 build/sa2/sound/songs/midi/se_244.o
 .ARM.attributes
                0x0000000000000000       0x20 build/sa2/sound/songs/midi/se_244.o
 .text          0x0000000000000000        0x0 build/sa2/sound/songs/midi/se_245.o
 .data          0x0000000000000000        0x0 build/sa2/sound/songs/midi/se_245.o
 .bss           0x0000000000000000        0x0 build/sa2/sound/songs/midi/se_245.o
 .ARM.attributes
                0x0000000000000000       0x20 build/sa2/sound/songs/midi/se_245.o
 .text          0x0000000000000000        0x0 build/sa2/sound/songs/midi/se_246.o
 .data          0x0000000000000000        0x0 build/sa2/sound/songs/midi/se_246.o
 .bss           0x0000000000000000        0x0 build/sa2/sound/songs/midi/se_246.o
 .ARM.attributes
                0x0000000000000000       0x20 build/sa2/sound/songs/midi/se_246.o
 .text          0x0000000000000000        0x0 build/sa2/sound/songs/midi/se_248.o
 .data          0x0000000000000000        0x0 build/sa2/sound/songs/midi/se_248.o
 .bss           0x0000000000000000        0x0 build/sa2/sound/songs/midi/se_248.o
 .ARM.attributes
                0x0000000000000000       0x20 build/sa2/sound/songs/midi/se_248.o
 .text          0x0000000000000000        0x0 build/sa2/sound/songs/midi/se_249.o
 .data          0x0000000000000000        0x0 build/sa2/sound/songs/midi/se_249.o
 .bss           0x0000000000000000        0x0 build/sa2/sound/songs/midi/se_249.o
 .ARM.attributes
                0x0000000000000000       0x20 build/sa2/sound/songs/midi/se_249.o
 .text          0x0000000000000000        0x0 build/sa2/sound/songs/midi/se_250.o
 .data          0x0000000000000000        0x0 build/sa2/sound/songs/midi/se_250.o
 .bss           0x0000000000000000        0x0 build/sa2/sound/songs/midi/se_250.o
 .ARM.attributes
                0x0000000000000000       0x20 build/sa2/sound/songs/midi/se_250.o
 .text          0x0000000000000000        0x0 build/sa2/sound/songs/midi/se_251.o
 .data          0x0000000000000000        0x0 build/sa2/sound/songs/midi/se_251.o
 .bss           0x0000000000000000        0x0 build/sa2/sound/songs/midi/se_251.o
 .ARM.attributes
                0x0000000000000000       0x20 build/sa2/sound/songs/midi/se_251.o
 .text          0x0000000000000000        0x0 build/sa2/sound/songs/midi/se_252.o
 .data          0x0000000000000000        0x0 build/sa2/sound/songs/midi/se_252.o
 .bss           0x0000000000000000        0x0 build/sa2/sound/songs/midi/se_252.o
 .ARM.attributes
                0x0000000000000000       0x20 build/sa2/sound/songs/midi/se_252.o
 .text          0x0000000000000000        0x0 build/sa2/sound/songs/midi/se_253.o
 .data          0x0000000000000000        0x0 build/sa2/sound/songs/midi/se_253.o
 .bss           0x0000000000000000        0x0 build/sa2/sound/songs/midi/se_253.o
 .ARM.attributes
                0x0000000000000000       0x20 build/sa2/sound/songs/midi/se_253.o
 .text          0x0000000000000000        0x0 build/sa2/sound/songs/midi/se_254.o
 .data          0x0000000000000000        0x0 build/sa2/sound/songs/midi/se_254.o
 .bss           0x0000000000000000        0x0 build/sa2/sound/songs/midi/se_254.o
 .ARM.attributes
                0x0000000000000000       0x20 build/sa2/sound/songs/midi/se_254.o
 .text          0x0000000000000000        0x0 build/sa2/sound/songs/midi/se_255.o
 .data          0x0000000000000000        0x0 build/sa2/sound/songs/midi/se_255.o
 .bss           0x0000000000000000        0x0 build/sa2/sound/songs/midi/se_255.o
 .ARM.attributes
                0x0000000000000000       0x20 build/sa2/sound/songs/midi/se_255.o
 .text          0x0000000000000000        0x0 build/sa2/sound/songs/midi/se_256.o
 .data          0x0000000000000000        0x0 build/sa2/sound/songs/midi/se_256.o
 .bss           0x0000000000000000        0x0 build/sa2/sound/songs/midi/se_256.o
 .ARM.attributes
                0x0000000000000000       0x20 build/sa2/sound/songs/midi/se_256.o
 .text          0x0000000000000000        0x0 build/sa2/sound/songs/midi/se_257.o
 .data          0x0000000000000000        0x0 build/sa2/sound/songs/midi/se_257.o
 .bss           0x0000000000000000        0x0 build/sa2/sound/songs/midi/se_257.o
 .ARM.attributes
                0x0000000000000000       0x20 build/sa2/sound/songs/midi/se_257.o
 .text          0x0000000000000000        0x0 build/sa2/sound/songs/midi/se_258.o
 .data          0x0000000000000000        0x0 build/sa2/sound/songs/midi/se_258.o
 .bss           0x0000000000000000        0x0 build/sa2/sound/songs/midi/se_258.o
 .ARM.attributes
                0x0000000000000000       0x20 build/sa2/sound/songs/midi/se_258.o
 .text          0x0000000000000000        0x0 build/sa2/sound/songs/midi/se_259.o
 .data          0x0000000000000000        0x0 build/sa2/sound/songs/midi/se_259.o
 .bss           0x0000000000000000        0x0 build/sa2/sound/songs/midi/se_259.o
 .ARM.attributes
                0x0000000000000000       0x20 build/sa2/sound/songs/midi/se_259.o
 .text          0x0000000000000000        0x0 build/sa2/sound/songs/midi/se_260.o
 .data          0x0000000000000000        0x0 build/sa2/sound/songs/midi/se_260.o
 .bss           0x0000000000000000        0x0 build/sa2/sound/songs/midi/se_260.o
 .ARM.attributes
                0x0000000000000000       0x20 build/sa2/sound/songs/midi/se_260.o
 .text          0x0000000000000000        0x0 build/sa2/sound/songs/midi/se_261.o
 .data          0x0000000000000000        0x0 build/sa2/sound/songs/midi/se_261.o
 .bss           0x0000000000000000        0x0 build/sa2/sound/songs/midi/se_261.o
 .ARM.attributes
                0x0000000000000000       0x20 build/sa2/sound/songs/midi/se_261.o
 .text          0x0000000000000000        0x0 build/sa2/sound/songs/midi/se_262.o
 .data          0x0000000000000000        0x0 build/sa2/sound/songs/midi/se_262.o
 .bss           0x0000000000000000        0x0 build/sa2/sound/songs/midi/se_262.o
 .ARM.attributes
                0x0000000000000000       0x20 build/sa2/sound/songs/midi/se_262.o
 .text          0x0000000000000000        0x0 build/sa2/sound/songs/midi/se_263.o
 .data          0x0000000000000000        0x0 build/sa2/sound/songs/midi/se_263.o
 .bss           0x0000000000000000        0x0 build/sa2/sound/songs/midi/se_263.o
 .ARM.attributes
                0x0000000000000000       0x20 build/sa2/sound/songs/midi/se_263.o
 .text          0x0000000000000000        0x0 build/sa2/sound/songs/midi/se_264.o
 .data          0x0000000000000000        0x0 build/sa2/sound/songs/midi/se_264.o
 .bss           0x0000000000000000        0x0 build/sa2/sound/songs/midi/se_264.o
 .ARM.attributes
                0x0000000000000000       0x20 build/sa2/sound/songs/midi/se_264.o
 .text          0x0000000000000000        0x0 build/sa2/sound/songs/midi/se_265.o
 .data          0x0000000000000000        0x0 build/sa2/sound/songs/midi/se_265.o
 .bss           0x0000000000000000        0x0 build/sa2/sound/songs/midi/se_265.o
 .ARM.attributes
                0x0000000000000000       0x20 build/sa2/sound/songs/midi/se_265.o
 .text          0x0000000000000000        0x0 build/sa2/sound/songs/midi/se_266.o
 .data          0x0000000000000000        0x0 build/sa2/sound/songs/midi/se_266.o
 .bss           0x0000000000000000        0x0 build/sa2/sound/songs/midi/se_266.o
 .ARM.attributes
                0x0000000000000000       0x20 build/sa2/sound/songs/midi/se_266.o
 .text          0x0000000000000000        0x0 build/sa2/sound/songs/midi/se_267.o
 .data          0x0000000000000000        0x0 build/sa2/sound/songs/midi/se_267.o
 .bss           0x0000000000000000        0x0 build/sa2/sound/songs/midi/se_267.o
 .ARM.attributes
                0x0000000000000000       0x20 build/sa2/sound/songs/midi/se_267.o
 .text          0x0000000000000000        0x0 build/sa2/sound/songs/midi/se_268.o
 .data          0x0000000000000000        0x0 build/sa2/sound/songs/midi/se_268.o
 .bss           0x0000000000000000        0x0 build/sa2/sound/songs/midi/se_268.o
 .ARM.attributes
                0x0000000000000000       0x20 build/sa2/sound/songs/midi/se_268.o
 .text          0x0000000000000000        0x0 build/sa2/sound/songs/midi/se_269.o
 .data          0x0000000000000000        0x0 build/sa2/sound/songs/midi/se_269.o
 .bss           0x0000000000000000        0x0 build/sa2/sound/songs/midi/se_269.o
 .ARM.attributes
                0x0000000000000000       0x20 build/sa2/sound/songs/midi/se_269.o
 .text          0x0000000000000000        0x0 build/sa2/sound/songs/midi/se_suction.o
 .data          0x0000000000000000        0x0 build/sa2/sound/songs/midi/se_suction.o
 .bss           0x0000000000000000        0x0 build/sa2/sound/songs/midi/se_suction.o
 .ARM.attributes
                0x0000000000000000       0x20 build/sa2/sound/songs/midi/se_suction.o
 .text          0x0000000000000000        0x0 build/sa2/sound/songs/midi/se_271.o
 .data          0x0000000000000000        0x0 build/sa2/sound/songs/midi/se_271.o
 .bss           0x0000000000000000        0x0 build/sa2/sound/songs/midi/se_271.o
 .ARM.attributes
                0x0000000000000000       0x20 build/sa2/sound/songs/midi/se_271.o
 .text          0x0000000000000000        0x0 build/sa2/sound/songs/midi/se_272.o
 .data          0x0000000000000000        0x0 build/sa2/sound/songs/midi/se_272.o
 .bss           0x0000000000000000        0x0 build/sa2/sound/songs/midi/se_272.o
 .ARM.attributes
                0x0000000000000000       0x20 build/sa2/sound/songs/midi/se_272.o
 .text          0x0000000000000000        0x0 build/sa2/sound/songs/midi/se_273.o
 .data          0x0000000000000000        0x0 build/sa2/sound/songs/midi/se_273.o
 .bss           0x0000000000000000        0x0 build/sa2/sound/songs/midi/se_273.o
 .ARM.attributes
                0x0000000000000000       0x20 build/sa2/sound/songs/midi/se_273.o
 .text          0x0000000000000000        0x0 build/sa2/sound/songs/midi/se_274.o
 .data          0x0000000000000000        0x0 build/sa2/sound/songs/midi/se_274.o
 .bss           0x0000000000000000        0x0 build/sa2/sound/songs/midi/se_274.o
 .ARM.attributes
                0x0000000000000000       0x20 build/sa2/sound/songs/midi/se_274.o
 .text          0x0000000000000000        0x0 build/sa2/sound/songs/midi/se_275.o
 .data          0x0000000000000000        0x0 build/sa2/sound/songs/midi/se_275.o
 .bss           0x0000000000000000        0x0 build/sa2/sound/songs/midi/se_275.o
 .ARM.attributes
                0x0000000000000000       0x20 build/sa2/sound/songs/midi/se_275.o
 .text          0x0000000000000000        0x0 build/sa2/sound/songs/midi/se_276.o
 .data          0x0000000000000000        0x0 build/sa2/sound/songs/midi/se_276.o
 .bss           0x0000000000000000        0x0 build/sa2/sound/songs/midi/se_276.o
 .ARM.attributes
                0x0000000000000000       0x20 build/sa2/sound/songs/midi/se_276.o
 .text          0x0000000000000000        0x0 build/sa2/sound/songs/midi/se_277.o
 .data          0x0000000000000000        0x0 build/sa2/sound/songs/midi/se_277.o
 .bss           0x0000000000000000        0x0 build/sa2/sound/songs/midi/se_277.o
 .ARM.attributes
                0x0000000000000000       0x20 build/sa2/sound/songs/midi/se_277.o
 .text          0x0000000000000000        0x0 build/sa2/sound/songs/midi/se_278.o
 .data          0x0000000000000000        0x0 build/sa2/sound/songs/midi/se_278.o
 .bss           0x0000000000000000        0x0 build/sa2/sound/songs/midi/se_278.o
 .ARM.attributes
                0x0000000000000000       0x20 build/sa2/sound/songs/midi/se_278.o
 .text          0x0000000000000000        0x0 build/sa2/sound/songs/midi/se_279.o
 .data          0x0000000000000000        0x0 build/sa2/sound/songs/midi/se_279.o
 .bss           0x0000000000000000        0x0 build/sa2/sound/songs/midi/se_279.o
 .ARM.attributes
                0x0000000000000000       0x20 build/sa2/sound/songs/midi/se_279.o
 .text          0x0000000000000000        0x0 build/sa2/sound/songs/midi/se_280.o
 .data          0x0000000000000000        0x0 build/sa2/sound/songs/midi/se_280.o
 .bss           0x0000000000000000        0x0 build/sa2/sound/songs/midi/se_280.o
 .ARM.attributes
                0x0000000000000000       0x20 build/sa2/sound/songs/midi/se_280.o
 .text          0x0000000000000000        0x0 build/sa2/sound/songs/midi/se_281.o
 .data          0x0000000000000000        0x0 build/sa2/sound/songs/midi/se_281.o
 .bss           0x0000000000000000        0x0 build/sa2/sound/songs/midi/se_281.o
 .ARM.attributes
                0x0000000000000000       0x20 build/sa2/sound/songs/midi/se_281.o
 .text          0x0000000000000000        0x0 build/sa2/sound/songs/midi/se_282.o
 .data          0x0000000000000000        0x0 build/sa2/sound/songs/midi/se_282.o
 .bss           0x0000000000000000        0x0 build/sa2/sound/songs/midi/se_282.o
 .ARM.attributes
                0x0000000000000000       0x20 build/sa2/sound/songs/midi/se_282.o
 .text          0x0000000000000000        0x0 build/sa2/sound/songs/midi/se_283.o
 .data          0x0000000000000000        0x0 build/sa2/sound/songs/midi/se_283.o
 .bss           0x0000000000000000        0x0 build/sa2/sound/songs/midi/se_283.o
 .ARM.attributes
                0x0000000000000000       0x20 build/sa2/sound/songs/midi/se_283.o
 .text          0x0000000000000000        0x0 build/sa2/sound/songs/midi/se_284.o
 .data          0x0000000000000000        0x0 build/sa2/sound/songs/midi/se_284.o
 .bss           0x0000000000000000        0x0 build/sa2/sound/songs/midi/se_284.o
 .ARM.attributes
                0x0000000000000000       0x20 build/sa2/sound/songs/midi/se_284.o
 .text          0x0000000000000000        0x0 build/sa2/sound/songs/midi/se_285.o
 .data          0x0000000000000000        0x0 build/sa2/sound/songs/midi/se_285.o
 .bss           0x0000000000000000        0x0 build/sa2/sound/songs/midi/se_285.o
 .ARM.attributes
                0x0000000000000000       0x20 build/sa2/sound/songs/midi/se_285.o
 .text          0x0000000000000000        0x0 build/sa2/sound/songs/midi/se_286.o
 .data          0x0000000000000000        0x0 build/sa2/sound/songs/midi/se_286.o
 .bss           0x0000000000000000        0x0 build/sa2/sound/songs/midi/se_286.o
 .ARM.attributes
                0x0000000000000000       0x20 build/sa2/sound/songs/midi/se_286.o
 .text          0x0000000000000000        0x0 build/sa2/sound/songs/midi/se_287.o
 .data          0x0000000000000000        0x0 build/sa2/sound/songs/midi/se_287.o
 .bss           0x0000000000000000        0x0 build/sa2/sound/songs/midi/se_287.o
 .ARM.attributes
                0x0000000000000000       0x20 build/sa2/sound/songs/midi/se_287.o
 .text          0x0000000000000000        0x0 build/sa2/sound/songs/midi/se_288.o
 .data          0x0000000000000000        0x0 build/sa2/sound/songs/midi/se_288.o
 .bss           0x0000000000000000        0x0 build/sa2/sound/songs/midi/se_288.o
 .ARM.attributes
                0x0000000000000000       0x20 build/sa2/sound/songs/midi/se_288.o
 .text          0x0000000000000000        0x0 build/sa2/sound/songs/midi/se_289.o
 .data          0x0000000000000000        0x0 build/sa2/sound/songs/midi/se_289.o
 .bss           0x0000000000000000        0x0 build/sa2/sound/songs/midi/se_289.o
 .ARM.attributes
                0x0000000000000000       0x20 build/sa2/sound/songs/midi/se_289.o
 .text          0x0000000000000000        0x0 build/sa2/sound/songs/midi/se_290.o
 .data          0x0000000000000000        0x0 build/sa2/sound/songs/midi/se_290.o
 .bss           0x0000000000000000        0x0 build/sa2/sound/songs/midi/se_290.o
 .ARM.attributes
                0x0000000000000000       0x20 build/sa2/sound/songs/midi/se_290.o
 .text          0x0000000000000000        0x0 build/sa2/sound/songs/se_291.o
 .data          0x0000000000000000        0x0 build/sa2/sound/songs/se_291.o
 .bss           0x0000000000000000        0x0 build/sa2/sound/songs/se_291.o
 .ARM.attributes
                0x0000000000000000       0x20 build/sa2/sound/songs/se_291.o
 .text          0x0000000000000000        0x0 build/sa2/sound/songs/midi/se_ice_paradise_slide.o
 .data          0x0000000000000000        0x0 build/sa2/sound/songs/midi/se_ice_paradise_slide.o
 .bss           0x0000000000000000        0x0 build/sa2/sound/songs/midi/se_ice_paradise_slide.o
 .ARM.attributes
                0x0000000000000000       0x20 build/sa2/sound/songs/midi/se_ice_paradise_slide.o
 .text          0x0000000000000000        0x0 build/sa2/sound/songs/midi/se_293.o
 .data          0x0000000000000000        0x0 build/sa2/sound/songs/midi/se_293.o
 .bss           0x0000000000000000        0x0 build/sa2/sound/songs/midi/se_293.o
 .ARM.attributes
                0x0000000000000000       0x20 build/sa2/sound/songs/midi/se_293.o
 .text          0x0000000000000000        0x0 build/sa2/sound/songs/midi/se_techno_base_note_block.o
 .data          0x0000000000000000        0x0 build/sa2/sound/songs/midi/se_techno_base_note_block.o
 .bss           0x0000000000000000        0x0 build/sa2/sound/songs/midi/se_techno_base_note_block.o
 .ARM.attributes
                0x0000000000000000       0x20 build/sa2/sound/songs/midi/se_techno_base_note_block.o
 .text          0x0000000000000000        0x0 build/sa2/sound/songs/midi/se_295.o
 .data          0x0000000000000000        0x0 build/sa2/sound/songs/midi/se_295.o
 .bss           0x0000000000000000        0x0 build/sa2/sound/songs/midi/se_295.o
 .ARM.attributes
                0x0000000000000000       0x20 build/sa2/sound/songs/midi/se_295.o
 .text          0x0000000000000000        0x0 build/sa2/sound/songs/midi/se_296.o
 .data          0x0000000000000000        0x0 build/sa2/sound/songs/midi/se_296.o
 .bss           0x0000000000000000        0x0 build/sa2/sound/songs/midi/se_296.o
 .ARM.attributes
                0x0000000000000000       0x20 build/sa2/sound/songs/midi/se_296.o
 .text          0x0000000000000000        0x0 build/sa2/sound/songs/midi/se_297.o
 .data          0x0000000000000000        0x0 build/sa2/sound/songs/midi/se_297.o
 .bss           0x0000000000000000        0x0 build/sa2/sound/songs/midi/se_297.o
 .ARM.attributes
                0x0000000000000000       0x20 build/sa2/sound/songs/midi/se_297.o
 .text          0x0000000000000000        0x0 build/sa2/sound/songs/midi/se_special_ring.o
 .data          0x0000000000000000        0x0 build/sa2/sound/songs/midi/se_special_ring.o
 .bss           0x0000000000000000        0x0 build/sa2/sound/songs/midi/se_special_ring.o
 .ARM.attributes
                0x0000000000000000       0x20 build/sa2/sound/songs/midi/se_special_ring.o
 .text          0x0000000000000000        0x0 build/sa2/sound/songs/midi/se_music_plant_spring_1.o
 .data          0x0000000000000000        0x0 build/sa2/sound/songs/midi/se_music_plant_spring_1.o
 .bss           0x0000000000000000        0x0 build/sa2/sound/songs/midi/se_music_plant_spring_1.o
 .ARM.attributes
                0x0000000000000000       0x20 build/sa2/sound/songs/midi/se_music_plant_spring_1.o
 .text          0x0000000000000000        0x0 build/sa2/sound/songs/midi/se_music_plant_spring_2.o
 .data          0x0000000000000000        0x0 build/sa2/sound/songs/midi/se_music_plant_spring_2.o
 .bss           0x0000000000000000        0x0 build/sa2/sound/songs/midi/se_music_plant_spring_2.o
 .ARM.attributes
                0x0000000000000000       0x20 build/sa2/sound/songs/midi/se_music_plant_spring_2.o
 .text          0x0000000000000000        0x0 build/sa2/sound/songs/midi/se_music_plant_spring_3.o
 .data          0x0000000000000000        0x0 build/sa2/sound/songs/midi/se_music_plant_spring_3.o
 .bss           0x0000000000000000        0x0 build/sa2/sound/songs/midi/se_music_plant_spring_3.o
 .ARM.attributes
                0x0000000000000000       0x20 build/sa2/sound/songs/midi/se_music_plant_spring_3.o
 .text          0x0000000000000000        0x0 build/sa2/sound/songs/midi/se_music_plant_spring_4.o
 .data          0x0000000000000000        0x0 build/sa2/sound/songs/midi/se_music_plant_spring_4.o
 .bss           0x0000000000000000        0x0 build/sa2/sound/songs/midi/se_music_plant_spring_4.o
 .ARM.attributes
                0x0000000000000000       0x20 build/sa2/sound/songs/midi/se_music_plant_spring_4.o
 .text          0x0000000000000000        0x0 build/sa2/sound/songs/midi/se_music_plant_crash_hit.o
 .data          0x0000000000000000        0x0 build/sa2/sound/songs/midi/se_music_plant_crash_hit.o
 .bss           0x0000000000000000        0x0 build/sa2/sound/songs/midi/se_music_plant_crash_hit.o
 .ARM.attributes
                0x0000000000000000       0x20 build/sa2/sound/songs/midi/se_music_plant_crash_hit.o
 .text          0x0000000000000000        0x0 build/sa2/sound/songs/midi/se_music_plant_notes_1.o
 .data          0x0000000000000000        0x0 build/sa2/sound/songs/midi/se_music_plant_notes_1.o
 .bss           0x0000000000000000        0x0 build/sa2/sound/songs/midi/se_music_plant_notes_1.o
 .ARM.attributes
                0x0000000000000000       0x20 build/sa2/sound/songs/midi/se_music_plant_notes_1.o
 .text          0x0000000000000000        0x0 build/sa2/sound/songs/midi/se_music_plant_notes_2.o
 .data          0x0000000000000000        0x0 build/sa2/sound/songs/midi/se_music_plant_notes_2.o
 .bss           0x0000000000000000        0x0 build/sa2/sound/songs/midi/se_music_plant_notes_2.o
 .ARM.attributes
                0x0000000000000000       0x20 build/sa2/sound/songs/midi/se_music_plant_notes_2.o
 .text          0x0000000000000000        0x0 build/sa2/sound/songs/midi/se_music_plant_notes_3.o
 .data          0x0000000000000000        0x0 build/sa2/sound/songs/midi/se_music_plant_notes_3.o
 .bss           0x0000000000000000        0x0 build/sa2/sound/songs/midi/se_music_plant_notes_3.o
 .ARM.attributes
                0x0000000000000000       0x20 build/sa2/sound/songs/midi/se_music_plant_notes_3.o
 .text          0x0000000000000000        0x0 build/sa2/sound/songs/midi/se_music_plant_notes_4.o
 .data          0x0000000000000000        0x0 build/sa2/sound/songs/midi/se_music_plant_notes_4.o
 .bss           0x0000000000000000        0x0 build/sa2/sound/songs/midi/se_music_plant_notes_4.o
 .ARM.attributes
                0x0000000000000000       0x20 build/sa2/sound/songs/midi/se_music_plant_notes_4.o
 .text          0x0000000000000000        0x0 build/sa2/sound/songs/midi/se_music_plant_notes_5.o
 .data          0x0000000000000000        0x0 build/sa2/sound/songs/midi/se_music_plant_notes_5.o
 .bss           0x0000000000000000        0x0 build/sa2/sound/songs/midi/se_music_plant_notes_5.o
 .ARM.attributes
                0x0000000000000000       0x20 build/sa2/sound/songs/midi/se_music_plant_notes_5.o
 .text          0x0000000000000000        0x0 build/sa2/sound/songs/midi/se_music_plant_notes_6.o
 .data          0x0000000000000000        0x0 build/sa2/sound/songs/midi/se_music_plant_notes_6.o
 .bss           0x0000000000000000        0x0 build/sa2/sound/songs/midi/se_music_plant_notes_6.o
 .ARM.attributes
                0x0000000000000000       0x20 build/sa2/sound/songs/midi/se_music_plant_notes_6.o
 .text          0x0000000000000000        0x0 build/sa2/sound/songs/midi/se_music_plant_notes_7.o
 .data          0x0000000000000000        0x0 build/sa2/sound/songs/midi/se_music_plant_notes_7.o
 .bss           0x0000000000000000        0x0 build/sa2/sound/songs/midi/se_music_plant_notes_7.o
 .ARM.attributes
                0x0000000000000000       0x20 build/sa2/sound/songs/midi/se_music_plant_notes_7.o
 .text          0x0000000000000000        0x0 build/sa2/sound/songs/midi/se_music_plant_notes_8.o
 .data          0x0000000000000000        0x0 build/sa2/sound/songs/midi/se_music_plant_notes_8.o
 .bss           0x0000000000000000        0x0 build/sa2/sound/songs/midi/se_music_plant_notes_8.o
 .ARM.attributes
                0x0000000000000000       0x20 build/sa2/sound/songs/midi/se_music_plant_notes_8.o
 .text          0x0000000000000000        0x0 build/sa2/sound/songs/midi/se_music_plant_glockenspiel_1.o
 .data          0x0000000000000000        0x0 build/sa2/sound/songs/midi/se_music_plant_glockenspiel_1.o
 .bss           0x0000000000000000        0x0 build/sa2/sound/songs/midi/se_music_plant_glockenspiel_1.o
 .ARM.attributes
                0x0000000000000000       0x20 build/sa2/sound/songs/midi/se_music_plant_glockenspiel_1.o
 .text          0x0000000000000000        0x0 build/sa2/sound/songs/midi/se_music_plant_glockenspiel_2.o
 .data          0x0000000000000000        0x0 build/sa2/sound/songs/midi/se_music_plant_glockenspiel_2.o
 .bss           0x0000000000000000        0x0 build/sa2/sound/songs/midi/se_music_plant_glockenspiel_2.o
 .ARM.attributes
                0x0000000000000000       0x20 build/sa2/sound/songs/midi/se_music_plant_glockenspiel_2.o
 .text          0x0000000000000000        0x0 build/sa2/sound/songs/midi/se_music_plant_glockenspiel_3.o
 .data          0x0000000000000000        0x0 build/sa2/sound/songs/midi/se_music_plant_glockenspiel_3.o
 .bss           0x0000000000000000        0x0 build/sa2/sound/songs/midi/se_music_plant_glockenspiel_3.o
 .ARM.attributes
                0x0000000000000000       0x20 build/sa2/sound/songs/midi/se_music_plant_glockenspiel_3.o
 .text          0x0000000000000000        0x0 build/sa2/sound/songs/midi/se_music_plant_glockenspiel_4.o
 .data          0x0000000000000000        0x0 build/sa2/sound/songs/midi/se_music_plant_glockenspiel_4.o
 .bss           0x0000000000000000        0x0 build/sa2/sound/songs/midi/se_music_plant_glockenspiel_4.o
 .ARM.attributes
                0x0000000000000000       0x20 build/sa2/sound/songs/midi/se_music_plant_glockenspiel_4.o
 .text          0x0000000000000000        0x0 build/sa2/sound/songs/midi/se_music_plant_glockenspiel_5.o
 .data          0x0000000000000000        0x0 build/sa2/sound/songs/midi/se_music_plant_glockenspiel_5.o
 .bss           0x0000000000000000        0x0 build/sa2/sound/songs/midi/se_music_plant_glockenspiel_5.o
 .ARM.attributes
                0x0000000000000000       0x20 build/sa2/sound/songs/midi/se_music_plant_glockenspiel_5.o
 .text          0x0000000000000000        0x0 build/sa2/sound/songs/midi/se_music_plant_glockenspiel_6.o
 .data          0x0000000000000000        0x0 build/sa2/sound/songs/midi/se_music_plant_glockenspiel_6.o
 .bss           0x0000000000000000        0x0 build/sa2/sound/songs/midi/se_music_plant_glockenspiel_6.o
 .ARM.attributes
                0x0000000000000000       0x20 build/sa2/sound/songs/midi/se_music_plant_glockenspiel_6.o
 .text          0x0000000000000000        0x0 build/sa2/sound/songs/midi/se_music_plant_enter_horn.o
 .data          0x0000000000000000        0x0 build/sa2/sound/songs/midi/se_music_plant_enter_horn.o
 .bss           0x0000000000000000        0x0 build/sa2/sound/songs/midi/se_music_plant_enter_horn.o
 .ARM.attributes
                0x0000000000000000       0x20 build/sa2/sound/songs/midi/se_music_plant_enter_horn.o
 .text          0x0000000000000000        0x0 build/sa2/sound/songs/midi/se_music_plant_exit_horn.o
 .data          0x0000000000000000        0x0 build/sa2/sound/songs/midi/se_music_plant_exit_horn.o
 .bss           0x0000000000000000        0x0 build/sa2/sound/songs/midi/se_music_plant_exit_horn.o
 .ARM.attributes
                0x0000000000000000       0x20 build/sa2/sound/songs/midi/se_music_plant_exit_horn.o
 .text          0x0000000000000000        0x0 build/sa2/sound/songs/midi/se_music_plant_enter_horn2.o
 .data          0x0000000000000000        0x0 build/sa2/sound/songs/midi/se_music_plant_enter_horn2.o
 .bss           0x0000000000000000        0x0 build/sa2/sound/songs/midi/se_music_plant_enter_horn2.o
 .ARM.attributes
                0x0000000000000000       0x20 build/sa2/sound/songs/midi/se_music_plant_enter_horn2.o
 .text          0x0000000000000000        0x0 build/sa2/sound/songs/midi/se_music_plant_exit_horn2.o
 .data          0x0000000000000000        0x0 build/sa2/sound/songs/midi/se_music_plant_exit_horn2.o
 .bss           0x0000000000000000        0x0 build/sa2/sound/songs/midi/se_music_plant_exit_horn2.o
 .ARM.attributes
                0x0000000000000000       0x20 build/sa2/sound/songs/midi/se_music_plant_exit_horn2.o
 .text          0x0000000000000000        0x0 build/sa2/sound/songs/midi/se_music_plant_horn3.o
 .data          0x0000000000000000        0x0 build/sa2/sound/songs/midi/se_music_plant_horn3.o
 .bss           0x0000000000000000        0x0 build/sa2/sound/songs/midi/se_music_plant_horn3.o
 .ARM.attributes
                0x0000000000000000       0x20 build/sa2/sound/songs/midi/se_music_plant_horn3.o
 .text          0x0000000000000000        0x0 build/sa2/sound/songs/midi/se_music_plant_guitar_string.o
 .data          0x0000000000000000        0x0 build/sa2/sound/songs/midi/se_music_plant_guitar_string.o
 .bss           0x0000000000000000        0x0 build/sa2/sound/songs/midi/se_music_plant_guitar_string.o
 .ARM.attributes
                0x0000000000000000       0x20 build/sa2/sound/songs/midi/se_music_plant_guitar_string.o
 .text          0x0000000000000000        0x0 build/sa2/sound/songs/midi/se_music_plant_piano.o
 .data          0x0000000000000000        0x0 build/sa2/sound/songs/midi/se_music_plant_piano.o
 .bss           0x0000000000000000        0x0 build/sa2/sound/songs/midi/se_music_plant_piano.o
 .ARM.attributes
                0x0000000000000000       0x20 build/sa2/sound/songs/midi/se_music_plant_piano.o
 .text          0x0000000000000000        0x0 build/sa2/sound/songs/midi/se_music_plant_flute_1.o
 .data          0x0000000000000000        0x0 build/sa2/sound/songs/midi/se_music_plant_flute_1.o
 .bss           0x0000000000000000        0x0 build/sa2/sound/songs/midi/se_music_plant_flute_1.o
 .ARM.attributes
                0x0000000000000000       0x20 build/sa2/sound/songs/midi/se_music_plant_flute_1.o
 .text          0x0000000000000000        0x0 build/sa2/sound/songs/midi/se_music_plant_flute_2.o
 .data          0x0000000000000000        0x0 build/sa2/sound/songs/midi/se_music_plant_flute_2.o
 .bss           0x0000000000000000        0x0 build/sa2/sound/songs/midi/se_music_plant_flute_2.o
 .ARM.attributes
                0x0000000000000000       0x20 build/sa2/sound/songs/midi/se_music_plant_flute_2.o
 .text          0x0000000000000000        0x0 build/sa2/sound/songs/midi/se_music_plant_flute_3.o
 .data          0x0000000000000000        0x0 build/sa2/sound/songs/midi/se_music_plant_flute_3.o
 .bss           0x0000000000000000        0x0 build/sa2/sound/songs/midi/se_music_plant_flute_3.o
 .ARM.attributes
                0x0000000000000000       0x20 build/sa2/sound/songs/midi/se_music_plant_flute_3.o
 .text          0x0000000000000000        0x0 build/sa2/sound/songs/midi/se_music_plant_flute_4.o
 .data          0x0000000000000000        0x0 build/sa2/sound/songs/midi/se_music_plant_flute_4.o
 .bss           0x0000000000000000        0x0 build/sa2/sound/songs/midi/se_music_plant_flute_4.o
 .ARM.attributes
                0x0000000000000000       0x20 build/sa2/sound/songs/midi/se_music_plant_flute_4.o
 .text          0x0000000000000000        0x0 build/sa2/sound/songs/midi/se_331.o
 .data          0x0000000000000000        0x0 build/sa2/sound/songs/midi/se_331.o
 .bss           0x0000000000000000        0x0 build/sa2/sound/songs/midi/se_331.o
 .ARM.attributes
                0x0000000000000000       0x20 build/sa2/sound/songs/midi/se_331.o
 .text          0x0000000000000000        0x0 build/sa2/sound/songs/midi/se_332.o
 .data          0x0000000000000000        0x0 build/sa2/sound/songs/midi/se_332.o
 .bss           0x0000000000000000        0x0 build/sa2/sound/songs/midi/se_332.o
 .ARM.attributes
                0x0000000000000000       0x20 build/sa2/sound/songs/midi/se_332.o
 .text          0x0000000000000000        0x0 build/sa2/sound/songs/midi/se_333.o
 .data          0x0000000000000000        0x0 build/sa2/sound/songs/midi/se_333.o
 .bss           0x0000000000000000        0x0 build/sa2/sound/songs/midi/se_333.o
 .ARM.attributes
                0x0000000000000000       0x20 build/sa2/sound/songs/midi/se_333.o
 .text          0x0000000000000000        0x0 build/sa2/sound/songs/midi/mus_act_clear.o
 .data          0x0000000000000000        0x0 build/sa2/sound/songs/midi/mus_act_clear.o
 .bss           0x0000000000000000        0x0 build/sa2/sound/songs/midi/mus_act_clear.o
 .ARM.attributes
                0x0000000000000000       0x20 build/sa2/sound/songs/midi/mus_act_clear.o
 .text          0x0000000000000000        0x0 build/sa2/sound/songs/midi/mus_boss_clear.o
 .data          0x0000000000000000        0x0 build/sa2/sound/songs/midi/mus_boss_clear.o
 .bss           0x0000000000000000        0x0 build/sa2/sound/songs/midi/mus_boss_clear.o
 .ARM.attributes
                0x0000000000000000       0x20 build/sa2/sound/songs/midi/mus_boss_clear.o
 .text          0x0000000000000000        0x0 build/sa2/sound/songs/midi/mus_final_clear.o
 .data          0x0000000000000000        0x0 build/sa2/sound/songs/midi/mus_final_clear.o
 .bss           0x0000000000000000        0x0 build/sa2/sound/songs/midi/mus_final_clear.o
 .ARM.attributes
                0x0000000000000000       0x20 build/sa2/sound/songs/midi/mus_final_clear.o
 .text          0x0000000000000000        0x0 build/sa2/sound/songs/midi/mus_extra_clear.o
 .data          0x0000000000000000        0x0 build/sa2/sound/songs/midi/mus_extra_clear.o
 .bss           0x0000000000000000        0x0 build/sa2/sound/songs/midi/mus_extra_clear.o
 .ARM.attributes
                0x0000000000000000       0x20 build/sa2/sound/songs/midi/mus_extra_clear.o
 .text          0x0000000000000000        0x0 build/sa2/sound/songs/midi/mus_time_attack_2.o
 .data          0x0000000000000000        0x0 build/sa2/sound/songs/midi/mus_time_attack_2.o
 .bss           0x0000000000000000        0x0 build/sa2/sound/songs/midi/mus_time_attack_2.o
 .ARM.attributes
                0x0000000000000000       0x20 build/sa2/sound/songs/midi/mus_time_attack_2.o
 .text          0x0000000000000000        0x0 build/sa2/sound/songs/midi/mus_time_attack_3.o
 .data          0x0000000000000000        0x0 build/sa2/sound/songs/midi/mus_time_attack_3.o
 .bss           0x0000000000000000        0x0 build/sa2/sound/songs/midi/mus_time_attack_3.o
 .ARM.attributes
                0x0000000000000000       0x20 build/sa2/sound/songs/midi/mus_time_attack_3.o
 .text          0x0000000000000000        0x0 build/sa2/sound/songs/midi/mus_1_up.o
 .data          0x0000000000000000        0x0 build/sa2/sound/songs/midi/mus_1_up.o
 .bss           0x0000000000000000        0x0 build/sa2/sound/songs/midi/mus_1_up.o
 .ARM.attributes
                0x0000000000000000       0x20 build/sa2/sound/songs/midi/mus_1_up.o
 .text          0x0000000000000000        0x0 build/sa2/sound/songs/midi/mus_message_2.o
 .data          0x0000000000000000        0x0 build/sa2/sound/songs/midi/mus_message_2.o
 .bss           0x0000000000000000        0x0 build/sa2/sound/songs/midi/mus_message_2.o
 .ARM.attributes
                0x0000000000000000       0x20 build/sa2/sound/songs/midi/mus_message_2.o
 .text          0x0000000000000000        0x0 build/sa2/sound/songs/midi/mus_got_all_chaos_emeralds.o
 .data          0x0000000000000000        0x0 build/sa2/sound/songs/midi/mus_got_all_chaos_emeralds.o
 .bss           0x0000000000000000        0x0 build/sa2/sound/songs/midi/mus_got_all_chaos_emeralds.o
 .ARM.attributes
                0x0000000000000000       0x20 build/sa2/sound/songs/midi/mus_got_all_chaos_emeralds.o
 .text          0x0000000000000000        0x0 build/sa2/sound/songs/midi/mus_fanfare.o
 .data          0x0000000000000000        0x0 build/sa2/sound/songs/midi/mus_fanfare.o
 .bss           0x0000000000000000        0x0 build/sa2/sound/songs/midi/mus_fanfare.o
 .ARM.attributes
                0x0000000000000000       0x20 build/sa2/sound/songs/midi/mus_fanfare.o
 .text          0x0000000000000000        0x0 build/sa2/sound/songs/midi/mus_vs_exit.o
 .data          0x0000000000000000        0x0 build/sa2/sound/songs/midi/mus_vs_exit.o
 .bss           0x0000000000000000        0x0 build/sa2/sound/songs/midi/mus_vs_exit.o
 .ARM.attributes
                0x0000000000000000       0x20 build/sa2/sound/songs/midi/mus_vs_exit.o
 .text          0x0000000000000000        0x0 build/sa2/sound/songs/midi/mus_vs_success.o
 .data          0x0000000000000000        0x0 build/sa2/sound/songs/midi/mus_vs_success.o
 .bss           0x0000000000000000        0x0 build/sa2/sound/songs/midi/mus_vs_success.o
 .ARM.attributes
                0x0000000000000000       0x20 build/sa2/sound/songs/midi/mus_vs_success.o
 .text          0x0000000000000000        0x0 build/sa2/sound/songs/midi/mus_vs_miss.o
 .data          0x0000000000000000        0x0 build/sa2/sound/songs/midi/mus_vs_miss.o
 .bss           0x0000000000000000        0x0 build/sa2/sound/songs/midi/mus_vs_miss.o
 .ARM.attributes
                0x0000000000000000       0x20 build/sa2/sound/songs/midi/mus_vs_miss.o
 .text          0x0000000000000000        0x0 build/sa2/sound/songs/midi/mus_message.o
 .data          0x0000000000000000        0x0 build/sa2/sound/songs/midi/mus_message.o
 .bss           0x0000000000000000        0x0 build/sa2/sound/songs/midi/mus_message.o
 .ARM.attributes
                0x0000000000000000       0x20 build/sa2/sound/songs/midi/mus_message.o
 .text          0x0000000000000000        0x0 build/sa2/sound/songs/midi/mus_504.o
 .data          0x0000000000000000        0x0 build/sa2/sound/songs/midi/mus_504.o
 .bss           0x0000000000000000        0x0 build/sa2/sound/songs/midi/mus_504.o
 .ARM.attributes
                0x0000000000000000       0x20 build/sa2/sound/songs/midi/mus_504.o
 .text          0x0000000000000000        0x0 build/sa2/sound/songs/midi/mus_505.o
 .data          0x0000000000000000        0x0 build/sa2/sound/songs/midi/mus_505.o
 .bss           0x0000000000000000        0x0 build/sa2/sound/songs/midi/mus_505.o
 .ARM.attributes
                0x0000000000000000       0x20 build/sa2/sound/songs/midi/mus_505.o
 .text          0x0000000000000000        0x0 build/sa2/sound/songs/midi/mus_506.o
 .data          0x0000000000000000        0x0 build/sa2/sound/songs/midi/mus_506.o
 .bss           0x0000000000000000        0x0 build/sa2/sound/songs/midi/mus_506.o
 .ARM.attributes
                0x0000000000000000       0x20 build/sa2/sound/songs/midi/mus_506.o
 .text          0x0000000000000000        0x0 build/sa2/data/data3.o
 .data          0x0000000000000000        0x0 build/sa2/data/data3.o
 .bss           0x0000000000000000        0x0 build/sa2/data/data3.o
 .ARM.attributes
                0x0000000000000000       0x20 build/sa2/data/data3.o
 .text          0x0000000000000000        0x0 build/sa2/data/special_stage_levels.o
 .data          0x0000000000000000        0x0 build/sa2/data/special_stage_levels.o
 .bss           0x0000000000000000        0x0 build/sa2/data/special_stage_levels.o
 .ARM.attributes
                0x0000000000000000       0x20 build/sa2/data/special_stage_levels.o
 .text          0x0000000000000000        0x0 build/sa2/data/handlers_ia_pipe_horn_sequences.o
 .data          0x0000000000000000        0x0 build/sa2/data/handlers_ia_pipe_horn_sequences.o
 .bss           0x0000000000000000        0x0 build/sa2/data/handlers_ia_pipe_horn_sequences.o
 .ARM.attributes
                0x0000000000000000       0x20 build/sa2/data/handlers_ia_pipe_horn_sequences.o
 .text          0x0000000000000000        0x0 build/sa2/src/data/palettes.o
 .data          0x0000000000000000        0x0 build/sa2/src/data/palettes.o
 .bss           0x0000000000000000        0x0 build/sa2/src/data/palettes.o
 .ARM.attributes
                0x0000000000000000       0x20 build/sa2/src/data/palettes.o
 .text          0x0000000000000000        0x0 build/sa2/src/data/recordings.o
 .data          0x0000000000000000        0x0 build/sa2/src/data/recordings.o
 .bss           0x0000000000000000        0x0 build/sa2/src/data/recordings.o
 .ARM.attributes
                0x0000000000000000       0x20 build/sa2/src/data/recordings.o
 .text          0x0000000000000000        0x0 build/sa2/data/data4.o
 .data          0x0000000000000000        0x0 build/sa2/data/data4.o
 .bss           0x0000000000000000        0x0 build/sa2/data/data4.o
 .ARM.attributes
                0x0000000000000000       0x20 build/sa2/data/data4.o
 .text          0x0000000000000000        0x0 build/sa2/data/multiboot_subgame_loader.o
 .data          0x0000000000000000        0x0 build/sa2/data/multiboot_subgame_loader.o
 .bss           0x0000000000000000        0x0 build/sa2/data/multiboot_subgame_loader.o
 .ARM.attributes
                0x0000000000000000       0x20 build/sa2/data/multiboot_subgame_loader.o
 .text          0x0000000000000000        0x0 build/sa2/asm/rom_footer.o
 .data          0x0000000000000000        0x0 build/sa2/asm/rom_footer.o
 .bss           0x0000000000000000        0x0 build/sa2/asm/rom_footer.o
 .ARM.attributes
                0x0000000000000000       0x20 build/sa2/asm/rom_footer.o
 .text          0x0000000000000000        0x0 build/sa2/src/sprite_2.o
 .data          0x0000000000000000        0x0 build/sa2/src/sprite_2.o
 .bss           0x0000000000000000        0x0 build/sa2/src/sprite_2.o
 .ARM.attributes
                0x0000000000000000       0x20 build/sa2/src/sprite_2.o
 .data          0x0000000000000000        0x0 tools/agbcc/lib/libgcc.a(_ashrdi3.o)
 .bss           0x0000000000000000        0x0 tools/agbcc/lib/libgcc.a(_ashrdi3.o)
 .ARM.attributes
                0x0000000000000000       0x20 tools/agbcc/lib/libgcc.a(_ashrdi3.o)
 .data          0x0000000000000000        0x0 tools/agbcc/lib/libgcc.a(_call_via_rX.o)
 .bss           0x0000000000000000        0x0 tools/agbcc/lib/libgcc.a(_call_via_rX.o)
 .ARM.attributes
                0x0000000000000000       0x20 tools/agbcc/lib/libgcc.a(_call_via_rX.o)
 .data          0x0000000000000000        0x0 tools/agbcc/lib/libgcc.a(_divdi3.o)
 .bss           0x0000000000000000        0x0 tools/agbcc/lib/libgcc.a(_divdi3.o)
 .ARM.attributes
                0x0000000000000000       0x20 tools/agbcc/lib/libgcc.a(_divdi3.o)
 .data          0x0000000000000000        0x0 tools/agbcc/lib/libgcc.a(_divsi3.o)
 .bss           0x0000000000000000        0x0 tools/agbcc/lib/libgcc.a(_divsi3.o)
 .ARM.attributes
                0x0000000000000000       0x20 tools/agbcc/lib/libgcc.a(_divsi3.o)
 .data          0x0000000000000000        0x0 tools/agbcc/lib/libgcc.a(_dvmd_tls.o)
 .bss           0x0000000000000000        0x0 tools/agbcc/lib/libgcc.a(_dvmd_tls.o)
 .ARM.attributes
                0x0000000000000000       0x20 tools/agbcc/lib/libgcc.a(_dvmd_tls.o)
 .data          0x0000000000000000        0x0 tools/agbcc/lib/libgcc.a(_modsi3.o)
 .bss           0x0000000000000000        0x0 tools/agbcc/lib/libgcc.a(_modsi3.o)
 .ARM.attributes
                0x0000000000000000       0x20 tools/agbcc/lib/libgcc.a(_modsi3.o)
 .data          0x0000000000000000        0x0 tools/agbcc/lib/libgcc.a(_muldi3.o)
 .bss           0x0000000000000000        0x0 tools/agbcc/lib/libgcc.a(_muldi3.o)
 .ARM.attributes
                0x0000000000000000       0x20 tools/agbcc/lib/libgcc.a(_muldi3.o)
 .data          0x0000000000000000        0x0 tools/agbcc/lib/libgcc.a(_negdi2.o)
 .bss           0x0000000000000000        0x0 tools/agbcc/lib/libgcc.a(_negdi2.o)
 .ARM.attributes
                0x0000000000000000       0x20 tools/agbcc/lib/libgcc.a(_negdi2.o)
 .data          0x0000000000000000        0x0 tools/agbcc/lib/libgcc.a(_udivsi3.o)
 .bss           0x0000000000000000        0x0 tools/agbcc/lib/libgcc.a(_udivsi3.o)
 .ARM.attributes
                0x0000000000000000       0x20 tools/agbcc/lib/libgcc.a(_udivsi3.o)
 .data          0x0000000000000000        0x0 tools/agbcc/lib/libgcc.a(_umodsi3.o)
 .bss           0x0000000000000000        0x0 tools/agbcc/lib/libgcc.a(_umodsi3.o)
 .ARM.attributes
                0x0000000000000000       0x20 tools/agbcc/lib/libgcc.a(_umodsi3.o)
 .data          0x0000000000000000        0x0 tools/agbcc/lib/libc.a(memcpy.o)
 .bss           0x0000000000000000        0x0 tools/agbcc/lib/libc.a(memcpy.o)
 .ARM.attributes
                0x0000000000000000       0x20 tools/agbcc/lib/libc.a(memcpy.o)
 .data          0x0000000000000000        0x0 tools/agbcc/lib/libc.a(memset.o)
 .bss           0x0000000000000000        0x0 tools/agbcc/lib/libc.a(memset.o)
 .ARM.attributes
                0x0000000000000000       0x20 tools/agbcc/lib/libc.a(memset.o)

Memory Configuration

Name             Origin             Length             Attributes
*default*        0x0000000000000000 0xffffffffffffffff

Linker script and memory map

                0x0000000000000004                gNumMusicPlayers = 0x4
                0x0000000000000000                gMaxLines = 0x0
                0x0000000002000000                . = 0x2000000

EWRAM           0x0000000002000000    0x226d0
 build/sa2/data/sound_data.o(ewram_data)
 ewram_data     0x0000000002000000     0x1400 build/sa2/data/sound_data.o
 build/sa2/src/lib/m4a.o(ewram_data)
 ewram_data     0x0000000002001400     0x1250 build/sa2/src/lib/m4a.o
                0x0000000002001400                gSoundInfo
                0x00000000020023b0                gMPlayJumpTable
                0x0000000002002440                gCgbChans
                0x0000000002002540                gMPlayInfo_BGM
                0x0000000002002580                gMPlayInfo_SE1
                0x00000000020025c0                gMPlayInfo_SE2
                0x0000000002002600                gMPlayMemAccArea
                0x0000000002002610                gMPlayInfo_SE3
 build/sa2/src/core.o(ewram_data)
 ewram_data     0x0000000002002650    0x20080 build/sa2/src/core.o
                0x0000000002002650                gEwramHeap
                0x00000000020226d0                ewram_end = .
                0x0000000003000000                . = 0x3000000

IWRAM           0x0000000003000000     0x5bb4
 build/sa2/src/lib/m4a.o(.bss.code)
 .bss.code      0x0000000003000000      0x400 build/sa2/src/lib/m4a.o
                0x0000000003000000                SoundMainRAM_Buffer
 build/sa2/src/multi_boot.o(.bss)
 .bss           0x0000000003000400        0x6 build/sa2/src/multi_boot.o
                0x000000000000042c                . = 0x42c
 *fill*         0x0000000003000406       0x26 
 build/sa2/src/lib/agb_flash.o(.bss)
 .bss           0x000000000300042c        0xa build/sa2/src/lib/agb_flash.o
                0x0000000003000440                . = ALIGN (0x10)
 *fill*         0x0000000003000436        0xa 
 build/sa2/src/multi_sio.o(.data)
 .data          0x0000000003000440      0x350 build/sa2/src/multi_sio.o
                0x0000000003000440                gMultiSioIntrFuncBuf
                0x0000000003000560                gMultiSioArea
                0x0000000003000748                gUnusedMultiSioSpace
                0x0000000003000750                gMultiSioRecvFuncBuf
 build/sa2/src/sio32_multi_load.o(COMMON)
 COMMON         0x0000000003000790       0x18 build/sa2/src/sio32_multi_load.o
                0x0000000003000790                gSio32MultiLoadArea
 build/sa2/src/core.o(.data)
 *fill*         0x00000000030007a8        0x8 
 .data          0x00000000030007b0     0x4c20 build/sa2/src/core.o
                0x00000000030007b0                gIntrTable
                0x00000000030007f0                gIntrMainBuf
                0x00000000030009f0                gTasks
                0x00000000030017f0                gUnknown_030017F0
                0x00000000030017f4                gUnknown_030017F4
                0x0000000003001800                gUnknown_03001800
                0x0000000003001840                gFlags
                0x0000000003001850                gUnknown_03001850
                0x0000000003001870                gUnknown_03001870
                0x0000000003001880                gPhysicalInput
                0x0000000003001884                gUnknown_03001884
                0x0000000003001888                gVramHeapMaxTileSlots
                0x000000000300188c                gNumHBlankCallbacks
                0x0000000003001890                gMultiSioRecv
                0x00000000030018e0                gNumHBlankIntrs
                0x00000000030018e8                gBldRegs
                0x00000000030018f0                gUnknown_030018F0
                0x0000000003001900                gEmptyTask
                0x0000000003001920                gBgAffineRegs
                0x0000000003001940                gVramHeapStartAddr
                0x0000000003001944                gUnknown_03001944
                0x0000000003001948                gUnknown_03001948
                0x000000000300194c                gUnknown_0300194C
                0x0000000003001950                gMultiSioStatusFlags
                0x0000000003001954                gMultiSioEnabled
                0x0000000003001960                gTaskPtrs
                0x0000000003001b60                gUnknown_03001B60
                0x0000000003002060                gObjPalette
                0x0000000003002260                gUnknown_03002260
                0x0000000003002264                gFrameCount
                0x0000000003002270                gWinRegs
                0x000000000300227c                gNumTasks
                0x0000000003002280                gUnknown_03002280
                0x0000000003002290                gInput
                0x00000000030022a0                gRepeatedKeysTestCounter
                0x00000000030022ac                gUnknown_030022AC
                0x00000000030022b0                gBgCntRegs
                0x00000000030022b8                gRepeatedKeys
                0x00000000030022bc                gNextTask
                0x00000000030022c0                gUnknown_030022C0
                0x00000000030022c8                gUnknown_030022C8
                0x00000000030022d0                gUnknown_030022D0
                0x00000000030026d0                gUnknown_030026D0
                0x00000000030026e0                gHBlankCallbacks
                0x00000000030026f0                gCurTask
                0x00000000030026f4                gUnknown_030026F4
                0x0000000003002700                gKeysFirstRepeatIntervals
                0x000000000300270c                gReleasedKeys
                0x0000000003002710                gUnknown_03002710
                0x0000000003002790                gFlagsPreVBlank
                0x0000000003002794                gUnknown_03002794
                0x00000000030027a0                gVramGraphicsCopyQueue
                0x0000000003002820                gUnknown_03002820
                0x0000000003002830                gBgScrollRegs
                0x0000000003002840                gDispCnt
                0x0000000003002850                gKeysContinuedRepeatIntervals
                0x0000000003002860                gMultiSioSend
                0x0000000003002874                gUnknown_03002874
                0x0000000003002878                gUnknown_03002878
                0x000000000300287c                gUnknown_0300287C
                0x0000000003002880                gBgPalette
                0x0000000003002a80                gUnknown_03002A80
                0x0000000003002a84                gVramGraphicsCopyQueueIndex
                0x0000000003002a88                gPrevInput
                0x0000000003002a8c                gUnknown_03002A8C
                0x0000000003002a90                gMultiBootParam
                0x0000000003002adc                gPressedKeys
                0x0000000003002ae0                gUnknown_03002AE0
                0x0000000003002ae4                gUnknown_03002AE4
                0x0000000003002af0                gHBlankIntrs
                0x0000000003002b00                gIwramHeap
                0x0000000003004d10                gUnknown_03004D10
                0x0000000003004d50                gUnknown_03004D50
                0x0000000003004d54                gUnknown_03004D54
                0x0000000003004d58                gUnknown_03004D58
                0x0000000003004d5c                gVramGraphicsCopyCursor
                0x0000000003004d60                gUnknown_03004D60
                0x0000000003004d80                gUnknown_03004D80
                0x0000000003004d90                gOamBuffer
                0x0000000003005190                gVramHeapState
                0x0000000003005390                gUnknown_03005390
                0x0000000003005394                gUnknown_03005394
                0x0000000003005398                gUnknown_03005398
                0x00000000030053a0                gUnknown_030053A0
                0x00000000030053b0                gInputPlaybackData
                0x00000000030053b4                gExecSoundMain
                0x00000000030053b8                gPseudoRandom
                0x00000000030053c0                gInputRecorder
                0x00000000030053cc                gInputRecorderTapeBuffer
                0x00000000030053e0                . = ALIGN (0x20)
 *fill*         0x00000000030053d0       0x10 
                0x00000000030053e0                gUnknown_030053E0 = .
                0x00000000000053e4                . = 0x53e4
 *fill*         0x00000000030053e0        0x4 
                0x00000000030053e4                gCheckpointTime = .
                0x00000000000053e8                . = 0x53e8
 *fill*         0x00000000030053e4        0x4 
                0x00000000030053e8                gUnknown_030053E8 = .
                0x00000000000053ec                . = 0x53ec
 *fill*         0x00000000030053e8        0x4 
                0x00000000030053ec                gMultiplayerLanguage = .
                0x00000000000053f0                . = 0x53f0
 *fill*         0x00000000030053ec        0x4 
                0x00000000030053f0                gRingCount = .
                0x000000000000540c                . = 0x540c
 *fill*         0x00000000030053f0       0x1c 
                0x000000000300540c                gUnknown_0300540C = .
                0x0000000000005410                . = 0x5410
 *fill*         0x000000000300540c        0x4 
                0x0000000003005410                gMultiplayerIds = .
                0x0000000000005420                . = 0x5420
 *fill*         0x0000000003005410       0x10 
                0x0000000003005420                gUnknown_03005420 = .
                0x0000000000005424                . = 0x5424
 *fill*         0x0000000003005420        0x4 
                0x0000000003005424                gUnknown_03005424 = .
                0x0000000000005428                . = 0x5428
 *fill*         0x0000000003005424        0x4 
                0x0000000003005428                gUnknown_03005428 = .
                0x000000000000542c                . = 0x542c
 *fill*         0x0000000003005428        0x4 
                0x000000000300542c                gUnknown_0300542C = .
                0x0000000000005430                . = 0x5430
 *fill*         0x000000000300542c        0x4 
                0x0000000003005430                gUnknown_03005430 = .
                0x0000000000005434                . = 0x5434
 *fill*         0x0000000003005430        0x4 
                0x0000000003005434                gMultiplayerPseudoRandom = .
                0x0000000000005438                . = 0x5438
 *fill*         0x0000000003005434        0x4 
                0x0000000003005438                gUnknown_03005438 = .
                0x000000000000543c                . = 0x543c
 *fill*         0x0000000003005438        0x4 
                0x000000000300543c                gUnknown_0300543C = .
                0x0000000000005440                . = 0x5440
 *fill*         0x000000000300543c        0x4 
                0x0000000003005440                gUnknown_03005440 = .
                0x0000000000005444                . = 0x5444
 *fill*         0x0000000003005440        0x4 
                0x0000000003005444                gTrappedAnimalVariant = .
                0x0000000000005448                . = 0x5448
 *fill*         0x0000000003005444        0x4 
                0x0000000003005448                gNumLives = .
                0x000000000000544c                . = 0x544c
 *fill*         0x0000000003005448        0x4 
                0x000000000300544c                gUnknown_0300544C = .
                0x0000000000005450                . = 0x5450
 *fill*         0x000000000300544c        0x4 
                0x0000000003005450                gUnknown_03005450 = .
                0x0000000000005460                . = 0x5460
 *fill*         0x0000000003005450       0x10 
                0x0000000003005460                gMultiplayerNames = .
                0x0000000000005490                . = 0x5490
 *fill*         0x0000000003005460       0x30 
                0x0000000003005490                gCourseTime = .
                0x0000000000005498                . = 0x5498
 *fill*         0x0000000003005490        0x8 
                0x0000000003005498                gUnknown_03005498 = .
                0x00000000000054a0                . = 0x54a0
 *fill*         0x0000000003005498        0x8 
                0x00000000030054a0                gUnknown_030054A0 = .
                0x00000000000054a8                . = 0x54a8
 *fill*         0x00000000030054a0        0x8 
                0x00000000030054a8                gUnknown_030054A8 = .
                0x00000000000054b0                . = 0x54b0
 *fill*         0x00000000030054a8        0x8 
                0x00000000030054b0                gUnknown_030054B0 = .
                0x00000000000054b4                . = 0x54b4
 *fill*         0x00000000030054b0        0x4 
                0x00000000030054b4                gUnknown_030054B4 = .
                0x00000000000054b8                . = 0x54b8
 *fill*         0x00000000030054b4        0x4 
                0x00000000030054b8                gUnknown_030054B8 = .
                0x00000000000054bc                . = 0x54bc
 *fill*         0x00000000030054b8        0x4 
                0x00000000030054bc                gUnknown_030054BC = .
                0x00000000000054c0                . = 0x54c0
 *fill*         0x00000000030054bc        0x4 
                0x00000000030054c0                gUnknown_030054C0 = .
                0x00000000000054c8                . = 0x54c8
 *fill*         0x00000000030054c0        0x8 
                0x00000000030054c8                gDemoPlayCounter = .
                0x00000000000054cc                . = 0x54cc
 *fill*         0x00000000030054c8        0x4 
                0x00000000030054cc                gGameMode = .
                0x00000000000054d0                . = 0x54d0
 *fill*         0x00000000030054cc        0x4 
                0x00000000030054d0                gUnknown_030054D0 = .
                0x00000000000054d4                . = 0x54d4
 *fill*         0x00000000030054d0        0x4 
                0x00000000030054d4                gMultiplayerMissingHeartbeats = .
                0x00000000000054d8                . = 0x54d8
 *fill*         0x00000000030054d4        0x4 
                0x00000000030054d8                gMultiplayerUnlockedLevels = .
                0x00000000000054dc                . = 0x54dc
 *fill*         0x00000000030054d8        0x4 
                0x00000000030054dc                gUnknown_030054DC = .
                0x00000000000054e0                . = 0x54e0
 *fill*         0x00000000030054dc        0x4 
                0x00000000030054e0                gUnknown_030054E0 = .
                0x00000000000054e4                . = 0x54e4
 *fill*         0x00000000030054e0        0x4 
                0x00000000030054e4                gUnknown_030054E4 = .
                0x00000000000054e8                . = 0x54e8
 *fill*         0x00000000030054e4        0x4 
                0x00000000030054e8                gRandomItemBox = .
                0x00000000000054ec                . = 0x54ec
 *fill*         0x00000000030054e8        0x4 
                0x00000000030054ec                gUnknown_030054EC = .
                0x00000000000054f0                . = 0x54f0
 *fill*         0x00000000030054ec        0x4 
                0x00000000030054f0                gSelectedCharacter = .
                0x00000000000054f4                . = 0x54f4
 *fill*         0x00000000030054f0        0x4 
                0x00000000030054f4                gUnknown_030054F4 = .
                0x00000000000054f8                . = 0x54f8
 *fill*         0x00000000030054f4        0x4 
                0x00000000030054f8                gUnknown_030054F8 = .
                0x00000000000054fc                . = 0x54fc
 *fill*         0x00000000030054f8        0x4 
                0x00000000030054fc                gUnknown_030054FC = .
                0x0000000000005500                . = 0x5500
 *fill*         0x00000000030054fc        0x4 
                0x0000000003005500                gMultiplayerCharacters = .
                0x0000000000005510                . = 0x5510
 *fill*         0x0000000003005500       0x10 
                0x0000000003005510                gUnknown_03005510 = .
                0x0000000000005590                . = 0x5590
 *fill*         0x0000000003005510       0x80 
                0x0000000003005590                gUnknown_03005590 = .
                0x0000000000005594                . = 0x5594
 *fill*         0x0000000003005590        0x4 
                0x0000000003005594                gMultiplayerUnlockedCharacters = .
                0x00000000000055a0                . = 0x55a0
 *fill*         0x0000000003005594        0xc 
                0x00000000030055a0                gMultiplayerPlayerTasks = .
                0x00000000000055b0                . = 0x55b0
 *fill*         0x00000000030055a0       0x10 
                0x00000000030055b0                gUnknown_030055B0 = .
                0x00000000000055b4                . = 0x55b4
 *fill*         0x00000000030055b0        0x4 
                0x00000000030055b4                gCurrentLevel = .
                0x00000000000055b8                . = 0x55b8
 *fill*         0x00000000030055b4        0x4 
                0x00000000030055b8                gMultiplayerConnections = .
                0x00000000000055bc                . = 0x55bc
 *fill*         0x00000000030055b8        0x4 
                0x00000000030055bc                gUnknown_030055BC = .
                0x00000000000055d0                . = 0x55d0
 *fill*         0x00000000030055bc       0x14 
                0x00000000030055d0                gUnknown_030055D0 = .
                0x00000000000055d4                . = 0x55d4
 *fill*         0x00000000030055d0        0x4 
                0x00000000030055d4                gUnknown_030055D4 = .
                0x00000000000055d8                . = 0x55d8
 *fill*         0x00000000030055d4        0x4 
                0x00000000030055d8                gUnknown_030055D8 = .
                0x00000000000055e0                . = 0x55e0
 *fill*         0x00000000030055d8        0x8 
                0x00000000030055e0                gUnknown_030055E0 = .
                0x0000000000005660                . = 0x5660
 *fill*         0x00000000030055e0       0x80 
                0x0000000003005660                gUnknown_03005660 = .
                0x00000000000056a4                . = 0x56a4
 *fill*         0x0000000003005660       0x44 
                0x00000000030056a4                gUnknown_030056A4 = .
                0x00000000000056b0                . = 0x56b0
 *fill*         0x00000000030056a4        0xc 
                0x00000000030056b0                gUnknown_030056B0 = .
                0x00000000000057b0                . = 0x57b0
 *fill*         0x00000000030056b0      0x100 
                0x00000000030057b0                gUnknown_030057B0 = .
                0x0000000000005830                . = 0x5830
 *fill*         0x00000000030057b0       0x80 
                0x0000000003005830                gUnknown_03005830 = .
                0x0000000000005834                . = 0x5834
 *fill*         0x0000000003005830        0x4 
                0x0000000003005834                gUnknown_03005834 = .
                0x000000000000583c                . = 0x583c
 *fill*         0x0000000003005834        0x8 
                0x000000000300583c                gUnknown_0300583C = .
                0x0000000000005840                . = 0x5840
 *fill*         0x000000000300583c        0x4 
                0x0000000003005840                gUnknown_03005840 = .
                0x0000000000005844                . = 0x5844
 *fill*         0x0000000003005840        0x4 
                0x0000000003005844                gUnknown_03005844 = .
                0x0000000000005848                . = 0x5848
 *fill*         0x0000000003005844        0x4 
                0x0000000003005848                gGameStageTask = .
                0x0000000000005850                . = 0x5850
 *fill*         0x0000000003005848        0x8 
                0x0000000003005850                gUnknown_03005850 = .
                0x0000000000005960                . = 0x5960
 *fill*         0x0000000003005850      0x110 
                0x0000000003005960                gCamera = .
                0x00000000000059c8                . = 0x59c8
 *fill*         0x0000000003005960       0x68 
                0x00000000030059c8                gUnknown_030059C8 = .
                0x00000000000059d0                . = 0x59d0
 *fill*         0x00000000030059c8        0x8 
                0x00000000030059d0                gUnknown_030059D0 = .
                0x00000000000059d8                . = 0x59d8
 *fill*         0x00000000030059d0        0x8 
                0x00000000030059d8                gUnknown_030059D8 = .
                0x00000000000059e0                . = 0x59e0
 *fill*         0x00000000030059d8        0x8 
                0x00000000030059e0                gPlayer = .
                0x0000000000005aa0                . = 0x5aa0
 *fill*         0x00000000030059e0       0xc0 
                0x0000000003005aa0                gUnknown_03005AA0 = .
                0x0000000000005af0                . = 0x5af0
 *fill*         0x0000000003005aa0       0x50 
                0x0000000003005af0                gUnknown_03005AF0 = .
                0x0000000000005afc                . = 0x5afc
 *fill*         0x0000000003005af0        0xc 
                0x0000000003005afc                gUnknown_03005AFC = .
                0x0000000000005b34                . = 0x5b34
 *fill*         0x0000000003005afc       0x38 
                0x0000000003005b34                gUnknown_03005B34 = .
                0x0000000000005b38                . = 0x5b38
 *fill*         0x0000000003005b34        0x4 
                0x0000000003005b38                gPlayerControls = .
                0x0000000000005b40                . = 0x5b40
 *fill*         0x0000000003005b38        0x8 
                0x0000000003005b40                gUnknown_03005B40 = .
                0x0000000000005b44                . = 0x5b44
 *fill*         0x0000000003005b40        0x4 
                0x0000000003005b44                gStageUITask = .
                0x0000000000005b48                . = 0x5b48
 *fill*         0x0000000003005b44        0x4 
                0x0000000003005b48                gDebugUITask = .
                0x0000000000005b4c                . = 0x5b4c
 *fill*         0x0000000003005b48        0x4 
                0x0000000003005b4c                gUnknown_03005B4C = .
                0x0000000000005b50                . = 0x5b50
 *fill*         0x0000000003005b4c        0x4 
 build/sa2/src/game/options_screen.o(.data)
 .data          0x0000000003005b50        0x8 build/sa2/src/game/options_screen.o
                0x0000000003005b50                gProfileScreenNextVramAddress
                0x0000000003005b54                gProfileScreenSubMenuNextVramAddress
 build/sa2/src/game/special_stage/utils.o(.data)
 .data          0x0000000003005b58        0x8 build/sa2/src/game/special_stage/utils.o
                0x0000000003005b58                gUnknown_03005B58
                0x0000000003005b5c                gUnknown_03005B5C
 build/sa2/src/game/save.o(.data)
 .data          0x0000000003005b60        0xc build/sa2/src/game/save.o
                0x0000000003005b60                gLastWrittenSaveGame
                0x0000000003005b64                gLoadedSaveGame
                0x0000000003005b68                gSaveSectorDataBuffer
 build/sa2/src/game/multiboot/collect_rings/time_display.o(.data)
 .data          0x0000000003005b6c        0x4 build/sa2/src/game/multiboot/collect_rings/time_display.o
                0x0000000003005b6c                gUnknown_03005B6C
 build/sa2/src/game/math_0.o(.data)
 .data          0x0000000003005b70        0x8 build/sa2/src/game/math_0.o
                0x0000000003005b70                gRngPrevValue
                0x0000000003005b74                gRngValue
                0x0000000003005b80                . = ALIGN (0x10)
 *fill*         0x0000000003005b78        0x8 
 build/sa2/src/game/backgrounds.o(.data)
 .data          0x0000000003005b80        0x8 build/sa2/src/game/backgrounds.o
                0x0000000003005b80                gUnknown_03005B80
                0x0000000003005b90                . = ALIGN (0x10)
 *fill*         0x0000000003005b88        0x8 
 build/sa2/src/lib/agb_flash.o(.data)
 .data          0x0000000003005b90       0x24 build/sa2/src/lib/agb_flash.o
                0x0000000003005b90                gFlashTimeoutFlag
                0x0000000003005b94                PollFlashStatus
                0x0000000003005b98                WaitForFlashWrite
                0x0000000003005b9c                ProgramFlashSector
                0x0000000003005ba0                gFlash
                0x0000000003005ba4                gFlashNumRemainingBytes
                0x0000000003005ba8                EraseFlashChip
                0x0000000003005bac                EraseFlashSector
                0x0000000003005bb0                gFlashMaxTime
                0x0000000003005bb4                iwram_end = .
                0x0000000008000000                . = 0x8000000

ROM             0x0000000008000000   0xcd6670
 build/sa2/asm/rom_header.o(.text)
 .text          0x0000000008000000       0xc0 build/sa2/asm/rom_header.o
                0x0000000008000004                RomHeaderNintendoLogo
 build/sa2/asm/crt0.o(.text)
 .text          0x00000000080000c0      0x10c build/sa2/asm/crt0.o
                0x00000000080000c0                start_vector
                0x00000000080000fc                IntrMain
 build/sa2/asm/multi_sio_asm.o(.text)
 .text          0x00000000080001cc      0x160 build/sa2/asm/multi_sio_asm.o
                0x00000000080001cc                MultiSioRecvBufChange
                0x000000000800020c                MultiSioIntr
 build/sa2/src/multi_sio.o(.text)
 .text          0x000000000800032c      0x4b4 build/sa2/src/multi_sio.o
                0x000000000800032c                MultiSioInit
                0x0000000008000420                MultiSioMain
                0x0000000008000538                MultiSioSendDataSet
                0x0000000008000608                MultiSioRecvDataCheck
                0x0000000008000774                MultiSioStart
                0x0000000008000790                MultiSioStop
 build/sa2/src/multi_boot.o(.text)
 .text          0x00000000080007e0      0x8dc build/sa2/src/multi_boot.o
                0x00000000080007e0                MultiBootMain
                0x0000000008000d74                MultiBootStartProbe
                0x0000000008000dc8                MultiBootStartMaster
                0x0000000008001024                MultiBootInit
                0x0000000008001060                MultiBootCheckComplete
 build/sa2/src/sio32_multi_load.o(.text)
 .text          0x00000000080010bc      0x348 build/sa2/src/sio32_multi_load.o
                0x00000000080010bc                Sio32MultiLoadMain
                0x00000000080012a0                Sio32MultiLoadIntr
                0x0000000008001368                Sio32MultiLoadInit
 build/sa2/src/core.o(.text)
 .text          0x0000000008001404     0x10ec build/sa2/src/core.o
                0x0000000008001404                GameInit
                0x00000000080018bc                GameLoop
                0x000000000800244c                DummyFunc
 build/sa2/src/main.o(.text)
 .text          0x00000000080024f0       0x14 build/sa2/src/main.o
                0x00000000080024f0                AgbMain
 build/sa2/src/task.o(.text)
 .text          0x0000000008002504      0x538 build/sa2/src/task.o
                0x0000000008002504                TasksInit
                0x00000000080025e4                TaskCreate
                0x0000000008002690                TaskDestroy
                0x0000000008002724                TasksExec
                0x00000000080027f8                IwramMalloc
                0x00000000080029d0                TasksDestroyInPriorityRange
 build/sa2/src/sprite_1.o(.text)
 .text          0x0000000008002a3c       0xe4 build/sa2/src/sprite_1.o
                0x0000000008002a3c                sub_8002A3C
 build/sa2/src/bg_update.o(.text)
 .text          0x0000000008002b20      0xbc0 build/sa2/src/bg_update.o
                0x0000000008002b20                sub_8002B20
                0x0000000008003638                UpdateBgAnimationTiles
 build/sa2/src/animation_commands_extra.o(.text)
 .text          0x00000000080036e0     0x10c0 build/sa2/src/animation_commands_extra.o
                0x00000000080036e0                sub_80036E0
                0x0000000008003800                animCmd_GetTiles_COPY
                0x0000000008003870                animCmd_6_COPY
                0x0000000008003914                sub_8003914
                0x00000000080039e4                sub_80039E4
                0x0000000008003ee4                sub_8003EE4
                0x0000000008004010                sub_8004010
                0x0000000008004274                sub_8004274
                0x0000000008004314                animCmd_GetPalette_COPY
                0x0000000008004380                animCmd_JumpBack_COPY
                0x000000000800438c                animCmd_End_COPY
                0x000000000800439c                animCmd_PlaySoundEffect_COPY
                0x00000000080043b0                animCmd_TranslateSprite_COPY
                0x00000000080043cc                animCmd_8_COPY
                0x00000000080043d8                animCmd_SetIdAndVariant_COPY
                0x00000000080043f8                animCmd_10_COPY
                0x0000000008004400                animCmd_SetSpritePriority_COPY
                0x000000000800440c                animCmd_12_COPY
                0x0000000008004418                sub_8004418
                0x00000000080044d8                sub_80044D8
                0x0000000008004518                sub_8004518
                0x0000000008004558                sub_8004558
                0x0000000008004680                animCmd_GetTiles
                0x00000000080046f0                animCmd_6
 build/sa2/asm/sprite_2.o(.text)
 .text          0x00000000080047a0      0xa48 build/sa2/asm/sprite_2.o
                0x00000000080047a0                sub_80047A0
                0x0000000008004860                sub_8004860
                0x0000000008004abc                sub_8004ABC
                0x0000000008004e14                sub_8004E14
 build/sa2/src/sprite_3.o(.text)
 .text          0x00000000080051e8      0x324 build/sa2/src/sprite_3.o
                0x00000000080051e8                sub_80051E8
 build/sa2/asm/sprite_3.o(.text)
 .text          0x000000000800550c      0x630 build/sa2/asm/sprite_3.o
                0x000000000800550c                sub_800550C
                0x00000000080058b4                sub_80058B4
                0x000000000800594c                DrawToOamBuffer
 build/sa2/src/animation_commands.o(.text)
 .text          0x0000000008005b3c      0x118 build/sa2/src/animation_commands.o
                0x0000000008005c20                animCmd_10
 build/sa2/asm/sprite_4.o(.text)
 .text          0x0000000008005c54     0x1ed8 build/sa2/asm/sprite_4.o
                0x0000000008005c54                sub_8005C54
                0x0000000008005fb4                sub_8005FB4
                0x0000000008006228                sub_8006228
                0x00000000080064a8                sub_80064A8
                0x000000000800672c                sub_800672C
                0x0000000008006db4                sub_8006DB4
                0x000000000800724c                sub_800724C
                0x00000000080075d0                sub_80075D0
                0x0000000008007738                sub_8007738
                0x0000000008007858                sub_8007858
                0x00000000080078d4                sub_80078D4
                0x0000000008007958                sub_8007958
                0x0000000008007a08                sub_8007A08
                0x0000000008007ac0                sub_8007AC0
 build/sa2/src/malloc_ewram.o(.text)
 .text          0x0000000008007b2c       0xe4 build/sa2/src/malloc_ewram.o
                0x0000000008007b2c                EwramInitHeap
                0x0000000008007b40                EwramMalloc
                0x0000000008007ba4                EwramFree
 build/sa2/src/malloc_vram.o(.text)
 .text          0x0000000008007c10      0x110 build/sa2/src/malloc_vram.o
                0x0000000008007c10                VramMalloc
                0x0000000008007cc8                VramResetHeapState
                0x0000000008007cf0                VramFree
 build/sa2/src/input_recorder.o(.text)
 .text          0x0000000008007d20       0xf0 build/sa2/src/input_recorder.o
                0x0000000008007d20                InputRecorderResetRecordHead
                0x0000000008007d2c                InputRecorderResetPlaybackHead
                0x0000000008007d38                InputRecorderLoadTape
                0x0000000008007d8c                InputRecorderRead
                0x0000000008007dbc                InputRecorderWrite
 build/sa2/asm/entities_0.o(.text)
 .text          0x0000000008007e10     0x638c build/sa2/asm/entities_0.o
                0x0000000008007e10                sub_8007E10
                0x0000000008007f1c                sub_8007F1C
                0x0000000008008874                sub_8008874
                0x000000000800888c                sub_800888C
                0x00000000080089cc                sub_80089CC
                0x0000000008008dcc                sub_8008DCC
                0x0000000008009530                sub_8009530
                0x00000000080095e8                TaskDestructor_80095E8
                0x00000000080095fc                sub_80095FC
                0x0000000008009628                sub_8009628
                0x00000000080096b4                sub_80096B4
                0x00000000080096dc                sub_80096DC
                0x0000000008009780                sub_8009780
                0x0000000008009854                sub_8009854
                0x00000000080098c0                sub_80098C0
                0x0000000008009914                nullsub_8002A34_0
                0x0000000008009918                sub_8009918
                0x0000000008009964                sub_8009964
                0x0000000008009dec                sub_8009DEC
                0x0000000008009e00                sub_8009E00
                0x0000000008009eb0                sub_8009EB0
                0x0000000008009f1c                sub_8009F1C
                0x0000000008009f80                sub_8009F80
                0x0000000008009f94                sub_8009F94
                0x000000000800a110                sub_800A110
                0x000000000800a24c                sub_800A24C
                0x000000000800a310                sub_800A310
                0x000000000800a350                sub_800A350
                0x000000000800a388                sub_800A388
                0x000000000800a3d4                sub_800A3D4
                0x000000000800a43c                sub_800A43C
                0x000000000800a4cc                sub_800A4CC
                0x000000000800a510                sub_800A510
                0x000000000800a544                sub_800A544
                0x000000000800a5f8                sub_800A5F8
                0x000000000800a694                sub_800A694
                0x000000000800a6a8                sub_800A6A8
                0x000000000800a744                sub_800A744
                0x000000000800a8e0                sub_800A8E0
                0x000000000800a9b8                sub_800A9B8
                0x000000000800a9fc                sub_800A9FC
                0x000000000800ab08                sub_800AB08
                0x000000000800adac                sub_800ADAC
                0x000000000800ae44                sub_800AE44
                0x000000000800ae58                sub_800AE58
                0x000000000800aea0                sub_800AEA0
                0x000000000800afd0                sub_800AFD0
                0x000000000800b03c                sub_800B03C
                0x000000000800b1ac                sub_800B1AC
                0x000000000800b23c                sub_800B23C
                0x000000000800b580                sub_800B580
                0x000000000800b704                sub_800B704
                0x000000000800b780                sub_800B780
                0x000000000800b7d0                sub_800B7D0
                0x000000000800b80c                sub_800B80C
                0x000000000800b828                sub_800B828
                0x000000000800b860                sub_800B860
                0x000000000800b8ac                sub_800B8AC
                0x000000000800b8f4                sub_800B8F4
                0x000000000800b950                sub_800B950
                0x000000000800b9a0                sub_800B9A0
                0x000000000800b9b8                sub_800B9B8
                0x000000000800ba58                sub_800BA58
                0x000000000800baac                sub_800BAAC
                0x000000000800bb44                sub_800BB44
                0x000000000800bd10                sub_800BD10
                0x000000000800bef8                sub_800BEF8
                0x000000000800bf30                sub_800BF30
                0x000000000800bf74                sub_800BF74
                0x000000000800bfac                sub_800BFAC
                0x000000000800c060                sub_800C060
                0x000000000800c204                sub_800C204
                0x000000000800c320                sub_800C320
                0x000000000800c418                sub_800C418
                0x000000000800c4fc                sub_800C4FC
                0x000000000800c84c                sub_800C84C
                0x000000000800c944                sub_800C944
                0x000000000800ca20                sub_800CA20
                0x000000000800cb18                sub_800CB18
                0x000000000800cba4                sub_800CBA4
                0x000000000800ccb8                sub_800CCB8
                0x000000000800cdbc                sub_800CDBC
                0x000000000800ce94                sub_800CE94
                0x000000000800d0a0                sub_800D0A0
                0x000000000800da4c                sub_800DA4C
                0x000000000800dd54                sub_800DD54
                0x000000000800de44                sub_800DE44
                0x000000000800df38                sub_800DF38
                0x000000000800df8c                sub_800DF8C
                0x000000000800e0c0                sub_800E0C0
                0x000000000800e16c                sub_800E16C
 build/sa2/src/game/interactables_0/spring.o(.text)
 .text          0x000000000800e19c      0x590 build/sa2/src/game/interactables_0/spring.o
                0x000000000800e574                initSprite_Interactable_Spring_Big_DownLeft
                0x000000000800e5a0                initSprite_Interactable_Spring_Normal_Down
                0x000000000800e5cc                initSprite_Interactable_Spring_Big_DownRight
                0x000000000800e5f8                initSprite_Interactable_Spring_Normal_Left
                0x000000000800e624                initSprite_Interactable_Spring_Normal_Right
                0x000000000800e650                initSprite_Interactable_Spring_Big_UpLeft
                0x000000000800e67c                initSprite_Interactable_Spring_Normal_Up
                0x000000000800e6a8                initSprite_Interactable_Spring_Big_UpRight
                0x000000000800e6d4                initSprite_Interactable_Spring_Small_UpLeft
                0x000000000800e700                initSprite_Interactable_Spring_Small_UpRight
 build/sa2/asm/interactable_platform.o(.text)
 .text          0x000000000800e72c      0xa90 build/sa2/asm/interactable_platform.o
                0x000000000800e72c                initSprite_Interactable002
                0x000000000800e89c                sub_800E89C
                0x000000000800eb28                initSprite_Interactable079
                0x000000000800ec58                sub_800EC58
                0x000000000800edf8                sub_800EDF8
                0x000000000800efd0                sub_800EFD0
                0x000000000800f19c                TaskDestructor_800F19C
                0x000000000800f1b0                sub_800F1B0
 build/sa2/asm/interactable_081.o(.text)
 .text          0x000000000800f1bc      0x81c build/sa2/asm/interactable_081.o
                0x000000000800f1bc                initSprite_Interactable081
                0x000000000800f38c                sub_800F38C
                0x000000000800f964                sub_800F964
                0x000000000800f978                sub_800F978
                0x000000000800f990                sub_800F990
                0x000000000800f9ac                sub_800F9AC
 build/sa2/src/game/interactables_0/ramp.o(.text)
 .text          0x000000000800f9d8      0x460 build/sa2/src/game/interactables_0/ramp.o
                0x000000000800f9d8                initSprite_Interactable_Ramp
 build/sa2/src/game/interactables_0/grind_rail.o(.text)
 .text          0x000000000800fe38      0x760 build/sa2/src/game/interactables_0/grind_rail.o
                0x000000000800fe38                Task_GrindRail
                0x0000000008010144                Task_GrindRail_Air
                0x0000000008010334                initSprite_Interactable_GrindRail
                0x00000000080103b4                initSprite_Interactable_GrindRail_Air
                0x0000000008010434                CreateGrindrailAudioTask
                0x0000000008010464                sub_8010464
                0x0000000008010498                initSprite_Interactable_GrindRail_StartAir
                0x00000000080104b8                initSprite_Interactable_GrindRail_End_ForcedJump
                0x00000000080104d8                initSprite_Interactable_GrindRail_Start
                0x00000000080104f8                initSprite_Interactable_GrindRail_EndGround
                0x0000000008010518                initSprite_Interactable_GrindRail_EndAir
                0x0000000008010538                initSprite_Interactable_GrindRail_EndAir_Left
                0x0000000008010558                initSprite_Interactable_GrindRail_EndAlternate
                0x0000000008010578                initSprite_Interactable_GrindRail_EndGround_Left
 build/sa2/src/game/interactables_0/044.o(.text)
 .text          0x0000000008010598      0x150 build/sa2/src/game/interactables_0/044.o
                0x0000000008010598                Task_Interactable_044
                0x0000000008010698                initSprite_Interactable_044
 build/sa2/src/game/interactables_0/clear_pipe.o(.text)
 .text          0x00000000080106e8      0x29c build/sa2/src/game/interactables_0/clear_pipe.o
                0x00000000080108ec                initSprite_Interactable_ClearPipe_Start
                0x0000000008010938                initSprite_Interactable_ClearPipe_End
 build/sa2/src/game/interactables_0/platform_thin.o(.text)
 .text          0x0000000008010984      0x898 build/sa2/src/game/interactables_0/platform_thin.o
                0x0000000008010984                initSprite_Interactable_CommonThinPlatform
 build/sa2/src/game/interactables_0/slidy_ice.o(.text)
 .text          0x000000000801121c      0x10c build/sa2/src/game/interactables_0/slidy_ice.o
                0x000000000801121c                Task_Interactable_IceParadise_SlidyIce
                0x00000000080112dc                initSprite_Interactable_IceParadise_SlidyIce
 build/sa2/asm/entities_1.o(.text)
 .text          0x0000000008011328      0x970 build/sa2/asm/entities_1.o
                0x0000000008011328                sub_8011328
                0x00000000080115d0                sub_80115D0
                0x0000000008011660                sub_8011660
                0x00000000080117f0                sub_80117F0
                0x0000000008011870                sub_8011870
                0x00000000080118fc                sub_80118FC
                0x0000000008011960                sub_8011960
                0x0000000008011a20                sub_8011A20
                0x0000000008011a4c                sub_8011A4C
                0x0000000008011acc                sub_8011ACC
                0x0000000008011b3c                sub_8011B3C
                0x0000000008011b54                sub_8011B54
                0x0000000008011b88                sub_8011B88
 build/sa2/src/game/player_callbacks_0.o(.text)
 .text          0x0000000008011c98     0x2314 build/sa2/src/game/player_callbacks_0.o
                0x0000000008011c98                sub_8011C98
                0x0000000008011d48                sub_8011D48
                0x0000000008011dcc                PlayerCB_8011DCC
                0x0000000008011e88                PlayerCB_8011E88
                0x0000000008011f1c                PlayerCB_8011F1C
                0x0000000008011f94                PlayerCB_8011F94
                0x0000000008012034                Task_8012034
                0x00000000080120c0                sub_80120C0
                0x0000000008012194                sub_8012194
                0x000000000801225c                PlayerCB_801225C
                0x00000000080122dc                sub_80122DC
                0x00000000080123d0                PlayerCB_80123D0
                0x00000000080123fc                PlayerCB_80123FC
                0x0000000008012460                PlayerCB_8012460
                0x0000000008012498                PlayerCB_8012498
                0x00000000080124b8                TaskDestructor_80124B8
                0x00000000080124d0                PlayerCB_80124D0
                0x000000000801251c                sub_801251C
                0x0000000008012548                sub_8012548
                0x00000000080125bc                sub_80125BC
                0x0000000008012644                sub_8012644
                0x00000000080126b0                PlayerCB_80126B0
                0x00000000080127f0                PlayerCB_80127F0
                0x0000000008012830                sub_8012830
                0x0000000008012888                sub_8012888
                0x00000000080128e0                sub_80128E0
                0x0000000008012938                PlayerCB_8012938
                0x0000000008012978                PlayerCB_8012978
                0x00000000080129bc                PlayerCB_80129BC
                0x00000000080129dc                sub_80129DC
                0x0000000008012ad0                sub_8012AD0
                0x0000000008012b44                sub_8012B44
                0x0000000008012bc0                sub_8012BC0
                0x0000000008012c2c                PlayerCB_8012C2C
                0x0000000008012d1c                PlayerCB_8012D1C
                0x0000000008012d3c                sub_8012D3C
                0x0000000008012da4                PlayerCB_8012DA4
                0x0000000008012df8                sub_8012DF8
                0x0000000008012eec                sub_8012EEC
                0x0000000008012f6c                PlayerCB_8012F6C
                0x0000000008013010                PlayerCB_8013010
                0x0000000008013070                sub_8013070
                0x00000000080130e4                PlayerCB_80130E4
                0x0000000008013150                sub_8013150
                0x00000000080131b4                sub_80131B4
                0x0000000008013498                sub_8013498
                0x000000000801350c                sub_801350C
                0x00000000080135bc                sub_80135BC
                0x0000000008013644                sub_8013644
                0x00000000080136e8                sub_80136E8
                0x000000000801394c                sub_801394C
                0x00000000080139b0                sub_80139B0
                0x0000000008013ad8                sub_8013AD8
                0x0000000008013b6c                PlayerCB_8013B6C
                0x0000000008013bb4                PlayerCB_8013BB4
                0x0000000008013bd4                PlayerCB_8013BD4
                0x0000000008013bf0                PlayerCB_8013BF0
                0x0000000008013c18                PlayerCB_8013C18
                0x0000000008013c34                PlayerCB_8013C34
                0x0000000008013c50                sub_8013C50
                0x0000000008013ca0                sub_8013CA0
                0x0000000008013cc0                sub_8013CC0
                0x0000000008013cf4                sub_8013CF4
                0x0000000008013d18                PlayerCB_8013D18
                0x0000000008013d7c                sub_8013D7C
                0x0000000008013da8                PlayerCB_8013DA8
                0x0000000008013dfc                PlayerCB_8013DFC
                0x0000000008013e34                PlayerCB_8013E34
                0x0000000008013e64                PlayerCB_8013E64
                0x0000000008013ee0                sub_8013EE0
                0x0000000008013f04                sub_8013F04
                0x0000000008013f60                PlayerCB_8013F60
 build/sa2/asm/entities_2.o(.text)
 .text          0x0000000008013fac     0x6570 build/sa2/asm/entities_2.o
                0x0000000008013fac                sub_8013FAC
                0x000000000801412c                sub_801412C
                0x000000000801420c                sub_801420C
                0x00000000080142ac                sub_80142AC
                0x0000000008014350                sub_8014350
                0x00000000080144cc                sub_80144CC
                0x00000000080145d8                sub_80145D8
                0x000000000801464c                sub_801464C
                0x0000000008014834                sub_8014834
                0x00000000080148b8                sub_80148B8
                0x00000000080149ec                sub_80149EC
                0x0000000008014a68                sub_8014A68
                0x0000000008014afc                sub_8014AFC
                0x0000000008014bb0                sub_8014BB0
                0x0000000008014c60                sub_8014C60
                0x0000000008014cc8                sub_8014CC8
                0x0000000008014efc                sub_8014EFC
                0x0000000008015118                sub_8015118
                0x00000000080152ec                sub_80152EC
                0x0000000008015360                sub_8015360
                0x0000000008015378                sub_8015378
                0x00000000080153f8                sub_80153F8
                0x0000000008015464                sub_8015464
                0x00000000080154b0                sub_80154B0
                0x0000000008015500                sub_8015500
                0x000000000801555c                sub_801555C
                0x00000000080155d0                sub_80155D0
                0x0000000008015604                sub_8015604
                0x0000000008015618                sub_8015618
                0x000000000801561c                sub_801561C
                0x00000000080156d0                sub_80156D0
                0x0000000008015750                sub_8015750
                0x0000000008015790                sub_8015790
                0x00000000080157c8                sub_80157C8
                0x00000000080157f4                sub_80157F4
                0x000000000801583c                sub_801583C
                0x00000000080159c8                sub_80159C8
                0x0000000008015b50                sub_8015B50
                0x0000000008015b64                sub_8015B64
                0x0000000008015bd4                sub_8015BD4
                0x0000000008015ce4                sub_8015CE4
                0x0000000008015e28                sub_8015E28
                0x0000000008015ff0                sub_8015FF0
                0x0000000008016028                sub_8016028
                0x000000000801623c                sub_801623C
                0x0000000008016d20                sub_8016D20
                0x000000000801707c                sub_801707C
                0x0000000008017670                sub_8017670
                0x0000000008017c28                sub_8017C28
                0x0000000008017f34                sub_8017F34
                0x0000000008018120                sub_8018120
                0x00000000080181e0                sub_80181E0
                0x0000000008018300                sub_8018300
                0x0000000008018760                sub_8018760
                0x0000000008018818                sub_8018818
                0x0000000008018878                sub_8018878
                0x00000000080188a4                sub_80188A4
                0x00000000080188fc                sub_80188FC
                0x0000000008018a28                sub_8018A28
                0x0000000008018ad8                sub_8018AD8
                0x0000000008018e00                sub_8018E00
                0x0000000008019120                sub_8019120
                0x00000000080191a4                sub_80191A4
                0x0000000008019224                sub_8019224
                0x0000000008019240                sub_8019240
                0x00000000080192a8                sub_80192A8
                0x00000000080192fc                sub_80192FC
                0x0000000008019350                sub_8019350
                0x0000000008019368                sub_8019368
                0x00000000080193b8                sub_80193B8
                0x00000000080193c4                sub_80193C4
                0x0000000008019498                sub_8019498
                0x000000000801951c                sub_801951C
                0x0000000008019898                sub_8019898
                0x0000000008019cac                sub_8019CAC
                0x0000000008019cc8                sub_8019CC8
                0x0000000008019ccc                sub_8019CCC
                0x0000000008019e70                sub_8019E70
                0x0000000008019ef4                sub_8019EF4
                0x0000000008019f08                sub_8019F08
                0x000000000801a04c                sub_801A04C
                0x000000000801a0e0                sub_801A0E0
                0x000000000801a384                sub_801A384
                0x000000000801a430                sub_801A430
                0x000000000801a4d8                sub_801A4D8
 build/sa2/src/game/init.o(.text)
 .text          0x000000000801a51c      0x1bc build/sa2/src/game/init.o
                0x000000000801a51c                GameStart
 build/sa2/src/game/game.o(.text)
 .text          0x000000000801a6d8     0x2b74 build/sa2/src/game/game.o
                0x000000000801a6d8                ApplyGameStageSettings
                0x000000000801a770                GameStageStart
                0x000000000801a838                CreateGameStage
                0x000000000801ab3c                sub_801AB3C
                0x000000000801ae48                sub_801AE48
                0x000000000801af14                sub_801AF14
                0x000000000801afa4                sub_801AFA4
                0x000000000801b03c                sub_801B03C
                0x000000000801b0d4                sub_801B0D4
                0x000000000801b180                sub_801B180
                0x000000000801b22c                sub_801B22C
                0x000000000801b324                sub_801B324
                0x000000000801b41c                sub_801B41C
                0x000000000801b4ec                sub_801B4EC
                0x000000000801b5bc                sub_801B5BC
                0x000000000801b68c                sub_801B68C
                0x000000000801b6b4                sub_801B6B4
                0x000000000801b744                sub_801B744
                0x000000000801b7a8                sub_801B7A8
                0x000000000801b7bc                sub_801B7BC
                0x000000000801b83c                sub_801B83C
                0x000000000801b8a8                sub_801B8A8
                0x000000000801b914                sub_801B914
                0x000000000801b980                sub_801B980
                0x000000000801b9ec                sub_801B9EC
                0x000000000801ba58                sub_801BA58
                0x000000000801bac4                sub_801BAC4
                0x000000000801bb30                sub_801BB30
                0x000000000801bb9c                sub_801BB9C
                0x000000000801bc1c                sub_801BC1C
                0x000000000801bc88                sub_801BC88
                0x000000000801bd08                sub_801BD08
                0x000000000801bd74                sub_801BD74
                0x000000000801bde0                sub_801BDE0
                0x000000000801be4c                sub_801BE4C
                0x000000000801beb8                sub_801BEB8
                0x000000000801bf24                sub_801BF24
                0x000000000801bf90                sub_801BF90
                0x000000000801bffc                sub_801BFFC
                0x000000000801c068                sub_801C068
                0x000000000801c394                sub_801C394
                0x000000000801c708                sub_801C708
                0x000000000801c774                sub_801C774
                0x000000000801c818                sub_801C818
                0x000000000801c94c                sub_801C94C
                0x000000000801cb74                sub_801CB74
                0x000000000801cbe8                sub_801CBE8
                0x000000000801cd7c                sub_801CD7C
                0x000000000801cdf0                sub_801CDF0
                0x000000000801cee4                sub_801CEE4
                0x000000000801cf60                sub_801CF60
                0x000000000801d104                sub_801D104
                0x000000000801d1a8                sub_801D1A8
 build/sa2/asm/game.o(.text)
 .text          0x000000000801d24c     0x80cc build/sa2/asm/game.o
                0x000000000801d24c                sub_801D24C
                0x000000000801d534                sub_801D534
                0x000000000801d95c                sub_801D95C
                0x000000000801d9d4                sub_801D9D4
                0x000000000801dd7c                sub_801DD7C
                0x000000000801df08                sub_801DF08
                0x000000000801e028                sub_801E028
                0x000000000801e040                sub_801E040
                0x000000000801e0a8                sub_801E0A8
                0x000000000801e104                sub_801E104
                0x000000000801e118                sub_801E118
                0x000000000801e12c                sub_801E12C
                0x000000000801e130                sub_801E130
                0x000000000801e134                sub_801E134
                0x000000000801e1a4                sub_801E1A4
                0x000000000801e1d0                sub_801E1D0
                0x000000000801e1e4                sub_801E1E4
                0x000000000801e234                sub_801E234
                0x000000000801e26c                sub_801E26C
                0x000000000801e2e0                sub_801E2E0
                0x000000000801e310                sub_801E310
                0x000000000801e360                sub_801E360
                0x000000000801e3f0                sub_801E3F0
                0x000000000801e434                sub_801E434
                0x000000000801e454                sub_801E454
                0x000000000801e494                sub_801E494
                0x000000000801e498                sub_801E498
                0x000000000801e4c4                sub_801E4C4
                0x000000000801e4e4                sub_801E4E4
                0x000000000801e6d4                sub_801E6D4
                0x000000000801eb44                sub_801EB44
                0x000000000801ec3c                sub_801EC3C
                0x000000000801ed24                sub_801ED24
                0x000000000801ee64                sub_801EE64
                0x000000000801ef94                sub_801EF94
                0x000000000801f044                sub_801F044
                0x000000000801f07c                sub_801F07C
                0x000000000801f100                sub_801F100
                0x000000000801f15c                sub_801F15C
                0x000000000801f214                sub_801F214
                0x000000000801f3a4                sub_801F3A4
                0x000000000801f488                sub_801F488
                0x000000000801f550                sub_801F550
                0x000000000801f568                sub_801F568
                0x000000000801f5cc                sub_801F5CC
                0x000000000801f6e0                sub_801F6E0
                0x000000000801f754                sub_801F754
                0x000000000801f78c                sub_801F78C
                0x000000000801f7a8                sub_801F7A8
                0x000000000801f7b4                sub_801F7B4
                0x000000000801f7b8                sub_801F7B8
                0x000000000801f7dc                sub_801F7DC
                0x000000000801f860                sub_801F860
                0x000000000801f9a4                sub_801F9A4
                0x000000000801fae8                sub_801FAE8
                0x000000000801fafc                sub_801FAFC
                0x000000000801fb80                sub_801FB80
                0x000000000801fc18                sub_801FC18
                0x000000000801fc2c                sub_801FC2C
                0x000000000801fd34                sub_801FD34
                0x000000000801fe78                sub_801FE78
                0x00000000080201b8                sub_80201B8
                0x0000000008020514                sub_8020514
                0x0000000008020998                sub_8020998
                0x0000000008020e20                sub_8020E20
                0x0000000008021350                sub_8021350
                0x0000000008021368                sub_8021368
                0x0000000008021388                sub_8021388
                0x00000000080213a8                sub_80213A8
                0x00000000080213b4                sub_80213B4
                0x00000000080213c0                sub_80213C0
                0x0000000008021490                sub_8021490
                0x0000000008021554                sub_8021554
                0x0000000008021604                sub_8021604
                0x0000000008021694                sub_8021694
                0x00000000080218e4                sub_80218E4
                0x000000000802195c                sub_802195C
                0x0000000008021a34                sub_8021A34
                0x0000000008021b08                sub_8021B08
                0x0000000008021be0                sub_8021BE0
                0x0000000008021c4c                sub_8021C4C
                0x0000000008021db8                sub_8021DB8
                0x0000000008021ee4                sub_8021EE4
                0x000000000802203c                sub_802203C
                0x0000000008022190                sub_8022190
                0x0000000008022218                sub_8022218
                0x0000000008022284                sub_8022284
                0x0000000008022318                sub_8022318
                0x00000000080223bc                sub_80223BC
                0x00000000080224dc                sub_80224DC
                0x00000000080225e8                sub_80225E8
                0x0000000008022710                sub_8022710
                0x0000000008022838                sub_8022838
                0x00000000080228c0                sub_80228C0
                0x00000000080229ec                sub_80229EC
                0x0000000008022b18                sub_8022B18
                0x0000000008022c44                sub_8022C44
                0x0000000008022d6c                sub_8022D6C
                0x0000000008022f58                sub_8022F58
                0x000000000802302c                sub_802302C
                0x0000000008023128                sub_8023128
                0x00000000080231c0                sub_80231C0
                0x0000000008023260                sub_8023260
                0x00000000080232d0                sub_80232D0
                0x0000000008023610                sub_8023610
                0x00000000080236c8                sub_80236C8
                0x0000000008023708                sub_8023708
                0x0000000008023748                sub_8023748
                0x0000000008023878                sub_8023878
                0x0000000008023b5c                sub_8023B5C
                0x0000000008023c10                sub_8023C10
                0x0000000008023d08                sub_8023D08
                0x0000000008023e90                sub_8023E90
                0x0000000008023fc0                sub_8023FC0
                0x0000000008024228                sub_8024228
                0x000000000802460c                sub_802460C
                0x00000000080246dc                sub_80246DC
                0x000000000802486c                sub_802486C
                0x0000000008024b10                sub_8024B10
                0x0000000008024f74                sub_8024F74
 build/sa2/src/game/player_callbacks_1.o(.text)
 .text          0x0000000008025318     0x5490 build/sa2/src/game/player_callbacks_1.o
                0x0000000008025318                PlayerCB_8025318
                0x00000000080253c4                PlayerCB_Idle
                0x0000000008025548                PlayerCB_8025548
                0x000000000802569c                PlayerCB_802569C
                0x0000000008025854                PlayerCB_8025854
                0x0000000008025a0c                PlayerCB_8025A0C
                0x0000000008025ab8                PlayerCB_8025AB8
                0x0000000008025d00                PlayerCB_8025D00
                0x0000000008025e18                PlayerCB_8025E18
                0x0000000008025f84                sub_8025F84
                0x0000000008026060                PlayerCB_8026060
                0x000000000802611c                PlayerCB_802611C
                0x00000000080261d8                PlayerCB_80261D8
                0x000000000802631c                PlayerCB_802631C
                0x0000000008026378                PlayerCB_Spindash
                0x000000000802669c                sub_802669C
                0x0000000008026764                PlayerCB_8026764
                0x0000000008026810                PlayerCB_8026810
                0x00000000080269c0                PlayerCB_80269C0
                0x0000000008026a4c                PlayerCB_8026A4C
                0x0000000008026b64                sub_8026B64
                0x0000000008026bcc                PlayerCB_8026BCC
                0x0000000008026d2c                PlayerCB_8026D2C
                0x0000000008026e24                PlayerCB_8026E24
                0x0000000008026f10                PlayerCB_8026F10
                0x0000000008026fc8                PlayerCB_8026FC8
                0x0000000008027040                PlayerCB_8027040
                0x0000000008027114                PlayerCB_8027114
                0x0000000008027190                PlayerCB_8027190
                0x0000000008027250                PlayerCB_8027250
                0x0000000008027324                PlayerCB_8027324
                0x00000000080273d0                PlayerCB_80273D0
                0x00000000080274b8                PlayerCB_GoalSlowdown
                0x0000000008027620                PlayerCB_GoalBrake
                0x000000000802785c                sub_802785C
                0x00000000080278d4                PlayerCB_80278D4
                0x00000000080279f8                PlayerCB_80279F8
                0x0000000008027b98                PlayerCB_8027B98
                0x0000000008027c5c                PlayerCB_8027C5C
                0x0000000008027d3c                PlayerCB_8027D3C
                0x0000000008027ef0                sub_8027EF0
                0x000000000802808c                sub_802808C
                0x0000000008028204                sub_8028204
                0x00000000080282ec                sub_80282EC
                0x00000000080283c4                sub_80283C4
                0x0000000008028478                sub_8028478
                0x0000000008028640                sub_8028640
                0x00000000080286f0                PlayerCB_80286F0
                0x00000000080287ac                PlayerCB_80287AC
                0x000000000802890c                PlayerCB_802890C
                0x0000000008028adc                sub_8028ADC
                0x0000000008028d74                PlayerCB_8028D74
                0x0000000008028e24                PlayerCB_8028E24
                0x0000000008029074                PlayerCB_8029074
                0x0000000008029158                PlayerCB_8029158
                0x0000000008029314                PlayerCB_8029314
                0x000000000802940c                PlayerCB_802940C
                0x00000000080294f4                sub_80294F4
                0x000000000802966c                sub_802966C
                0x000000000802989c                sub_802989C
                0x00000000080298dc                sub_80298DC
                0x0000000008029990                sub_8029990
                0x00000000080299f0                sub_80299F0
                0x00000000080299fc                sub_80299FC
                0x0000000008029a28                sub_8029A28
                0x0000000008029a74                sub_8029A74
                0x0000000008029ac0                sub_8029AC0
                0x0000000008029b0c                sub_8029B0C
                0x0000000008029b58                sub_8029B58
                0x0000000008029b88                sub_8029B88
                0x0000000008029bb8                sub_8029BB8
                0x0000000008029c84                sub_8029C84
                0x0000000008029ca0                sub_8029CA0
                0x0000000008029ce0                sub_8029CE0
                0x0000000008029d14                sub_8029D14
                0x0000000008029d64                PlayerFn_Cmd_UpdatePosition
                0x0000000008029dc8                PlayerFn_Cmd_UpdateAirFallSpeed
                0x0000000008029de8                sub_8029DE8
                0x0000000008029e24                sub_8029E24
                0x0000000008029e6c                sub_8029E6C
                0x0000000008029ed8                sub_8029ED8
                0x0000000008029f20                sub_8029F20
                0x0000000008029f4c                ContinueLevelSongAfterDrowning
                0x0000000008029fa4                sub_8029FA4
                0x0000000008029ff0                Player_SetMovestate_IsInScriptedSequence
                0x000000000802a004                Player_ClearMovestate_IsInScriptedSequence
                0x000000000802a018                sub_802A018
                0x000000000802a050                sub_802A050
                0x000000000802a07c                TaskDestructor_802A07C
                0x000000000802a0c8                sub_802A0C8
                0x000000000802a0fc                sub_802A0FC
                0x000000000802a184                sub_802A184
                0x000000000802a1c8                sub_802A1C8
                0x000000000802a228                PlayerCB_802A228
                0x000000000802a258                PlayerCB_802A258
                0x000000000802a2a8                sub_802A2A8
                0x000000000802a300                PlayerCB_802A300
                0x000000000802a360                sub_802A360
                0x000000000802a3b8                PlayerCB_802A3B8
                0x000000000802a3c4                PlayerCB_802A3C4
                0x000000000802a3f0                PlayerCB_802A3F0
                0x000000000802a40c                sub_802A40C
                0x000000000802a468                sub_802A468
                0x000000000802a4b8                sub_802A4B8
                0x000000000802a4fc                PlayerCB_802A4FC
                0x000000000802a500                sub_802A500
                0x000000000802a52c                sub_802A52C
                0x000000000802a558                sub_802A558
                0x000000000802a58c                sub_802A58C
                0x000000000802a5ac                sub_802A5AC
                0x000000000802a5c4                PlayerCB_802A5C4
                0x000000000802a620                PlayerCB_802A620
                0x000000000802a660                sub_802A660
                0x000000000802a6c0                sub_802A6C0
                0x000000000802a714                PlayerCB_802A714
 build/sa2/asm/game_2.o(.text)
 .text          0x000000000802a7a8     0x223c build/sa2/asm/game_2.o
                0x000000000802a7a8                sub_802A7A8
                0x000000000802a854                sub_802A854
                0x000000000802a8f8                sub_802A8F8
                0x000000000802a9a4                sub_802A9A4
                0x000000000802aa48                sub_802AA48
                0x000000000802ab04                sub_802AB04
                0x000000000802abc8                sub_802ABC8
                0x000000000802ac60                sub_802AC60
                0x000000000802ad60                sub_802AD60
                0x000000000802ae58                sub_802AE58
                0x000000000802ae6c                sub_802AE6C
                0x000000000802af60                sub_802AF60
                0x000000000802b018                sub_802B018
                0x000000000802b118                sub_802B118
                0x000000000802b1ac                sub_802B1AC
                0x000000000802b2d8                sub_802B2D8
                0x000000000802b3bc                sub_802B3BC
                0x000000000802b3ec                sub_802B3EC
                0x000000000802b3fc                sub_802B3FC
                0x000000000802b4f8                sub_802B4F8
                0x000000000802b54c                sub_802B54C
                0x000000000802b584                sub_802B584
                0x000000000802b61c                sub_802B61C
                0x000000000802b62c                sub_802B62C
                0x000000000802b708                sub_802B708
                0x000000000802b81c                sub_802B81C
                0x000000000802b8a8                sub_802B8A8
                0x000000000802ba8c                sub_802BA8C
                0x000000000802bb54                sub_802BB54
                0x000000000802bc10                sub_802BC10
                0x000000000802bccc                sub_802BCCC
                0x000000000802be1c                sub_802BE1C
                0x000000000802bfa8                sub_802BFA8
                0x000000000802c058                sub_802C058
                0x000000000802c358                sub_802C358
                0x000000000802c480                sub_802C480
                0x000000000802c55c                sub_802C55C
                0x000000000802c668                sub_802C668
                0x000000000802c6b4                sub_802C6B4
                0x000000000802c6e4                sub_802C6E4
                0x000000000802c704                sub_802C704
                0x000000000802c750                sub_802C750
                0x000000000802c770                sub_802C770
                0x000000000802c798                sub_802C798
                0x000000000802c7e8                sub_802C7E8
                0x000000000802c828                sub_802C828
                0x000000000802c8a0                sub_802C8A0
                0x000000000802c8ec                sub_802C8EC
                0x000000000802c92c                sub_802C92C
                0x000000000802c988                sub_802C988
                0x000000000802c9b0                sub_802C9B0
                0x000000000802c9e0                sub_802C9E0
 build/sa2/asm/stage_ui.o(.text)
 .text          0x000000000802c9e4      0x8b4 build/sa2/asm/stage_ui.o
                0x000000000802c9e4                sub_802C9E4
                0x000000000802cce0                sub_802CCE0
                0x000000000802d170                sub_802D170
                0x000000000802d25c                sub_802D25C
 build/sa2/src/game/stage_ui.o(.text)
 .text          0x000000000802d298        0x0 build/sa2/src/game/stage_ui.o
 build/sa2/asm/stage_debug_ui.o(.text)
 .text          0x000000000802d298      0x234 build/sa2/asm/stage_debug_ui.o
                0x000000000802d298                sub_802D298
                0x000000000802d348                sub_802D348
                0x000000000802d434                sub_802D434
                0x000000000802d4b4                Task_802D4B4
                0x000000000802d4b8                TaskDestructor_802D4B8
 build/sa2/src/game/screen_transition.o(.text)
 .text          0x000000000802d4cc      0x184 build/sa2/src/game/screen_transition.o
                0x000000000802d4cc                NextTransitionFrame
                0x000000000802d5a0                sub_802D5A0
 build/sa2/src/game/trapped_animals.o(.text)
 .text          0x000000000802d650      0x570 build/sa2/src/game/trapped_animals.o
                0x000000000802db14                CreateTrappedAnimal
 build/sa2/src/game/stage_intro.o(.text)
 .text          0x000000000802dbc0        0x0 build/sa2/src/game/stage_intro.o
 build/sa2/asm/stage_intro.o(.text)
 .text          0x000000000802dbc0     0x291c build/sa2/asm/stage_intro.o
                0x000000000802dbc0                sub_802DBC0
                0x000000000802dcc8                sub_802DCC8
                0x000000000802ddc4                sub_802DDC4
                0x000000000802df18                sub_802DF18
                0x000000000802e044                sub_802E044
                0x000000000802e0d4                sub_802E0D4
                0x000000000802e164                sub_802E164
                0x000000000802e1ec                sub_802E1EC
                0x000000000802e278                sub_802E278
                0x000000000802e384                sub_802E384
                0x000000000802e49c                sub_802E49C
                0x000000000802e784                sub_802E784
                0x000000000802ed98                Task_802ED98
                0x000000000802ee78                Task_802EE78
                0x000000000802ef68                sub_802EF68
                0x000000000802efdc                sub_802EFDC
                0x000000000802f038                sub_802F038
                0x000000000802f06c                Task_802F06C
                0x000000000802f0a8                SetupStageLoadingScreen
                0x000000000802f75c                sub_802F75C
                0x000000000802f9f8                sub_802F9F8
                0x000000000802fd34                sub_802FD34
                0x000000000802fe78                sub_802FE78
                0x000000000802ff94                sub_802FF94
                0x00000000080302ac                sub_80302AC
                0x00000000080303cc                sub_80303CC
                0x0000000008030404                Task_UpdateStageLoadingScreen
                0x0000000008030458                TaskDestructor_nop_8030458
                0x000000000803045c                TaskDestructor_803045C
                0x0000000008030474                TaskDestructor_8030474
                0x0000000008030488                sub_8030488
 build/sa2/asm/stage_outro.o(.text)
 .text          0x00000000080304dc      0xf60 build/sa2/asm/stage_outro.o
                0x00000000080304dc                sub_80304DC
                0x0000000008030a4c                Task_UpdateGotThroughScreen
                0x00000000080310f0                sub_80310F0
                0x0000000008031138                sub_8031138
                0x0000000008031314                sub_8031314
                0x0000000008031370                TaskDestructor_UpdateGotThroughScreen
                0x00000000080313d0                sub_80313D0
 build/sa2/src/game/character_select.o(.text)
 .text          0x000000000803143c     0x328c build/sa2/src/game/character_select.o
                0x000000000803143c                CreateCharacterSelectionScreen
 build/sa2/src/game/course_select.o(.text)
 .text          0x00000000080346c8     0x198c build/sa2/src/game/course_select.o
                0x00000000080346c8                CreateCourseSelectionScreen
 build/sa2/src/game/countdown.o(.text)
 .text          0x0000000008036054      0x61c build/sa2/src/game/countdown.o
                0x0000000008036054                CreateCourseStartCountdown
                0x0000000008036168                sub_8036168
                0x0000000008036398                sub_8036398
                0x0000000008036400                CreateRaceStartMessage
                0x0000000008036524                sub_8036524
                0x0000000008036638                sub_8036638
                0x0000000008036654                sub_8036654
 build/sa2/src/game/game_over.o(.text)
 .text          0x0000000008036670      0x5e4 build/sa2/src/game/game_over.o
                0x0000000008036670                CreateGameOverScreen
                0x00000000080366f0                sub_80366F0
                0x0000000008036780                sub_8036780
                0x0000000008036918                sub_8036918
                0x00000000080369d8                sub_80369D8
                0x0000000008036a44                sub_8036A44
                0x0000000008036b30                sub_8036B30
                0x0000000008036b70                sub_8036B70
                0x0000000008036bd4                sub_8036BD4
                0x0000000008036bec                sub_8036BEC
                0x0000000008036c38                sub_8036C38
 build/sa2/src/game/true_area_53/intro.o(.text)
 .text          0x0000000008036c54     0x2f00 build/sa2/src/game/true_area_53/intro.o
                0x0000000008036c54                CreateTrueArea53Intro
                0x0000000008036e08                CreateOrbitingEmeraldsSequence
                0x0000000008036ef8                sub_8036EF8
                0x0000000008036fe4                sub_8036FE4
                0x00000000080370c0                sub_80370C0
                0x0000000008037254                sub_8037254
                0x00000000080372c8                CreateSuperSonicSpark
                0x00000000080373cc                sub_80373CC
                0x0000000008037438                CreateActor
                0x00000000080375b4                Task_ActorSonicRunIn
                0x0000000008037674                Task_ActorSonicSlowToStop
                0x0000000008037744                sub_8037744
                0x0000000008037818                sub_8037818
                0x00000000080378bc                sub_80378BC
                0x000000000803796c                sub_803796C
                0x0000000008037a38                sub_8037A38
                0x0000000008037b04                sub_8037B04
                0x0000000008037bd0                sub_8037BD0
                0x0000000008037cec                sub_8037CEC
                0x0000000008037e08                sub_8037E08
                0x0000000008037f68                sub_8037F68
                0x00000000080380b0                sub_80380B0
                0x0000000008038168                sub_8038168
                0x0000000008038238                sub_8038238
                0x00000000080382f0                sub_80382F0
                0x00000000080383b8                sub_80383B8
                0x000000000803845c                sub_803845C
                0x0000000008038500                sub_8038500
                0x00000000080385a4                sub_80385A4
                0x0000000008038664                sub_8038664
                0x000000000803872c                sub_803872C
                0x00000000080387f4                sub_80387F4
                0x0000000008038898                sub_8038898
                0x000000000803893c                sub_803893C
                0x00000000080389e0                sub_80389E0
                0x0000000008038aa0                sub_8038AA0
                0x0000000008038b6c                sub_8038B6C
                0x0000000008038c34                sub_8038C34
                0x0000000008038cd8                sub_8038CD8
                0x0000000008038d7c                sub_8038D7C
                0x0000000008038e20                sub_8038E20
                0x0000000008038ee4                sub_8038EE4
                0x0000000008038fbc                sub_8038FBC
                0x0000000008039084                sub_8039084
                0x0000000008039144                sub_8039144
                0x0000000008039208                sub_8039208
                0x00000000080392ac                Task_IntroPanIn
                0x00000000080393a4                sub_80393A4
                0x000000000803959c                IntroRenderSprites
                0x000000000803986c                CreateBackgrounds
                0x000000000803997c                sub_803997C
                0x00000000080399a4                sub_80399A4
                0x00000000080399cc                sub_80399CC
                0x0000000008039a10                sub_8039A10
                0x0000000008039a38                sub_8039A38
                0x0000000008039a4c                CreateSkipHandler
                0x0000000008039a6c                Task_SkipHandlerMain
                0x0000000008039ad4                sub_8039AD4
 build/sa2/asm/true_area_53.o(.text)
 .text          0x0000000008039b54    0x172b0 build/sa2/asm/true_area_53.o
                0x0000000008039b54                sub_8039B54
                0x0000000008039c4c                sub_8039C4C
                0x0000000008039d04                sub_8039D04
                0x0000000008039dfc                sub_8039DFC
                0x0000000008039ea4                sub_8039EA4
                0x0000000008039ed4                sub_8039ED4
                0x0000000008039f14                sub_8039F14
                0x0000000008039f50                sub_8039F50
                0x0000000008039f80                sub_8039F80
                0x0000000008039fa4                sub_8039FA4
                0x000000000803a10c                sub_803A10C
                0x000000000803a164                sub_803A164
                0x000000000803a1d0                sub_803A1D0
                0x000000000803a230                sub_803A230
                0x000000000803a24c                sub_803A24C
                0x000000000803a818                sub_803A818
                0x000000000803a8e4                sub_803A8E4
                0x000000000803aa40                sub_803AA40
                0x000000000803ac2c                sub_803AC2C
                0x000000000803b018                sub_803B018
                0x000000000803b17c                sub_803B17C
                0x000000000803b264                sub_803B264
                0x000000000803b2f8                sub_803B2F8
                0x000000000803b4a0                sub_803B4A0
                0x000000000803b57c                sub_803B57C
                0x000000000803b62c                sub_803B62C
                0x000000000803b6ac                sub_803B6AC
                0x000000000803b7b0                sub_803B7B0
                0x000000000803b84c                sub_803B84C
                0x000000000803bdb8                sub_803BDB8
                0x000000000803c198                sub_803C198
                0x000000000803c80c                sub_803C80C
                0x000000000803c8e4                sub_803C8E4
                0x000000000803c980                sub_803C980
                0x000000000803ca1c                sub_803CA1C
                0x000000000803ca40                sub_803CA40
                0x000000000803cac8                sub_803CAC8
                0x000000000803cb18                sub_803CB18
                0x000000000803cb84                sub_803CB84
                0x000000000803cba4                sub_803CBA4
                0x000000000803cbfc                sub_803CBFC
                0x000000000803cc3c                sub_803CC3C
                0x000000000803cca8                sub_803CCA8
                0x000000000803d088                sub_803D088
                0x000000000803d2c0                sub_803D2C0
                0x000000000803d368                sub_803D368
                0x000000000803d430                sub_803D430
                0x000000000803d640                sub_803D640
                0x000000000803d754                sub_803D754
                0x000000000803d88c                sub_803D88C
                0x000000000803d978                sub_803D978
                0x000000000803da8c                sub_803DA8C
                0x000000000803db1c                sub_803DB1C
                0x000000000803dcf4                sub_803DCF4
                0x000000000803df34                sub_803DF34
                0x000000000803e0d8                sub_803E0D8
                0x000000000803e214                sub_803E214
                0x000000000803e3ec                sub_803E3EC
                0x000000000803e43c                sub_803E43C
                0x000000000803e494                sub_803E494
                0x000000000803e520                sub_803E520
                0x000000000803e5b0                sub_803E5B0
                0x000000000803e63c                sub_803E63C
                0x000000000803e6a8                sub_803E6A8
                0x000000000803e6f0                sub_803E6F0
                0x000000000803e768                sub_803E768
                0x000000000803e798                sub_803E798
                0x000000000803e7d4                sub_803E7D4
                0x000000000803e8dc                sub_803E8DC
                0x000000000803eaf4                sub_803EAF4
                0x000000000803ebbc                sub_803EBBC
                0x000000000803ec84                sub_803EC84
                0x000000000803ec98                sub_803EC98
                0x000000000803f3e8                sub_803F3E8
                0x000000000803f4b8                sub_803F4B8
                0x000000000803f5e0                sub_803F5E0
                0x000000000803f698                sub_803F698
                0x000000000803f878                sub_803F878
                0x000000000803fa84                sub_803FA84
                0x000000000803fb88                sub_803FB88
                0x000000000803fc14                sub_803FC14
                0x000000000803ff44                sub_803FF44
                0x000000000804063c                sub_804063C
                0x00000000080407a4                sub_80407A4
                0x00000000080408c4                sub_80408C4
                0x0000000008040a00                sub_8040A00
                0x0000000008040b30                sub_8040B30
                0x0000000008040d74                sub_8040D74
                0x0000000008040e78                sub_8040E78
                0x0000000008040f14                sub_8040F14
                0x0000000008041028                sub_8041028
                0x00000000080410e0                sub_80410E0
                0x0000000008041138                sub_8041138
                0x00000000080411cc                sub_80411CC
                0x0000000008041238                sub_8041238
                0x000000000804124c                sub_804124C
                0x0000000008041264                sub_8041264
                0x00000000080412b4                sub_80412B4
                0x00000000080412f0                sub_80412F0
                0x0000000008041420                sub_8041420
                0x000000000804156c                sub_804156C
                0x00000000080417a0                sub_80417A0
                0x0000000008041880                sub_8041880
                0x0000000008041a08                sub_8041A08
                0x0000000008041b44                sub_8041B44
                0x0000000008041bf8                sub_8041BF8
                0x0000000008041c48                sub_8041C48
                0x0000000008041d34                sub_8041D34
                0x0000000008042024                sub_8042024
                0x000000000804217c                sub_804217C
                0x00000000080423ec                sub_80423EC
                0x00000000080424ec                sub_80424EC
                0x0000000008042560                sub_8042560
                0x00000000080425f0                sub_80425F0
                0x0000000008042670                sub_8042670
                0x00000000080426c4                sub_80426C4
                0x0000000008042748                sub_8042748
                0x000000000804275c                sub_804275C
                0x0000000008042774                sub_8042774
                0x00000000080427a0                sub_80427A0
                0x00000000080427fc                sub_80427FC
                0x00000000080428d8                sub_80428D8
                0x0000000008042ab0                sub_8042AB0
                0x0000000008042b8c                sub_8042B8C
                0x0000000008042ccc                sub_8042CCC
                0x0000000008042df4                sub_8042DF4
                0x0000000008042e08                sub_8042E08
                0x00000000080434ac                sub_80434AC
                0x000000000804352c                sub_804352C
                0x00000000080435bc                sub_80435BC
                0x00000000080436e4                sub_80436E4
                0x00000000080438c4                sub_80438C4
                0x0000000008043bec                sub_8043BEC
                0x0000000008043d94                sub_8043D94
                0x0000000008043e2c                sub_8043E2C
                0x0000000008043fd0                sub_8043FD0
                0x0000000008044088                sub_8044088
                0x00000000080444dc                sub_80444DC
                0x0000000008044540                sub_8044540
                0x0000000008044784                sub_8044784
                0x0000000008044a14                sub_8044A14
                0x0000000008044b28                sub_8044B28
                0x0000000008044cbc                sub_8044CBC
                0x0000000008044eb0                sub_8044EB0
                0x0000000008044fe4                sub_8044FE4
                0x00000000080451c4                sub_80451C4
                0x00000000080452f8                sub_80452F8
                0x0000000008045368                sub_8045368
                0x00000000080454a4                sub_80454A4
                0x0000000008045564                sub_8045564
                0x0000000008045898                sub_8045898
                0x000000000804598c                sub_804598C
                0x00000000080459a0                sub_80459A0
                0x00000000080459cc                sub_80459CC
                0x00000000080459ec                sub_80459EC
                0x0000000008045e78                sub_8045E78
                0x0000000008045f84                sub_8045F84
                0x0000000008046040                sub_8046040
                0x00000000080460dc                sub_80460DC
                0x0000000008046198                sub_8046198
                0x0000000008046244                sub_8046244
                0x0000000008046328                sub_8046328
                0x000000000804655c                sub_804655C
                0x000000000804683c                sub_804683C
                0x0000000008046c28                sub_8046C28
                0x0000000008046e90                sub_8046E90
                0x0000000008046f00                sub_8046F00
                0x0000000008047060                sub_8047060
                0x0000000008047138                sub_8047138
                0x0000000008047224                sub_8047224
                0x000000000804732c                sub_804732C
                0x00000000080474c0                sub_80474C0
                0x00000000080475d0                sub_80475D0
                0x000000000804766c                sub_804766C
                0x0000000008047700                sub_8047700
                0x00000000080477f0                sub_80477F0
                0x0000000008047868                sub_8047868
                0x000000000804787c                sub_804787C
                0x00000000080478d4                sub_80478D4
                0x0000000008047940                sub_8047940
                0x000000000804797c                sub_804797C
                0x00000000080479f0                sub_80479F0
                0x0000000008047a68                sub_8047A68
                0x0000000008047e28                sub_8047E28
                0x0000000008047f0c                sub_8047F0C
                0x00000000080480e8                sub_80480E8
                0x0000000008048408                sub_8048408
                0x00000000080484c8                sub_80484C8
                0x0000000008048654                sub_8048654
                0x0000000008048858                sub_8048858
                0x000000000804893c                sub_804893C
                0x00000000080489b0                sub_80489B0
                0x0000000008048a4c                sub_8048A4C
                0x0000000008048ad8                sub_8048AD8
                0x0000000008048b50                sub_8048B50
                0x0000000008048bf0                sub_8048BF0
                0x0000000008048c7c                sub_8048C7C
                0x0000000008048d78                sub_8048D78
                0x0000000008048e64                sub_8048E64
                0x0000000008048eb4                sub_8048EB4
                0x0000000008048ed8                sub_8048ED8
                0x0000000008048f44                sub_8048F44
                0x0000000008048f7c                sub_8048F7C
                0x0000000008048fa4                sub_8048FA4
                0x0000000008048ff4                sub_8048FF4
                0x000000000804904c                sub_804904C
                0x000000000804909c                sub_804909C
                0x00000000080490c4                sub_80490C4
                0x000000000804911c                sub_804911C
                0x0000000008049174                sub_8049174
                0x00000000080491c4                sub_80491C4
                0x000000000804920c                sub_804920C
                0x000000000804928c                sub_804928C
                0x00000000080492b8                sub_80492B8
                0x000000000804931c                sub_804931C
                0x0000000008049380                sub_8049380
                0x00000000080493f8                sub_80493F8
                0x00000000080494ec                sub_80494EC
                0x0000000008049658                sub_8049658
                0x00000000080496fc                sub_80496FC
                0x00000000080497e0                sub_80497E0
                0x00000000080498cc                sub_80498CC
                0x00000000080499d8                sub_80499D8
                0x0000000008049d1c                sub_8049D1C
                0x0000000008049d20                sub_8049D20
                0x0000000008049e90                sub_8049E90
                0x0000000008049f1c                sub_8049F1C
                0x000000000804a070                sub_804A070
                0x000000000804a1c0                sub_804A1C0
                0x000000000804a398                sub_804A398
                0x000000000804a53c                sub_804A53C
                0x000000000804a6b4                sub_804A6B4
                0x000000000804a6c8                sub_804A6C8
                0x000000000804a9d8                sub_804A9D8
                0x000000000804ab24                sub_804AB24
                0x000000000804ad68                sub_804AD68
                0x000000000804ae40                sub_804AE40
                0x000000000804b0ec                sub_804B0EC
                0x000000000804b2ec                sub_804B2EC
                0x000000000804b43c                sub_804B43C
                0x000000000804b594                sub_804B594
                0x000000000804b734                sub_804B734
                0x000000000804b984                sub_804B984
                0x000000000804bac0                sub_804BAC0
                0x000000000804bc44                sub_804BC44
                0x000000000804be6c                sub_804BE6C
                0x000000000804c080                sub_804C080
                0x000000000804c240                sub_804C240
                0x000000000804c3ac                sub_804C3AC
                0x000000000804c5b8                sub_804C5B8
                0x000000000804c830                sub_804C830
                0x000000000804c8f4                sub_804C8F4
                0x000000000804c9b4                sub_804C9B4
                0x000000000804ca08                sub_804CA08
                0x000000000804ca70                sub_804CA70
                0x000000000804cbc8                sub_804CBC8
                0x000000000804cc30                sub_804CC30
                0x000000000804cc98                sub_804CC98
                0x000000000804ccd0                sub_804CCD0
                0x000000000804cd0c                sub_804CD0C
                0x000000000804cd50                sub_804CD50
                0x000000000804cec4                sub_804CEC4
                0x000000000804d594                sub_804D594
                0x000000000804d6ac                sub_804D6AC
                0x000000000804d7a0                sub_804D7A0
                0x000000000804d8e0                sub_804D8E0
                0x000000000804d9dc                sub_804D9DC
                0x000000000804db34                sub_804DB34
                0x000000000804dc60                sub_804DC60
                0x000000000804dcf8                sub_804DCF8
                0x000000000804dd9c                sub_804DD9C
                0x000000000804de5c                sub_804DE5C
                0x000000000804deec                sub_804DEEC
                0x000000000804dfb0                sub_804DFB0
                0x000000000804e078                sub_804E078
                0x000000000804e15c                sub_804E15C
                0x000000000804e4cc                sub_804E4CC
                0x000000000804e66c                sub_804E66C
                0x000000000804e74c                sub_804E74C
                0x000000000804e8e8                sub_804E8E8
                0x000000000804e974                sub_804E974
                0x000000000804eb6c                sub_804EB6C
                0x000000000804ec6c                sub_804EC6C
                0x000000000804ecc4                sub_804ECC4
                0x000000000804ed98                sub_804ED98
                0x000000000804ee84                sub_804EE84
                0x000000000804ef68                sub_804EF68
                0x000000000804f010                sub_804F010
                0x000000000804f108                sub_804F108
                0x000000000804f1ec                sub_804F1EC
                0x000000000804f47c                sub_804F47C
                0x000000000804f5bc                sub_804F5BC
                0x000000000804f6ac                sub_804F6AC
                0x000000000804f768                sub_804F768
                0x000000000804f850                sub_804F850
                0x000000000804f9bc                sub_804F9BC
                0x000000000804faa4                sub_804FAA4
                0x000000000804fc10                sub_804FC10
                0x000000000804fd58                sub_804FD58
                0x000000000804fe24                sub_804FE24
                0x000000000804fefc                sub_804FEFC
                0x000000000804ff9c                sub_804FF9C
                0x0000000008050030                sub_8050030
                0x0000000008050104                sub_8050104
                0x00000000080501d4                sub_80501D4
                0x00000000080505b8                sub_80505B8
                0x00000000080508c4                sub_80508C4
                0x0000000008050958                sub_8050958
                0x0000000008050a7c                sub_8050A7C
                0x0000000008050b2c                sub_8050B2C
                0x0000000008050bb0                sub_8050BB0
                0x0000000008050bd8                sub_8050BD8
                0x0000000008050be4                sub_8050BE4
                0x0000000008050bf0                sub_8050BF0
                0x0000000008050bfc                sub_8050BFC
                0x0000000008050c50                sub_8050C50
                0x0000000008050cbc                sub_8050CBC
                0x0000000008050d24                sub_8050D24
                0x0000000008050d9c                sub_8050D9C
                0x0000000008050dc4                sub_8050DC4
                0x0000000008050dc8                sub_8050DC8
                0x0000000008050df8                sub_8050DF8
 build/sa2/asm/enemies_shared.o(.text)
 .text          0x0000000008050e04      0x410 build/sa2/asm/enemies_shared.o
                0x0000000008050e04                sub_8050E04
                0x0000000008050ed8                sub_8050ED8
                0x000000000805102c                sub_805102C
                0x00000000080510b0                sub_80510B0
                0x00000000080511d8                sub_80511D8
                0x00000000080511ec                sub_80511EC
                0x0000000008051200                sub_8051200
 build/sa2/asm/enemy_mon.o(.text)
 .text          0x0000000008051214      0x574 build/sa2/asm/enemy_mon.o
                0x0000000008051214                initSprite_Enemy_Mon
                0x000000000805133c                Task_Enemy_Mon
                0x000000000805146c                sub_805146C
                0x0000000008051550                sub_8051550
                0x0000000008051640                sub_8051640
 build/sa2/asm/enemy_gohla.o(.text)
 .text          0x0000000008051788      0x6b4 build/sa2/asm/enemy_gohla.o
                0x0000000008051788                initSprite_Enemy_Gohla
                0x0000000008051928                sub_8051928
                0x0000000008051af0                sub_8051AF0
                0x0000000008051cb8                sub_8051CB8
                0x0000000008051dc8                sub_8051DC8
                0x0000000008051e20                sub_8051E20
 build/sa2/asm/enemy_kura_kura.o(.text)
 .text          0x0000000008051e3c      0x44c build/sa2/asm/enemy_kura_kura.o
                0x0000000008051e3c                initSprite_Enemy_KuraKura
                0x0000000008052024                sub_8052024
                0x000000000805213c                sub_805213C
                0x0000000008052264                sub_8052264
 build/sa2/asm/enemy_kubinaga.o(.text)
 .text          0x0000000008052288      0xd0c build/sa2/asm/enemy_kubinaga.o
                0x0000000008052288                initSprite_Enemy_Kubinaga
                0x00000000080524d0                sub_80524D0
                0x00000000080526c8                sub_80526C8
                0x00000000080528ac                sub_80528AC
                0x0000000008052aec                sub_8052AEC
                0x0000000008052cc8                sub_8052CC8
                0x0000000008052f70                sub_8052F70
 build/sa2/asm/enemy_buzzer.o(.text)
 .text          0x0000000008052f94      0x7f0 build/sa2/asm/enemy_buzzer.o
                0x0000000008052f94                initSprite_Enemy_Buzzer
                0x00000000080530e0                sub_80530E0
                0x00000000080533b4                sub_80533B4
                0x00000000080534f0                sub_80534F0
                0x0000000008053620                sub_8053620
                0x0000000008053770                sub_8053770
 build/sa2/asm/enemy_kiki.o(.text)
 .text          0x0000000008053784      0x8e4 build/sa2/asm/enemy_kiki.o
                0x0000000008053784                initSprite_Enemy_Kiki
                0x00000000080538a0                sub_80538A0
                0x0000000008053a38                sub_8053A38
                0x0000000008053bbc                sub_8053BBC
                0x0000000008053cc0                sub_8053CC0
                0x0000000008053dcc                sub_8053DCC
                0x0000000008053e64                sub_8053E64
                0x0000000008053f24                sub_8053F24
                0x0000000008054054                sub_8054054
 build/sa2/asm/enemy_koura.o(.text)
 .text          0x0000000008054068      0xa88 build/sa2/asm/enemy_koura.o
                0x0000000008054068                initSprite_Enemy_Koura
                0x0000000008054224                sub_8054224
                0x000000000805462c                sub_805462C
                0x0000000008054904                sub_8054904
 build/sa2/src/game/enemies/bell.o(.text)
 .text          0x0000000008054af0      0x31c build/sa2/src/game/enemies/bell.o
                0x0000000008054af0                initSprite_Enemy_Bell
 build/sa2/asm/enemy_yado.o(.text)
 .text          0x0000000008054e0c      0x6b4 build/sa2/asm/enemy_yado.o
                0x0000000008054e0c                initSprite_Enemy_Yado
                0x0000000008054f00                sub_8054F00
                0x0000000008055084                sub_8055084
                0x0000000008055378                sub_8055378
                0x00000000080554ac                sub_80554AC
 build/sa2/asm/enemy_piko_piko.o(.text)
 .text          0x00000000080554c0      0x330 build/sa2/asm/enemy_piko_piko.o
                0x00000000080554c0                initSprite_Enemy_PikoPiko
                0x000000000805560c                sub_805560C
                0x00000000080557dc                sub_80557DC
 build/sa2/asm/enemy_circus.o(.text)
 .text          0x00000000080557f0      0x6ec build/sa2/asm/enemy_circus.o
                0x00000000080557f0                initSprite_Enemy_Circus
                0x0000000008055950                sub_8055950
                0x0000000008055ab8                sub_8055AB8
                0x0000000008055c0c                sub_8055C0C
                0x0000000008055d7c                sub_8055D7C
                0x0000000008055ec0                sub_8055EC0
 build/sa2/asm/enemy_madillo.o(.text)
 .text          0x0000000008055edc      0x7a8 build/sa2/asm/enemy_madillo.o
                0x0000000008055edc                initSprite_Enemy_Madillo
                0x0000000008056014                sub_8056014
                0x0000000008056230                sub_8056230
                0x00000000080564bc                sub_80564BC
 build/sa2/asm/enemy_straw.o(.text)
 .text          0x0000000008056684      0x574 build/sa2/asm/enemy_straw.o
                0x0000000008056684                initSprite_Enemy_Straw
                0x00000000080567f8                sub_80567F8
                0x0000000008056964                sub_8056964
                0x0000000008056af4                sub_8056AF4
 build/sa2/asm/enemy_hammerhead.o(.text)
 .text          0x0000000008056bf8      0x330 build/sa2/asm/enemy_hammerhead.o
                0x0000000008056bf8                initSprite_Enemy_Hammerhead
                0x0000000008056d08                sub_8056D08
                0x0000000008056edc                sub_8056EDC
                0x0000000008056eec                sub_8056EEC
 build/sa2/src/game/enemies/spinner.o(.text)
 .text          0x0000000008056f28      0x28c build/sa2/src/game/enemies/spinner.o
                0x0000000008056f28                initSprite_Enemy_Spinner
                0x0000000008057024                Task_EnemySpinner
 build/sa2/asm/enemy_mouse.o(.text)
 .text          0x00000000080571b4      0x6a0 build/sa2/asm/enemy_mouse.o
                0x00000000080571b4                initSprite_Enemy_Mouse
                0x0000000008057348                sub_8057348
                0x0000000008057618                sub_8057618
 build/sa2/asm/enemy_pen.o(.text)
 .text          0x0000000008057854      0x530 build/sa2/asm/enemy_pen.o
                0x0000000008057854                initSprite_Enemy_Pen
                0x0000000008057980                sub_8057980
                0x0000000008057bd4                sub_8057BD4
 build/sa2/asm/enemy_geji_geji.o(.text)
 .text          0x0000000008057d84      0x718 build/sa2/asm/enemy_geji_geji.o
                0x0000000008057d84                initSprite_Enemy_GejiGeji
                0x0000000008057f80                sub_8057F80
                0x0000000008058264                sub_8058264
                0x0000000008058480                sub_8058480
 build/sa2/asm/enemy_balloon.o(.text)
 .text          0x000000000805849c      0x484 build/sa2/asm/enemy_balloon.o
                0x000000000805849c                initSprite_Enemy_Balloon
                0x00000000080585dc                sub_80585DC
                0x000000000805879c                sub_805879C
 build/sa2/asm/enemy_flickey.o(.text)
 .text          0x0000000008058920      0xa94 build/sa2/asm/enemy_flickey.o
                0x0000000008058920                initSprite_Enemy_Flickey
                0x0000000008058af4                sub_8058AF4
                0x0000000008058edc                sub_8058EDC
                0x00000000080591fc                sub_80591FC
                0x0000000008059320                sub_8059320
                0x0000000008059398                sub_8059398
 build/sa2/asm/enemy_kyura.o(.text)
 .text          0x00000000080593b4      0x368 build/sa2/asm/enemy_kyura.o
                0x00000000080593b4                initSprite_Enemy_Kyura
                0x00000000080594e0                sub_80594E0
                0x00000000080596c4                sub_80596C4
 build/sa2/asm/enemy_bullet_buzzer.o(.text)
 .text          0x000000000805971c      0x580 build/sa2/asm/enemy_bullet_buzzer.o
                0x000000000805971c                initSprite_Enemy_BulletBuzzer
                0x0000000008059858                sub_8059858
                0x0000000008059b04                sub_8059B04
 build/sa2/asm/enemy_star.o(.text)
 .text          0x0000000008059c9c      0x530 build/sa2/asm/enemy_star.o
                0x0000000008059c9c                initSprite_Enemy_Star
                0x0000000008059d9c                sub_8059D9C
                0x0000000008059ec0                sub_8059EC0
                0x0000000008059fc4                sub_8059FC4
                0x000000000805a0c8                sub_805A0C8
 build/sa2/src/game/multiplayer/mode_select.o(.text)
 .text          0x000000000805a1cc      0x90c build/sa2/src/game/multiplayer/mode_select.o
                0x000000000805a1cc                CreateMultiplayerModeSelectScreen
 build/sa2/src/game/multiplayer/multipak_connection.o(.text)
 .text          0x000000000805aad8      0xf38 build/sa2/src/game/multiplayer/multipak_connection.o
                0x000000000805aad8                StartMultiPakConnect
                0x000000000805b9a4                MultiPakCommunicationError
 build/sa2/src/game/multiplayer/communication_outcome.o(.text)
 .text          0x000000000805ba10      0x3dc build/sa2/src/game/multiplayer/communication_outcome.o
                0x000000000805ba10                CreateMultipackOutcomeScreen
 build/sa2/src/game/multiplayer/results.o(.text)
 .text          0x000000000805bdec      0x9a0 build/sa2/src/game/multiplayer/results.o
                0x000000000805bdec                CreateMultiplayerResultsScreen
 build/sa2/src/game/multiplayer/team_play.o(.text)
 .text          0x000000000805c78c      0xf04 build/sa2/src/game/multiplayer/team_play.o
                0x000000000805c78c                CreateMultiplayerTeamPlayScreen
 build/sa2/src/game/interactables_1/decoration.o(.text)
 .text          0x000000000805d690      0x198 build/sa2/src/game/interactables_1/decoration.o
                0x000000000805d690                initSprite_Interactable_Decoration
                0x000000000805d794                Task_Interactable_Decoration
                0x000000000805d814                TaskDestructor_Interactable_Decoration
 build/sa2/src/game/interactables_1/booster.o(.text)
 .text          0x000000000805d828      0x2ec build/sa2/src/game/interactables_1/booster.o
                0x000000000805d828                initSprite_Interactable_Booster
 build/sa2/src/game/interactables_1/incline_ramp.o(.text)
 .text          0x000000000805db14      0x230 build/sa2/src/game/interactables_1/incline_ramp.o
                0x000000000805dcf4                initSprite_Interactable_InclineRamp
 build/sa2/src/game/interactables_1/spring_bouncy.o(.text)
 .text          0x000000000805dd44      0x3dc build/sa2/src/game/interactables_1/spring_bouncy.o
                0x000000000805dd44                initSprite_Interactable_BouncySpring
 build/sa2/src/game/interactables_1/019.o(.text)
 .text          0x000000000805e120      0x770 build/sa2/src/game/interactables_1/019.o
                0x000000000805e120                initSprite_Interactable_019
 build/sa2/src/game/interactables_1/toggle_player_layer.o(.text)
 .text          0x000000000805e890      0x108 build/sa2/src/game/interactables_1/toggle_player_layer.o
                0x000000000805e94c                initSprite_Interactable_Toggle_PlayerLayer
 build/sa2/src/game/interactables_1/rotating_handle.o(.text)
 .text          0x000000000805e998      0x700 build/sa2/src/game/interactables_1/rotating_handle.o
                0x000000000805e998                initSprite_Interactable_RotatingHandle
 build/sa2/src/game/interactables_1/gapped_loop.o(.text)
 .text          0x000000000805f098      0x580 build/sa2/src/game/interactables_1/gapped_loop.o
                0x000000000805f548                initSprite_Interactable_gappedLoop_Start
                0x000000000805f5b0                initSprite_Interactable_gappedLoop_End
 build/sa2/src/game/interactables_1/spikes.o(.text)
 .text          0x000000000805f618     0x171c build/sa2/src/game/interactables_1/spikes.o
                0x000000000805f618                initSprite_Interactable_Spikes_Up
                0x000000000805f714                initSprite_Interactable_Spikes_Down
                0x000000000805fa70                initSprite_Interactable_Spikes_LeftRight
                0x000000000805fe70                initSprite_Interactable_Spikes_HidingUp
                0x0000000008060034                initSprite_Interactable_Spikes_HidingDown
 build/sa2/src/game/interactables_1/corkscrew.o(.text)
 .text          0x0000000008060d34      0x7b8 build/sa2/src/game/interactables_1/corkscrew.o
                0x0000000008060d34                Task_8060D34
                0x0000000008060ed0                sub_8060ED0
                0x0000000008061088                sub_8061088
                0x0000000008061228                sub_8061228
                0x00000000080613e4                initSprite_Interactable_CorkScrew_Start
                0x0000000008061438                initSprite_Interactable_CorkScrew_End
                0x000000000806148c                sub_806148C
 build/sa2/src/game/interactables_1/bouncy_bar.o(.text)
 .text          0x00000000080614ec      0x428 build/sa2/src/game/interactables_1/bouncy_bar.o
                0x00000000080614ec                initSprite_Interactable_BouncyBar
                0x000000000806160c                sub_806160C
                0x00000000080617a4                sub_80617A4
 build/sa2/asm/interactable_corkscrew_3D.o(.text)
 .text          0x0000000008061914      0xdc8 build/sa2/asm/interactable_corkscrew_3D.o
                0x0000000008061914                sub_8061914
                0x0000000008061ab0                sub_8061AB0
                0x0000000008061c70                sub_8061C70
                0x0000000008061da4                sub_8061DA4
                0x0000000008061f60                sub_8061F60
                0x0000000008062100                sub_8062100
                0x00000000080622c8                sub_80622C8
                0x0000000008062414                sub_8062414
                0x00000000080625d4                initSprite_Interactable_Corkscrew3D_Start
                0x0000000008062628                initSprite_Interactable_Corkscrew3D_End
                0x000000000806267c                sub_806267C
 build/sa2/src/game/interactables_1/stage_goal.o(.text)
 .text          0x00000000080626dc      0x7b4 build/sa2/src/game/interactables_1/stage_goal.o
                0x00000000080626dc                initSprite_Interactable_StageGoal
                0x0000000008062e30                initSprite_Interactable_Toggle_StageGoal
 build/sa2/src/game/interactables_1/checkpoint.o(.text)
 .text          0x0000000008062e90      0x568 build/sa2/src/game/interactables_1/checkpoint.o
                0x0000000008062e90                initSprite_Interactable_Checkpoint
                0x00000000080633a0                initSprite_Interactable_Toggle_Checkpoint
 build/sa2/src/game/interactables_1/windmill.o(.text)
 .text          0x00000000080633f8      0x338 build/sa2/src/game/interactables_1/windmill.o
                0x00000000080633f8                initSprite_InteractableWindmill
 build/sa2/src/game/options_screen.o(.text)
 .text          0x0000000008063730     0x8354 build/sa2/src/game/options_screen.o
                0x0000000008063730                CreateOptionsScreen
                0x00000000080637ec                CreateTimeAttackLevelSelectScreen
                0x0000000008063940                CreateNewProfileScreen
                0x0000000008063a00                CreateNewProfileNameScreen
                0x000000000806a568                sub_806A568
                0x000000000806b854                sub_806B854
 build/sa2/src/game/special_stage/main.o(.text)
 .text          0x000000000806ba84     0x1004 build/sa2/src/game/special_stage/main.o
                0x000000000806ba84                CreateSpecialStage
                0x000000000806bd28                Task_IntroScreenMain
                0x000000000806be40                Task_SpecialStageStartDelay
                0x000000000806be9c                Task_SpecialStageMain
                0x000000000806bfd0                sub_806BFD0
                0x000000000806c050                Task_FadeToResultScreen
                0x000000000806c158                sub_806C158
                0x000000000806c25c                sub_806C25C
                0x000000000806c338                sub_806C338
                0x000000000806c42c                sub_806C42C
                0x000000000806c49c                sub_806C49C
                0x000000000806c560                sub_806C560
                0x000000000806c638                sub_806C638
                0x000000000806c6a4                sub_806C6A4
                0x000000000806c9cc                Task_FadeInSpecialStage
                0x000000000806ca18                sub_806CA18
                0x000000000806ca54                sub_806CA54
 build/sa2/src/game/special_stage/utils.o(.text)
 .text          0x000000000806ca88      0x4f0 build/sa2/src/game/special_stage/utils.o
                0x000000000806ca88                sub_806CA88
                0x000000000806cb84                sub_806CB84
                0x000000000806cd68                sub_806CD68
                0x000000000806cea8                InitSpecialStageScreenVram
                0x000000000806cec4                sub_806CEC4
                0x000000000806cf44                MaxSpriteSize
 build/sa2/src/game/special_stage/player.o(.text)
 .text          0x000000000806cf78      0x918 build/sa2/src/game/special_stage/player.o
                0x000000000806cf78                CreateSpecialStagePlayer
                0x000000000806d2c8                sub_806D2C8
                0x000000000806d388                sub_806D388
                0x000000000806d424                sub_806D424
                0x000000000806d484                sub_806D484
                0x000000000806d4e4                sub_806D4E4
                0x000000000806d548                sub_806D548
                0x000000000806d5cc                sub_806D5CC
                0x000000000806d5d0                sub_806D5D0
                0x000000000806d634                sub_806D634
                0x000000000806d698                sub_806D698
                0x000000000806d6dc                sub_806D6DC
                0x000000000806d740                sub_806D740
                0x000000000806d788                sub_806D788
                0x000000000806d7d0                sub_806D7D0
                0x000000000806d830                sub_806D830
 build/sa2/src/game/special_stage/collectables.o(.text)
 .text          0x000000000806d890      0xe58 build/sa2/src/game/special_stage/collectables.o
                0x000000000806d890                SpecialStageHandleCollectRings
                0x000000000806d924                SpecialStageHandleLoseRings
                0x000000000806d9b4                Task_InitObjects
                0x000000000806db48                sub_806DB48
                0x000000000806dc98                sub_806DC98
                0x000000000806de10                sub_806DE10
                0x000000000806dea4                sub_806DEA4
                0x000000000806e038                sub_806E038
                0x000000000806e1ac                sub_806E1AC
                0x000000000806e4fc                sub_806E4FC
                0x000000000806e584                sub_806E584
                0x000000000806e684                CreateSpecialStageCollectables
 build/sa2/src/game/special_stage/world.o(.text)
 .text          0x000000000806e6e8      0x53c build/sa2/src/game/special_stage/world.o
                0x000000000806e6e8                CreateSpecialStageWorld
                0x000000000806e7c0                sub_806E7C0
                0x000000000806e94c                sub_806E94C
                0x000000000806ea04                sub_806EA04
                0x000000000806eb74                sub_806EB74
                0x000000000806ebf4                sub_806EBF4
 build/sa2/src/game/special_stage/physics.o(.text)
 .text          0x000000000806ec24      0xee0 build/sa2/src/game/special_stage/physics.o
                0x000000000806edb4                HandleMovementControls
                0x000000000806ef44                HandleRotationControls
                0x000000000806efb4                sub_806EFB4
                0x000000000806f034                sub_806F034
                0x000000000806f0c4                sub_806F0C4
                0x000000000806f154                sub_806F154
                0x000000000806f1e8                sub_806F1E8
                0x000000000806f300                sub_806F300
                0x000000000806f36c                sub_806F36C
                0x000000000806f3c4                sub_806F3C4
                0x000000000806f468                sub_806F468
                0x000000000806f604                HandleBoost2
                0x000000000806f84c                sub_806F84C
                0x000000000806f910                CreateSpecialStagePhysics
                0x000000000806f944                sub_806F944
                0x000000000806f9cc                sub_806F9CC
                0x000000000806f9e4                sub_806F9E4
                0x000000000806faa0                sub_806FAA0
                0x000000000806fb00                sub_806FB00
 build/sa2/src/game/special_stage/ui.o(.text)
 .text          0x000000000806fb04     0x13f8 build/sa2/src/game/special_stage/ui.o
                0x000000000806fb04                sub_806FB04
                0x000000000806fcf8                sub_806FCF8
                0x000000000806ffc8                sub_806FFC8
                0x0000000008070078                sub_8070078
                0x0000000008070590                Task_ResultsScreenSequencePart1
                0x000000000807061c                sub_807061C
                0x0000000008070680                sub_8070680
                0x00000000080706d8                sub_80706D8
                0x0000000008070740                sub_8070740
                0x00000000080707a8                sub_80707A8
                0x0000000008070814                Task_ResultsScreenNewEmeraldSequencePart1
                0x0000000008070b90                CreateSpecialStageUI
                0x0000000008070bec                sub_8070BEC
                0x0000000008070bf0                CreateSpecialStageResultsScreen
                0x0000000008070c2c                SpecialStageResultsScreenOnDestroy
                0x0000000008070c30                SpecialStageResultsScreenNewEmeraldSequence
                0x0000000008070c58                sub_8070C58
                0x0000000008070d14                sub_8070D14
                0x0000000008070d80                sub_8070D80
                0x0000000008070dd0                sub_8070DD0
                0x0000000008070de0                sub_8070DE0
                0x0000000008070ee4                Task_ResultsScreenNewEmeraldSequencePart2
                0x0000000008070ef0                Task_ResultsScreenSequencePart2
 build/sa2/src/game/special_stage/guard_robo.o(.text)
 .text          0x0000000008070efc      0x694 build/sa2/src/game/special_stage/guard_robo.o
                0x0000000008070fa0                Task_GuardRoboMain
                0x00000000080710b0                sub_80710B0
                0x000000000807120c                sub_807120C
                0x0000000008071380                sub_8071380
                0x0000000008071438                CreateSpecialStageGuardRobo
                0x0000000008071478                sub_8071478
                0x00000000080714c4                sub_80714C4
                0x00000000080714c8                sub_80714C8
                0x00000000080714f4                sub_80714F4
 build/sa2/src/game/save.o(.text)
 .text          0x0000000008071590     0x1024 build/sa2/src/game/save.o
                0x0000000008071590                InsertMultiplayerProfile
                0x00000000080716f0                RecordOwnMultiplayerResult
                0x000000000807174c                RecordMultiplayerResult
                0x00000000080723c4                SaveInit
                0x000000000807241c                SaveGameExists
                0x0000000008072474                LoadSaveGame
                0x0000000008072484                WriteSaveGame
                0x00000000080724b0                NewSaveGame
                0x00000000080724c0                LoadCompletedSaveGame
 build/sa2/src/game/interactables_2/hot_crater/wind_up_stick.o(.text)
 .text          0x00000000080725b4      0x524 build/sa2/src/game/interactables_2/hot_crater/wind_up_stick.o
                0x00000000080725b4                initSprite_Interactable_WindUpStick
 build/sa2/src/game/interactables_2/hot_crater/hook_rail.o(.text)
 .text          0x0000000008072ad8      0x89c build/sa2/src/game/interactables_2/hot_crater/hook_rail.o
                0x0000000008072ad8                initSprite_Interactable_HookRail
                0x000000000807329c                initSprite_Interactable048
                0x00000000080732c8                initSprite_Interactable_HookRail_Start
                0x00000000080732f4                initSprite_Interactable_HookRail_End
 build/sa2/src/game/interactables_2/hot_crater/turn_around_bar.o(.text)
 .text          0x0000000008073374      0x500 build/sa2/src/game/interactables_2/hot_crater/turn_around_bar.o
                0x0000000008073374                initSprite_InteractableTurnAroundBar
 build/sa2/src/game/interactables_2/hot_crater/crane.o(.text)
 .text          0x0000000008073874      0xdb8 build/sa2/src/game/interactables_2/hot_crater/crane.o
                0x0000000008073874                initSprite_Interactable_HotCrater_Crane
 build/sa2/src/game/interactables_2/hot_crater/dash_ring.o(.text)
 .text          0x000000000807462c      0x688 build/sa2/src/game/interactables_2/hot_crater/dash_ring.o
                0x000000000807462c                initSprite_Interactable_DashRing
 build/sa2/src/game/interactables_2/hot_crater/floating_spring.o(.text)
 .text          0x0000000008074cb4      0x6bc build/sa2/src/game/interactables_2/hot_crater/floating_spring.o
                0x0000000008074cb4                initSprite_Interactable_FloatingSpring_Up
 build/sa2/src/game/interactables_2/music_plant/note_sphere.o(.text)
 .text          0x0000000008075370      0x5cc build/sa2/src/game/interactables_2/music_plant/note_sphere.o
                0x0000000008075370                initSprite_Interactable_MusicPlant_Note_Sphere
 build/sa2/src/game/interactables_2/music_plant/note_block.o(.text)
 .text          0x000000000807593c      0x4c4 build/sa2/src/game/interactables_2/music_plant/note_block.o
                0x000000000807593c                initSprite_Interactable_MusicPlant_Note_Block
                0x0000000008075a90                Task_8075A90
                0x0000000008075b50                sub_8075B50
 build/sa2/src/game/interactables_2/music_plant/guitar_string.o(.text)
 .text          0x0000000008075e00      0x568 build/sa2/src/game/interactables_2/music_plant/guitar_string.o
                0x0000000008075e00                initSprite_Interactable_MusicPlant_GuitarString
                0x0000000008075f58                sub_8075F58
                0x0000000008076000                sub_8076000
                0x000000000807608c                sub_807608C
                0x0000000008076114                sub_8076114
                0x000000000807618c                sub_807618C
                0x0000000008076204                Task_Interactable_MusicPlant_GuitarString
                0x0000000008076254                TaskDestructor_Interactable_MusicPlant_GuitarString
                0x0000000008076258                sub_8076258
                0x00000000080762a8                sub_80762A8
                0x00000000080762bc                sub_80762BC
                0x00000000080762e0                sub_80762E0
                0x0000000008076320                sub_8076320
 build/sa2/src/game/interactables_2/music_plant/keyboard.o(.text)
 .text          0x0000000008076368      0x5c0 build/sa2/src/game/interactables_2/music_plant/keyboard.o
                0x0000000008076368                initSprite_Interactable_MusicPlant_Keyboard
                0x00000000080768c8                initSprite_Interactable_MusicPlant_Keyboard_Vertical
                0x00000000080768e8                initSprite_Interactable_MusicPlant_Keyboard_Horizontal_PushLeft
                0x0000000008076908                initSprite_Interactable_MusicPlant_Keyboard_Horizontal_PushRight
 build/sa2/src/game/interactables_2/music_plant/german_flute.o(.text)
 .text          0x0000000008076928      0x5e4 build/sa2/src/game/interactables_2/music_plant/german_flute.o
                0x0000000008076d2c                initSprite_Interactable_MusicPlant_GermanFlute
 build/sa2/src/game/interactables_2/music_plant/handlers_ia_pipe_horn.o(.text)
 .text          0x0000000008076f0c      0x868 build/sa2/src/game/interactables_2/music_plant/handlers_ia_pipe_horn.o
                0x0000000008076f0c                Handler_MusicPlant_Pipe_0
                0x0000000008076f98                Handler_MusicPlant_Pipe_1
                0x0000000008077058                Handler_MusicPlant_Pipe_2
                0x0000000008077118                Handler_MusicPlant_Pipe_3
                0x00000000080771d8                Handler_MusicPlant_Pipe_4
                0x00000000080772a0                Handler_MusicPlant_Pipe_5
                0x0000000008077364                Handler_MusicPlant_Pipe_6
                0x000000000807742c                Handler_MusicPlant_Pipe_7
                0x00000000080774f4                Handler_MusicPlant_Pipe_8
                0x00000000080775b8                Handler_MusicPlant_Pipe_9
                0x00000000080776b0                Handler_MusicPlant_Pipe_10
 build/sa2/src/game/interactables_2/music_plant/pipe_horn.o(.text)
 .text          0x0000000008077774      0x630 build/sa2/src/game/interactables_2/music_plant/pipe_horn.o
                0x0000000008077774                sub_8077774
                0x0000000008077788                sub_8077788
                0x00000000080777c8                sub_80777C8
                0x0000000008077840                sub_8077840
                0x00000000080778ac                sub_80778AC
                0x00000000080778e4                sub_80778E4
                0x000000000807794c                sub_807794C
                0x0000000008077994                sub_8077994
                0x00000000080779b0                initSprite_Interactable_MusicPlant_PipeInstrument_Entry
                0x0000000008077a3c                sub_8077A3C
                0x0000000008077aac                sub_8077AAC
                0x0000000008077abc                sub_8077ABC
                0x0000000008077b98                sub_8077B98
                0x0000000008077c04                Task_FrenchHorn_8077C04
                0x0000000008077c3c                sub_8077C3C
                0x0000000008077ca0                sub_8077CA0
                0x0000000008077cb0                sub_8077CB0
                0x0000000008077cf8                FrenchHorn_Despawn
                0x0000000008077d14                initSprite_Interactable_MusicPlant_FrenchHorn_Entry
                0x0000000008077da0                TaskDestructor_FrenchHorn
 build/sa2/src/game/interactables_2/ice_paradise/slowing_snow.o(.text)
 .text          0x0000000008077da4      0x1d8 build/sa2/src/game/interactables_2/ice_paradise/slowing_snow.o
                0x0000000008077da4                initSprite_Interactable_IceParadise_SlowingSnow
 build/sa2/src/game/interactables_2/ice_paradise/funnel_sphere.o(.text)
 .text          0x0000000008077f7c      0x710 build/sa2/src/game/interactables_2/ice_paradise/funnel_sphere.o
                0x00000000080785b0                initSprite_Interactable_IceParadise_FunnelSphere
 build/sa2/src/game/interactables_2/ice_paradise/half_pipe.o(.text)
 .text          0x000000000807868c      0x490 build/sa2/src/game/interactables_2/ice_paradise/half_pipe.o
                0x0000000008078adc                initSprite_Interactable_IceParadise_HalfPipe_End
                0x0000000008078afc                initSprite_Interactable_IceParadise_HalfPipe_Start
 build/sa2/src/game/interactables_2/ice_paradise/069.o(.text)
 .text          0x0000000008078b1c      0xda8 build/sa2/src/game/interactables_2/ice_paradise/069.o
                0x0000000008078b1c                initSprite_Interactable069
                0x0000000008078e48                sub_8078E48
                0x00000000080791b4                sub_80791B4
                0x00000000080792ac                sub_80792AC
                0x0000000008079510                sub_8079510
                0x0000000008079560                sub_8079560
                0x0000000008079624                sub_8079624
                0x00000000080796a8                sub_80796A8
                0x000000000807974c                Task_Interactable069
                0x0000000008079794                TaskDestructor_Interactable069
                0x00000000080797ac                sub_80797AC
                0x00000000080797e8                sub_80797E8
                0x0000000008079810                sub_8079810
                0x0000000008079888                sub_8079888
 build/sa2/src/game/interactables_2/tec_base/note_block.o(.text)
 .text          0x00000000080798c4      0x4f0 build/sa2/src/game/interactables_2/tec_base/note_block.o
                0x00000000080798c4                initSprite_InteractableTecBaseNoteBlock
 build/sa2/src/game/interactables_2/tec_base/light_bridge.o(.text)
 .text          0x0000000008079db4      0x588 build/sa2/src/game/interactables_2/tec_base/light_bridge.o
                0x0000000008079db4                initSprite_InteractableTecBaseLightBridge
 build/sa2/src/game/interactables_2/tec_base/075.o(.text)
 .text          0x000000000807a33c      0x8c8 build/sa2/src/game/interactables_2/tec_base/075.o
                0x000000000807aba4                initSprite_Interactable075_0
                0x000000000807abc4                initSprite_Interactable075_1
                0x000000000807abe4                initSprite_Interactable075_2
 build/sa2/src/game/interactables_2/tec_base/078.o(.text)
 .text          0x000000000807ac04      0x484 build/sa2/src/game/interactables_2/tec_base/078.o
                0x000000000807ac04                initSprite_Interactable078
 build/sa2/src/game/interactables_2/tec_base/080.o(.text)
 .text          0x000000000807b088      0x35c build/sa2/src/game/interactables_2/tec_base/080.o
                0x000000000807b088                initSprite_Interactable080
 build/sa2/src/game/interactables_2/sky_canyon/giant_propeller.o(.text)
 .text          0x000000000807b3e4      0x734 build/sa2/src/game/interactables_2/sky_canyon/giant_propeller.o
                0x000000000807b828                IsPlayerInteracting
                0x000000000807ba54                sub_807BA54
                0x000000000807ba98                initSprite_Interactable_SkyCanyon_GiantPropeller
 build/sa2/src/game/interactables_2/sky_canyon/small_windmill.o(.text)
 .text          0x000000000807bb18      0x75c build/sa2/src/game/interactables_2/sky_canyon/small_windmill.o
                0x000000000807bb18                initSprite_Interactable_SkyCanyon_SmallSpinnyWindmill
 build/sa2/src/game/interactables_2/sky_canyon/085.o(.text)
 .text          0x000000000807c274      0x544 build/sa2/src/game/interactables_2/sky_canyon/085.o
                0x000000000807c63c                initSprite_Interactable085
 build/sa2/src/game/interactables_2/sky_canyon/whirlwind.o(.text)
 .text          0x000000000807c7b8      0xb3c build/sa2/src/game/interactables_2/sky_canyon/whirlwind.o
                0x000000000807c7b8                initSprite_Interactable_SkyCanyon_Whirlwind
                0x000000000807c9c0                sub_807C9C0
                0x000000000807ca64                sub_807CA64
                0x000000000807cb78                sub_807CB78
                0x000000000807cc28                sub_807CC28
                0x000000000807ccbc                sub_807CCBC
                0x000000000807ce94                sub_807CE94
                0x000000000807cf2c                sub_807CF2C
                0x000000000807cfb4                sub_807CFB4
                0x000000000807d0c4                Task_807D0C4
                0x000000000807d118                TaskDestructor_Interactable086
                0x000000000807d130                sub_807D130
                0x000000000807d16c                sub_807D16C
                0x000000000807d188                sub_807D188
                0x000000000807d1bc                sub_807D1BC
                0x000000000807d228                initSprite_Interactable_SkyCanyon_Whirlwind_0
                0x000000000807d248                initSprite_Interactable_SkyCanyon_Whirlwind_1
                0x000000000807d268                Task_807D268
                0x000000000807d2bc                sub_807D2BC
 build/sa2/asm/interactable_087.o(.text)
 .text          0x000000000807d2f4      0x6d4 build/sa2/asm/interactable_087.o
                0x000000000807d2f4                initSprite_Interactable087
                0x000000000807d468                sub_807D468
                0x000000000807d5cc                sub_807D5CC
                0x000000000807d6a8                sub_807D6A8
                0x000000000807d6fc                sub_807D6FC
                0x000000000807d7b0                Task_Interactable087
                0x000000000807d7f8                TaskDestructor_Interactable087
                0x000000000807d80c                sub_807D80C
                0x000000000807d820                sub_807D820
                0x000000000807d86c                sub_807D86C
                0x000000000807d8e0                sub_807D8E0
                0x000000000807d8f8                initSprite_Interactable087_0
                0x000000000807d918                initSprite_Interactable087_1
                0x000000000807d938                initSprite_Interactable087_2
                0x000000000807d958                initSprite_Interactable087_3
                0x000000000807d978                Task_807D978
                0x000000000807d9b4                sub_807D9B4
 build/sa2/asm/interactable_091.o(.text)
 .text          0x000000000807d9c8      0x858 build/sa2/asm/interactable_091.o
                0x000000000807d9c8                initSprite_Interactable091
                0x000000000807dbf0                sub_807DBF0
                0x000000000807dc80                sub_807DC80
                0x000000000807dd04                sub_807DD04
                0x000000000807dda0                sub_807DDA0
                0x000000000807ddf0                sub_807DDF0
                0x000000000807de98                Task_807DE98
                0x000000000807deec                sub_807DEEC
                0x000000000807df38                sub_807DF38
                0x000000000807df4c                sub_807DF4C
                0x000000000807df60                sub_807DF60
                0x000000000807dfbc                sub_807DFBC
                0x000000000807e044                sub_807E044
                0x000000000807e0b8                sub_807E0B8
                0x000000000807e0d0                sub_807E0D0
                0x000000000807e0ec                initSprite_Interactable091_0
                0x000000000807e10c                initSprite_Interactable091_1
                0x000000000807e12c                initSprite_Interactable091_2
                0x000000000807e14c                initSprite_Interactable091_3
                0x000000000807e16c                sub_807E16C
                0x000000000807e1b0                sub_807E1B0
                0x000000000807e1c4                sub_807E1C4
 build/sa2/asm/interactable_093.o(.text)
 .text          0x000000000807e220      0x790 build/sa2/asm/interactable_093.o
                0x000000000807e220                initSprite_Interactable093
                0x000000000807e314                sub_807E314
                0x000000000807e384                sub_807E384
                0x000000000807e408                sub_807E408
                0x000000000807e4e4                sub_807E4E4
                0x000000000807e56c                sub_807E56C
                0x000000000807e5f0                sub_807E5F0
                0x000000000807e66c                sub_807E66C
                0x000000000807e770                Task_Interactable093
                0x000000000807e7b0                sub_807E7B0
                0x000000000807e7f8                sub_807E7F8
                0x000000000807e830                TaskDestructor_Interactable093
                0x000000000807e834                sub_807E834
                0x000000000807e86c                sub_807E86C
                0x000000000807e884                sub_807E884
                0x000000000807e898                sub_807E898
                0x000000000807e8e0                sub_807E8E0
                0x000000000807e8fc                sub_807E8FC
                0x000000000807e940                sub_807E940
                0x000000000807e954                sub_807E954
 build/sa2/src/game/interactables_2/sky_canyon/094.o(.text)
 .text          0x000000000807e9b0      0x488 build/sa2/src/game/interactables_2/sky_canyon/094.o
                0x000000000807e9b0                initSprite_Interactable094
 build/sa2/src/game/interactables_2/sky_canyon/095.o(.text)
 .text          0x000000000807ee38      0x394 build/sa2/src/game/interactables_2/sky_canyon/095.o
                0x000000000807ee38                initSprite_Interactable095
 build/sa2/src/game/interactables_2/sky_canyon/flying_handle.o(.text)
 .text          0x000000000807f1cc      0x710 build/sa2/src/game/interactables_2/sky_canyon/flying_handle.o
                0x000000000807f1cc                initSprite_Interactable_SkyCanyon_FlyingHandle
 build/sa2/src/game/interactables_2/egg_utopia/speeding_platform.o(.text)
 .text          0x000000000807f8dc      0x730 build/sa2/src/game/interactables_2/egg_utopia/speeding_platform.o
                0x000000000807f8dc                initSprite_InteractableSpeedingPlatform
 build/sa2/src/game/interactables_2/egg_utopia/gravity_toggle.o(.text)
 .text          0x000000000808000c      0x35c build/sa2/src/game/interactables_2/egg_utopia/gravity_toggle.o
                0x00000000080800d4                sub_80800D4
                0x000000000808017c                sub_808017C
                0x00000000080802b8                initSprite_Interactable_Toggle_Gravity__Down
                0x00000000080802d8                initSprite_Interactable_Toggle_Gravity__Up
                0x00000000080802f8                initSprite_Interactable_Toggle_Gravity__Toggle
 build/sa2/src/game/interactables_2/notification_ring_bonus.o(.text)
 .text          0x0000000008080368      0x464 build/sa2/src/game/interactables_2/notification_ring_bonus.o
                0x0000000008080368                initSprite_8080368
                0x00000000080803fc                sub_80803FC
                0x000000000808055c                sub_808055C
                0x00000000080805d0                sub_80805D0
                0x0000000008080664                CreateSprite_Notif_RingBonus
                0x00000000080806f4                Task_80806F4
                0x000000000808073c                sub_808073C
 build/sa2/src/game/interactables_2/sky_canyon_init.o(.text)
 .text          0x00000000080807cc      0x154 build/sa2/src/game/interactables_2/sky_canyon_init.o
                0x00000000080807cc                sub_80807CC
 build/sa2/src/game/interactables_2/105.o(.text)
 .text          0x0000000008080920      0x1dc build/sa2/src/game/interactables_2/105.o
                0x0000000008080920                initSprite_Interactable105
 build/sa2/src/game/interactables_2/note_particle.o(.text)
 .text          0x0000000008080afc      0x42c build/sa2/src/game/interactables_2/note_particle.o
                0x0000000008080afc                sub_8080AFC
                0x0000000008080c78                sub_8080C78
 build/sa2/src/game/interactables_2/special_ring.o(.text)
 .text          0x0000000008080f28      0x2d8 build/sa2/src/game/interactables_2/special_ring.o
                0x0000000008080f28                initSprite_Interactable_SpecialRing
 build/sa2/src/game/multiboot/connection.o(.text)
 .text          0x0000000008081200      0xcc0 build/sa2/src/game/multiboot/connection.o
                0x0000000008081200                sub_8081200
                0x000000000808129c                StartSinglePakConnect
                0x0000000008081604                sub_8081604
                0x00000000080818b8                sub_80818B8
                0x0000000008081a5c                sub_8081A5C
                0x0000000008081ad4                sub_8081AD4
                0x0000000008081c0c                sub_8081C0C
                0x0000000008081c50                sub_8081C50
                0x0000000008081c8c                sub_8081C8C
                0x0000000008081cc4                sub_8081CC4
                0x0000000008081d04                sub_8081D04
                0x0000000008081d58                sub_8081D58
                0x0000000008081d70                sub_8081D70
                0x0000000008081db4                sub_8081DB4
                0x0000000008081df0                sub_8081DF0
                0x0000000008081e38                sub_8081E38
                0x0000000008081e90                sub_8081E90
 build/sa2/src/game/multiboot/collect_rings/results.o(.text)
 .text          0x0000000008081ec0      0xe84 build/sa2/src/game/multiboot/collect_rings/results.o
                0x0000000008081ec0                CreateMultiplayerSinglePakResultsScreen
                0x0000000008081fb0                sub_8081FB0
                0x0000000008082038                sub_8082038
                0x000000000808207c                sub_808207C
                0x00000000080823fc                sub_80823FC
                0x0000000008082630                sub_8082630
                0x000000000808267c                sub_808267C
                0x0000000008082788                sub_8082788
                0x0000000008082aa8                sub_8082AA8
                0x0000000008082b1c                sub_8082B1C
                0x0000000008082b80                sub_8082B80
                0x0000000008082bf8                sub_8082BF8
                0x0000000008082c58                sub_8082C58
                0x0000000008082cb4                sub_8082CB4
                0x0000000008082cec                sub_8082CEC
 build/sa2/src/game/multiboot/collect_rings/time_display.o(.text)
 .text          0x0000000008082d44      0x5b8 build/sa2/src/game/multiboot/collect_rings/time_display.o
                0x0000000008082d44                CreateCollectRingsTimeDisplay
                0x0000000008082e9c                sub_8082E9C
                0x0000000008083040                sub_8083040
                0x0000000008083104                sub_8083104
                0x000000000808328c                sub_808328C
                0x00000000080832e0                sub_80832E0
 build/sa2/asm/math_0.o(.text)
 .text          0x00000000080832fc     0x21e0 build/sa2/asm/math_0.o
                0x00000000080832fc                sub_80832FC
                0x000000000808343c                sub_808343C
                0x0000000008083504                sub_8083504
                0x00000000080835e0                sub_80835E0
                0x00000000080836bc                sub_80836BC
                0x0000000008083798                sub_8083798
                0x0000000008083858                sub_8083858
                0x00000000080838cc                sub_80838CC
                0x000000000808399c                sub_808399C
                0x0000000008083a48                sub_8083A48
                0x0000000008083b10                sub_8083B10
                0x0000000008083b88                sub_8083B88
                0x0000000008083e44                sub_8083E44
                0x0000000008084090                sub_8084090
                0x00000000080842e4                sub_80842E4
                0x000000000808442c                sub_808442C
                0x000000000808458c                sub_808458C
                0x000000000808477c                sub_808477C
                0x0000000008084904                sub_8084904
                0x0000000008084964                sub_8084964
                0x00000000080849c4                sub_80849C4
                0x0000000008084a24                sub_8084A24
                0x0000000008084b54                sub_8084B54
                0x0000000008084c70                sub_8084C70
                0x0000000008084eac                sub_8084EAC
                0x0000000008084ee0                sub_8084EE0
                0x00000000080851e0                sub_80851E0
                0x0000000008085314                sub_8085314
                0x00000000080853f8                sub_80853F8
 build/sa2/src/game/math_0.o(.text)
 .text          0x00000000080854dc      0x48c build/sa2/src/game/math_0.o
                0x00000000080854dc                Random
                0x0000000008085500                SeedRng
                0x0000000008085514                AbsMax
                0x0000000008085530                sub_8085530
                0x000000000808558c                sub_808558C
                0x00000000080855c0                sub_80855C0
                0x00000000080855f8                sub_80855F8
                0x0000000008085654                sub_8085654
                0x0000000008085698                sub_8085698
                0x00000000080856dc                sub_80856DC
                0x00000000080856f8                sub_80856F8
                0x0000000008085714                sub_8085714
                0x0000000008085720                sub_8085720
                0x000000000808572c                sub_808572C
                0x0000000008085758                sub_8085758
                0x000000000808575c                sub_808575C
                0x0000000008085798                sub_8085798
                0x00000000080857a4                sub_80857A4
                0x00000000080857e0                sub_80857E0
                0x00000000080857ec                sub_80857EC
                0x00000000080858a4                sub_80858A4
                0x000000000808595c                sub_808595C
 build/sa2/asm/math_1.o(.text)
 .text          0x0000000008085968      0x4a8 build/sa2/asm/math_1.o
                0x0000000008085968                sub_8085968
                0x00000000080859f4                sub_80859F4
                0x0000000008085a88                sub_8085A88
                0x0000000008085a9c                sub_8085A9C
                0x0000000008085b00                sub_8085B00
                0x0000000008085b34                sub_8085B34
                0x0000000008085b90                sub_8085B90
                0x0000000008085ba0                sub_8085BA0
                0x0000000008085bb4                sub_8085BB4
                0x0000000008085bec                sub_8085BEC
                0x0000000008085c24                sub_8085C24
                0x0000000008085c5c                sub_8085C5C
                0x0000000008085ca8                sub_8085CA8
                0x0000000008085cc0                sub_8085CC0
                0x0000000008085ce4                sub_8085CE4
                0x0000000008085d14                sub_8085D14
                0x0000000008085d44                sub_8085D44
                0x0000000008085d50                sub_8085D50
                0x0000000008085d64                sub_8085D64
                0x0000000008085d78                sub_8085D78
                0x0000000008085d98                sub_8085D98
                0x0000000008085dd0                sub_8085DD0
                0x0000000008085dec                sub_8085DEC
 build/sa2/src/game/math_1.o(.text)
 .text          0x0000000008085e10      0x178 build/sa2/src/game/math_1.o
                0x0000000008085e10                sub_8085E10
                0x0000000008085e24                sub_8085E24
                0x0000000008085e38                sub_8085E38
                0x0000000008085e64                sub_8085E64
                0x0000000008085e94                sub_8085E94
                0x0000000008085ec4                sub_8085EC4
                0x0000000008085f1c                sub_8085F1C
                0x0000000008085f84                sub_8085F84
 build/sa2/src/game/item_box.o(.text)
 .text          0x0000000008085f88      0x1e4 build/sa2/src/game/item_box.o
                0x0000000008085f88                initSprite_Interactable_ItemBox
 build/sa2/asm/item_box.o(.text)
 .text          0x000000000808616c      0x82c build/sa2/asm/item_box.o
                0x000000000808616c                sub_808616C
                0x000000000808623c                sub_808623C
                0x000000000808636c                sub_808636C
                0x0000000008086474                sub_8086474
                0x0000000008086504                sub_8086504
                0x00000000080865e4                sub_80865E4
                0x000000000808665c                sub_808665C
                0x00000000080866ac                sub_80866AC
                0x00000000080866fc                sub_80866FC
                0x000000000808673c                sub_808673C
                0x000000000808679c                sub_808679C
                0x00000000080867e8                sub_80867E8
                0x0000000008086804                sub_8086804
                0x0000000008086858                sub_8086858
                0x0000000008086890                sub_8086890
                0x00000000080868a8                sub_80868A8
                0x00000000080868f4                sub_80868F4
                0x000000000808693c                sub_808693C
 build/sa2/src/game/heart_particles_effect.o(.text)
 .text          0x0000000008086998      0x350 build/sa2/src/game/heart_particles_effect.o
                0x0000000008086998                CreateHeartParticles
 build/sa2/src/game/race_progress.o(.text)
 .text          0x0000000008086ce8      0x340 build/sa2/src/game/race_progress.o
                0x0000000008086ce8                CreateRaceProgressIndicator
 build/sa2/src/game/unknown_effect.o(.text)
 .text          0x0000000008087028      0x3d8 build/sa2/src/game/unknown_effect.o
                0x0000000008087028                sub_8087028
                0x0000000008087088                sub_8087088
                0x00000000080870e8                sub_80870E8
                0x00000000080871c4                sub_80871C4
                0x0000000008087368                sub_8087368
                0x00000000080873a4                sub_80873A4
                0x00000000080873ec                sub_80873EC
 build/sa2/src/game/multiplayer_lobby.o(.text)
 .text          0x0000000008087400      0xbc0 build/sa2/src/game/multiplayer_lobby.o
                0x0000000008087400                CreateMultiplayerLobbyScreen
 build/sa2/src/game/time_attack/mode_select.o(.text)
 .text          0x0000000008087fc0      0x984 build/sa2/src/game/time_attack/mode_select.o
                0x0000000008087fc0                CreateTimeAttackModeSelectionScreen
                0x00000000080882f8                Task_IntroSweepAnim
 build/sa2/src/game/time_attack/lobby.o(.text)
 .text          0x0000000008088944      0x828 build/sa2/src/game/time_attack/lobby.o
                0x0000000008088944                sub_8088944
                0x0000000008088cc4                sub_8088CC4
                0x0000000008088d60                sub_8088D60
                0x0000000008088eb4                sub_8088EB4
                0x00000000080890bc                CreateTimeAttackLobbyScreen
                0x0000000008089104                sub_8089104
 build/sa2/src/game/time_attack/results.o(.text)
 .text          0x000000000808916c      0xab8 build/sa2/src/game/time_attack/results.o
                0x000000000808916c                CreateTimeAttackResultsCutScene
                0x00000000080897e8                sub_80897E8
                0x00000000080899b8                sub_80899B8
                0x0000000008089aec                sub_8089AEC
                0x0000000008089b40                sub_8089B40
                0x0000000008089bb0                sub_8089BB0
 build/sa2/src/game/boost_effect.o(.text)
 .text          0x0000000008089c24      0x634 build/sa2/src/game/boost_effect.o
                0x0000000008089c24                CreateBoostModeParticles
                0x0000000008089e54                sub_8089E54
                0x000000000808a0a4                sub_808A0A4
                0x000000000808a234                sub_808A234
 build/sa2/src/game/sound_test.o(.text)
 .text          0x000000000808a258     0x11a4 build/sa2/src/game/sound_test.o
                0x000000000808a258                CreateSoundTestScreen
 build/sa2/src/game/title_screen.o(.text)
 .text          0x000000000808b3fc     0x24a4 build/sa2/src/game/title_screen.o
                0x000000000808b3fc                CreateTitleScreen
                0x000000000808d41c                CreateTitleScreenAndSkipIntro
                0x000000000808d45c                CreateTitleScreenAtPlayModeMenu
                0x000000000808d49c                CreateTitleScreenAtSinglePlayerMenu
                0x000000000808d824                sub_808D824
 build/sa2/src/game/backgrounds.o(.text)
 .text          0x000000000808d8a0      0x304 build/sa2/src/game/backgrounds.o
                0x000000000808d8a0                sub_808D8A0
                0x000000000808d988                sub_808D988
                0x000000000808dac8                sub_808DAC8
                0x000000000808daec                sub_808DAEC
                0x000000000808db2c                sub_808DB2C
                0x000000000808db78                sub_808DB78
 build/sa2/src/game/cutscenes/level_endings.o(.text)
 .text          0x000000000808dba4      0xd0c build/sa2/src/game/cutscenes/level_endings.o
                0x000000000808dba4                CreateCourseResultsCutScene
                0x000000000808e274                sub_808E274
                0x000000000808e35c                sub_808E35C
                0x000000000808e424                sub_808E424
                0x000000000808e4c8                sub_808E4C8
                0x000000000808e63c                sub_808E63C
                0x000000000808e6b0                sub_808E6B0
                0x000000000808e740                CreateCharacterUnlockCutScene
                0x000000000808e79c                CreateCreamUnlockCutScene
                0x000000000808e7e8                CreateTailsUnlockCutScene
                0x000000000808e83c                CreateKnucklesUnlockCutScene
                0x000000000808e890                sub_808E890
 build/sa2/src/game/cutscenes/endings.o(.text)
 .text          0x000000000808e8b0      0x1a0 build/sa2/src/game/cutscenes/endings.o
                0x000000000808e8b0                StartEndingCutScenes
                0x000000000808e8f8                sub_808E8F8
                0x000000000808e95c                sub_808E95C
                0x000000000808e9ac                sub_808E9AC
                0x000000000808e9f8                sub_808E9F8
                0x000000000808e9fc                sub_808E9FC
 build/sa2/src/game/cutscenes/credits.o(.text)
 .text          0x000000000808ea50      0x310 build/sa2/src/game/cutscenes/credits.o
                0x000000000808ea50                CreateCreditsCutScene
 build/sa2/src/game/cutscenes/credits_slides.o(.text)
 .text          0x000000000808ed60      0x3ec build/sa2/src/game/cutscenes/credits_slides.o
                0x000000000808ed60                CreateCreditsSlidesCutScene
                0x000000000808ef38                sub_808EF38
                0x000000000808f004                sub_808F004
                0x000000000808f068                sub_808F068
                0x000000000808f0bc                sub_808F0BC
                0x000000000808f10c                sub_808F10C
                0x000000000808f148                sub_808F148
 build/sa2/src/game/cutscenes/credits_end.o(.text)
 .text          0x000000000808f14c      0xb2c build/sa2/src/game/cutscenes/credits_end.o
                0x000000000808f14c                CreateCreditsEndCutScene
 build/sa2/src/game/cutscenes/extra_ending_fall.o(.text)
 .text          0x000000000808fc78     0x1840 build/sa2/src/game/cutscenes/extra_ending_fall.o
                0x000000000808fc78                CreateExtraEndingFallCutScene
                0x0000000008090480                sub_8090480
                0x0000000008090520                sub_8090520
                0x00000000080905c0                sub_80905C0
                0x000000000809066c                sub_809066C
                0x0000000008090800                sub_8090800
                0x0000000008090904                sub_8090904
                0x0000000008090c24                sub_8090C24
                0x0000000008090ca0                sub_8090CA0
                0x0000000008090d60                sub_8090D60
                0x0000000008090e18                sub_8090E18
                0x0000000008090eb4                sub_8090EB4
                0x0000000008090f6c                sub_8090F6C
                0x0000000008091044                sub_8091044
                0x00000000080913dc                sub_80913DC
                0x0000000008091468                sub_8091468
                0x0000000008091480                sub_8091480
                0x0000000008091484                sub_8091484
 build/sa2/src/game/cutscenes/extra_ending_slides.o(.text)
 .text          0x00000000080914b8      0x1cc build/sa2/src/game/cutscenes/extra_ending_slides.o
                0x00000000080914b8                CreateExtraEndingSlidesCutScene
                0x0000000008091590                sub_8091590
                0x00000000080915cc                sub_80915CC
                0x0000000008091608                sub_8091608
                0x0000000008091638                sub_8091638
                0x0000000008091680                sub_8091680
 build/sa2/src/game/cutscenes/final_ending_fall.o(.text)
 .text          0x0000000008091684     0x1274 build/sa2/src/game/cutscenes/final_ending_fall.o
                0x0000000008091684                CreateFinalEndingFallCutScene
                0x0000000008091cb0                sub_8091CB0
                0x0000000008091e60                sub_8091E60
                0x0000000008091f68                sub_8091F68
                0x000000000809205c                sub_809205C
                0x00000000080920e4                sub_80920E4
                0x00000000080921e8                sub_80921E8
                0x00000000080923ac                sub_80923AC
                0x0000000008092690                sub_8092690
                0x0000000008092714                sub_8092714
                0x0000000008092780                sub_8092780
                0x00000000080927e8                sub_80927E8
                0x0000000008092800                sub_8092800
                0x0000000008092804                sub_8092804
                0x0000000008092850                sub_8092850
                0x000000000809289c                sub_809289C
                0x00000000080928c8                sub_80928C8
 build/sa2/src/game/cutscenes/final_ending_land.o(.text)
 .text          0x00000000080928f8     0x1820 build/sa2/src/game/cutscenes/final_ending_land.o
                0x00000000080928f8                CreateFinalEndingLandingCutScene
                0x00000000080932c8                sub_80932C8
                0x000000000809334c                sub_809334C
                0x00000000080934b8                sub_80934B8
                0x0000000008093638                sub_8093638
                0x0000000008093740                sub_8093740
                0x0000000008093868                sub_8093868
                0x0000000008093edc                sub_8093EDC
                0x0000000008093f54                sub_8093F54
                0x0000000008093f9c                sub_8093F9C
                0x0000000008093fa0                sub_8093FA0
                0x0000000008093ff0                sub_8093FF0
                0x000000000809401c                sub_809401C
                0x0000000008094044                sub_8094044
                0x0000000008094060                sub_8094060
                0x00000000080940bc                sub_80940BC
 build/sa2/src/game/cutscenes/missing_emeralds.o(.text)
 .text          0x0000000008094118      0x4d0 build/sa2/src/game/cutscenes/missing_emeralds.o
                0x0000000008094118                CreateMissingChaosEmaraldsCutScene
                0x0000000008094360                sub_8094360
                0x000000000809449c                sub_809449C
                0x00000000080944ec                sub_80944EC
                0x0000000008094530                sub_8094530
                0x0000000008094570                sub_8094570
                0x00000000080945a0                sub_80945A0
                0x00000000080945a4                sub_80945A4
 build/sa2/asm/m4a0.o(.text)
 .text          0x00000000080945e8      0xc1c build/sa2/asm/m4a0.o
                0x00000000080945e8                umul3232H32
                0x00000000080945ec                __umul3232H32
                0x00000000080945f8                SoundMain
                0x000000000809467c                SoundMainRAM
                0x0000000008094688                SoundMainRAM_Reverb
                0x00000000080946dc                SoundMainRAM_NoReverb
                0x000000000809470a                SoundMainRAM_ChanLoop
                0x0000000008094814                sub_08094814
                0x00000000080949fc                sub_080949FC
                0x0000000008094a1a                sub_08094A1A
                0x0000000008094a20                SoundMainBTM
                0x0000000008094a38                RealClearChain
                0x0000000008094a58                ply_fine
                0x0000000008094a88                MPlayJumpTableCopy
                0x0000000008094aa0                sub_8094AA0
                0x0000000008094abc                sub_8094ABC
                0x0000000008094abe                sub_08094ABE
                0x0000000008094ac8                ply_goto
                0x0000000008094ae8                ply_patt
                0x0000000008094b04                ply_pend
                0x0000000008094b18                ply_rept
                0x0000000008094b48                ply_prio
                0x0000000008094b54                ply_tempo
                0x0000000008094b68                ply_keysh
                0x0000000008094b7c                ply_voice
                0x0000000008094bac                ply_vol
                0x0000000008094bc0                ply_pan
                0x0000000008094bd4                ply_bend
                0x0000000008094be8                ply_bendr
                0x0000000008094bfc                ply_lfodl
                0x0000000008094c08                ply_modt
                0x0000000008094c20                ply_tune
                0x0000000008094c34                ply_port
                0x0000000008094c44                sub_8094C44
                0x0000000008094c4c                m4aSoundVSync
                0x0000000008094c98                MPlayMain
                0x0000000008094ef0                sub_08094EF0
                0x0000000008094f00                TrackStop
                0x0000000008094f44                sub_8094F44
                0x0000000008094f74                ply_note
                0x0000000008095174                ply_endtie
                0x00000000080951b4                sub_80951B4
                0x00000000080951d0                sub_80951D0
                0x00000000080951dc                ply_lfos
                0x00000000080951f0                ply_mod
 build/sa2/src/lib/m4a.o(.text)
 .text          0x0000000008095204     0x1598 build/sa2/src/lib/m4a.o
                0x0000000008095204                MidiKeyToFreq
                0x000000000809526c                MPlayContinue
                0x0000000008095288                MPlayFadeOut
                0x00000000080952a8                m4aSoundInit
                0x0000000008095320                m4aSoundMain
                0x000000000809532c                m4aSongNumStart
                0x0000000008095358                m4aSongNumStartOrChange
                0x00000000080953a4                m4aSongNumStartOrContinue
                0x00000000080953f8                m4aSongNumStop
                0x000000000809542c                m4aSongNumContinue
                0x0000000008095460                m4aMPlayAllStop
                0x000000000809548c                m4aMPlayContinue
                0x0000000008095498                m4aMPlayAllContinue
                0x00000000080954c4                m4aMPlayFadeOut
                0x00000000080954d4                m4aMPlayFadeOutTemporarily
                0x00000000080954f4                m4aMPlayFadeIn
                0x000000000809551c                m4aMPlayImmInit
                0x0000000008095564                MPlayExtender
                0x000000000809567c                MusicPlayerJumpTableCopy
                0x0000000008095680                ClearChain
                0x0000000008095694                Clear64byte
                0x00000000080956a8                SoundInit
                0x00000000080957a0                SampleFreqSet
                0x0000000008095844                m4aSoundMode
                0x00000000080958dc                SoundClear
                0x0000000008095930                m4aSoundVSyncOff
                0x00000000080959ac                m4aSoundVSyncOn
                0x00000000080959e8                MPlayOpen
                0x0000000008095a60                MPlayStart
                0x0000000008095b44                MPlayStop
                0x0000000008095b84                FadeOutBody
                0x0000000008095c4c                TrkVolPitSet
                0x0000000008095d00                MidiKeyToCgbFreq
                0x0000000008095da8                CgbOscOff
                0x0000000008095df8                CgbModVol
                0x0000000008095e60                CgbSound
                0x00000000080962ac                m4aMPlayTempoControl
                0x00000000080962d4                m4aMPlayVolumeControl
                0x000000000809633c                m4aMPlayPitchControl
                0x00000000080963b0                m4aMPlayPanpotControl
                0x0000000008096418                ClearModM
                0x0000000008096438                m4aMPlayModDepthSet
                0x00000000080964ac                m4aMPlayLFOSpeedSet
                0x0000000008096520                ply_memacc
                0x0000000008096678                ply_xcmd
                0x0000000008096698                ply_xxx
                0x00000000080966ac                ply_xwave
                0x00000000080966f4                ply_xtype
                0x0000000008096708                ply_xatta
                0x000000000809671c                ply_xdeca
                0x0000000008096730                ply_xsust
                0x0000000008096744                ply_xrele
                0x0000000008096758                ply_xiecv
                0x0000000008096764                ply_xiecl
                0x0000000008096770                ply_xleng
                0x0000000008096784                ply_xswee
 build/sa2/src/lib/agb_flash.o(.text)
 .text          0x000000000809679c      0x500 build/sa2/src/lib/agb_flash.o
                0x000000000809679c                SwitchFlashBank
                0x00000000080967c0                ReadFlashId
                0x000000000809685c                FlashTimerIntr
                0x0000000008096884                SetFlashTimerIntr
                0x00000000080968c0                StartFlashTimer
                0x0000000008096968                StopFlashTimer
                0x00000000080969ac                ReadFlash1
                0x00000000080969b0                SetReadFlash1
                0x00000000080969f0                ReadFlash_Core
                0x0000000008096a14                ReadFlash
                0x0000000008096ab0                VerifyFlashSector_Core
                0x0000000008096ae0                VerifyFlashSector
                0x0000000008096b78                VerifyFlashSectorNBytes
                0x0000000008096c10                ProgramFlashSectorAndVerify
                0x0000000008096c54                ProgramFlashSectorAndVerifyNBytes
 build/sa2/src/lib/agb_flash_512k.o(.text)
 .text          0x0000000008096c9c      0x11c build/sa2/src/lib/agb_flash_512k.o
                0x0000000008096c9c                IdentifyFlash
                0x0000000008096d30                WaitForFlashWrite512K_Common
 build/sa2/src/lib/agb_flash_le_512k.o(.text)
 .text          0x0000000008096db8      0x2a8 build/sa2/src/lib/agb_flash_le_512k.o
                0x0000000008096db8                EraseFlashChip_LE
                0x0000000008096e2c                EraseFlashSector_LE
                0x0000000008096ec8                ProgramByte
                0x0000000008096f00                ProgramFlashSector_LE
 build/sa2/src/lib/agb_flash_mx_512k.o(.text)
 .text          0x0000000008097060       0xac build/sa2/src/lib/agb_flash_mx_512k.o
                0x0000000008097060                ProgramFlashSector_MX
 build/sa2/asm/libagbsyscall.o(.text)
 .text          0x000000000809710c       0x6c build/sa2/asm/libagbsyscall.o
                0x000000000809710c                ArcTan2
                0x0000000008097110                CpuFastSet
                0x0000000008097114                CpuSet
                0x0000000008097118                Div
                0x000000000809711c                Mod
                0x0000000008097124                LZ77UnCompWram
                0x0000000008097128                MultiBoot
                0x0000000008097130                RLUnCompWram
                0x0000000008097134                SoftReset
                0x000000000809714c                Sqrt
                0x0000000008097150                VBlankIntrWait
                0x0000000008097158                SoftResetExram
 *libgcc.a:_ashrdi3.o(.text)
 .text          0x0000000008097178       0x34 tools/agbcc/lib/libgcc.a(_ashrdi3.o)
                0x0000000008097178                __ashrdi3
 *libgcc.a:_call_via_rX.o(.text)
 .text          0x00000000080971ac       0x3c tools/agbcc/lib/libgcc.a(_call_via_rX.o)
                0x00000000080971ac                _call_via_r0
                0x00000000080971b0                _call_via_r1
                0x00000000080971b4                _call_via_r2
                0x00000000080971b8                _call_via_r3
                0x00000000080971bc                _call_via_r4
                0x00000000080971c0                _call_via_r5
                0x00000000080971c4                _call_via_r6
                0x00000000080971c8                _call_via_r7
                0x00000000080971cc                _call_via_r8
                0x00000000080971d0                _call_via_r9
                0x00000000080971d4                _call_via_sl
                0x00000000080971d8                _call_via_fp
                0x00000000080971dc                _call_via_ip
                0x00000000080971e0                _call_via_sp
                0x00000000080971e4                _call_via_lr
 *libgcc.a:_divdi3.o(.text)
 .text          0x00000000080971e8      0x434 tools/agbcc/lib/libgcc.a(_divdi3.o)
                0x00000000080971e8                __divdi3
 *libgcc.a:_divsi3.o(.text)
 .text          0x000000000809761c       0x94 tools/agbcc/lib/libgcc.a(_divsi3.o)
                0x000000000809761c                __divsi3
 *libgcc.a:_dvmd_tls.o(.text)
 .text          0x00000000080976b0        0x4 tools/agbcc/lib/libgcc.a(_dvmd_tls.o)
                0x00000000080976b0                __div0
 *libgcc.a:_modsi3.o(.text)
 .text          0x00000000080976b4       0xd0 tools/agbcc/lib/libgcc.a(_modsi3.o)
                0x00000000080976b4                __modsi3
 *libgcc.a:_muldi3.o(.text)
 .text          0x0000000008097784       0x70 tools/agbcc/lib/libgcc.a(_muldi3.o)
                0x0000000008097784                __muldi3
 *libgcc.a:_negdi2.o(.text)
 .text          0x00000000080977f4       0x18 tools/agbcc/lib/libgcc.a(_negdi2.o)
                0x00000000080977f4                __negdi2
 *libgcc.a:_udivsi3.o(.text)
 .text          0x000000000809780c       0x78 tools/agbcc/lib/libgcc.a(_udivsi3.o)
                0x000000000809780c                __udivsi3
 *libgcc.a:_umodsi3.o(.text)
 .text          0x0000000008097884       0xc0 tools/agbcc/lib/libgcc.a(_umodsi3.o)
                0x0000000008097884                __umodsi3
 *libc.a:memcpy.o(.text)
 .text          0x0000000008097944       0x60 tools/agbcc/lib/libc.a(memcpy.o)
                0x0000000008097944                memcpy
 *libc.a:memset.o(.text)
 .text          0x00000000080979a4       0x54 tools/agbcc/lib/libc.a(memset.o)
                0x00000000080979a4                memset
 build/sa2/src/multi_sio.o(.rodata)
 .rodata        0x00000000080979f8       0x19 build/sa2/src/multi_sio.o
 build/sa2/src/sio32_multi_load.o(.rodata)
 *fill*         0x0000000008097a11        0x3 00000000
 .rodata        0x0000000008097a14       0x15 build/sa2/src/sio32_multi_load.o
 build/sa2/src/core.o(.rodata)
 *fill*         0x0000000008097a29        0x3 00000000
 .rodata        0x0000000008097a2c       0x48 build/sa2/src/core.o
                0x0000000008097a2c                gIntrTableTemplate
 build/sa2/src/sprite_1.o(.rodata)
 .rodata        0x0000000008097a74       0x30 build/sa2/src/sprite_1.o
                0x0000000008097a74                animCmdTable_2
 build/sa2/src/trig.o(.rodata)
 .rodata        0x0000000008097aa4      0xa00 build/sa2/src/trig.o
                0x0000000008097aa4                gSineTable
 build/sa2/asm/sprite_3.o(.rodata)
 build/sa2/src/animation_commands_extra.o(.rodata)
 .rodata        0x00000000080984a4        0x8 build/sa2/src/animation_commands_extra.o
                0x00000000080984a4                sUnknown_080984A4
 build/sa2/src/animation_commands.o(.rodata)
 .rodata        0x00000000080984ac       0x30 build/sa2/src/animation_commands.o
                0x00000000080984ac                animCmdTable
 build/sa2/src/sprite_3.o(.rodata)
 .rodata        0x00000000080984dc       0x18 build/sa2/src/sprite_3.o
                0x00000000080984dc                gOamShapesSizes
 build/sa2/asm/sprite_4.o(.rodata)
 .rodata        0x00000000080984f4    0x1687c build/sa2/asm/sprite_4.o
                0x00000000080984f4                gUnknown_080984F4
                0x0000000008098538                zone1_act1_rings
                0x0000000008098538                gUnknown_08098538
                0x00000000080989c8                zone1_act1_enemies
                0x0000000008098ac0                zone1_act1_itemboxes
                0x0000000008098b54                zone1_act1_interactables
                0x000000000809943c                zone1_act2_rings
                0x0000000008099804                zone1_act2_enemies
                0x00000000080998e8                zone1_act2_itemboxes
                0x0000000008099968                zone1_act2_interactables
                0x000000000809a04c                zone1_boss_rings
                0x000000000809a090                zone1_boss_enemies
                0x000000000809a0a4                zone1_boss_itemboxes
                0x000000000809a0b8                zone1_boss_interactables
                0x000000000809a0cc                zone2_act1_rings
                0x000000000809aaa8                zone2_act1_enemies
                0x000000000809ac94                zone2_act1_itemboxes
                0x000000000809ada4                zone2_act1_interactables
                0x000000000809b8f4                zone2_act2_rings
                0x000000000809c134                zone2_act2_enemies
                0x000000000809c37c                zone2_act2_itemboxes
                0x000000000809c4a4                zone2_act2_interactables
                0x000000000809cf10                zone2_boss_rings
                0x000000000809cf5c                zone2_boss_enemies
                0x000000000809cf70                zone2_boss_itemboxes
                0x000000000809cf84                zone2_boss_interactables
                0x000000000809cf98                zone3_act1_rings
                0x000000000809d674                zone3_act1_enemies
                0x000000000809d818                zone3_act1_itemboxes
                0x000000000809d930                zone3_act1_interactables
                0x000000000809e7a4                zone3_act2_rings
                0x000000000809f1a4                zone3_act2_enemies
                0x000000000809f300                zone3_act2_itemboxes
                0x000000000809f408                zone3_act2_interactables
                0x00000000080a059c                zone3_boss_rings
                0x00000000080a05e0                zone3_boss_enemies
                0x00000000080a05f0                zone3_boss_itemboxes
                0x00000000080a0600                zone3_boss_interactables
                0x00000000080a0610                zone4_act1_rings
                0x00000000080a0f9c                zone4_act1_enemies
                0x00000000080a116c                zone4_act1_itemboxes
                0x00000000080a1268                zone4_act1_interactables
                0x00000000080a21c4                zone4_act2_rings
                0x00000000080a2790                zone4_act2_enemies
                0x00000000080a2918                zone4_act2_itemboxes
                0x00000000080a29e4                zone4_act2_interactables
                0x00000000080a34c0                zone4_boss_rings
                0x00000000080a3500                zone4_boss_enemies
                0x00000000080a3514                zone4_boss_itemboxes
                0x00000000080a3528                zone4_boss_interactables
                0x00000000080a353c                zone5_act1_rings
                0x00000000080a3ba8                zone5_act1_enemies
                0x00000000080a3cbc                zone5_act1_itemboxes
                0x00000000080a3d90                zone5_act1_interactables
                0x00000000080a4ce0                zone5_act2_rings
                0x00000000080a5274                zone5_act2_enemies
                0x00000000080a5398                zone5_act2_itemboxes
                0x00000000080a5478                zone5_act2_interactables
                0x00000000080a61f0                zone5_boss_rings
                0x00000000080a6238                zone5_boss_enemies
                0x00000000080a624c                zone5_boss_itemboxes
                0x00000000080a6260                zone5_boss_interactables
                0x00000000080a6274                zone6_act1_rings
                0x00000000080a6c60                zone6_act1_enemies
                0x00000000080a6e14                zone6_act1_itemboxes
                0x00000000080a6f10                zone6_act1_interactables
                0x00000000080a814c                zone6_act2_rings
                0x00000000080a88e0                zone6_act2_enemies
                0x00000000080a8a44                zone6_act2_itemboxes
                0x00000000080a8af8                zone6_act2_interactables
                0x00000000080a9850                zone6_boss_rings
                0x00000000080a98a0                zone6_boss_enemies
                0x00000000080a98b4                zone6_boss_itemboxes
                0x00000000080a98c8                zone6_boss_interactables
                0x00000000080a98dc                zone7_act1_rings
                0x00000000080aa2d4                zone7_act1_enemies
                0x00000000080aa620                zone7_act1_itemboxes
                0x00000000080aa7f0                zone7_act1_interactables
                0x00000000080abf5c                zone7_act2_rings
                0x00000000080acbd4                zone7_act2_enemies
                0x00000000080aced0                zone7_act2_itemboxes
                0x00000000080ad088                zone7_act2_interactables
                0x00000000080ae6c0                zone7_boss_rings
                0x00000000080ae714                zone7_boss_enemies
                0x00000000080ae728                zone7_boss_itemboxes
                0x00000000080ae73c                zone7_boss_interactables
                0x00000000080ae750                zone8_act1_rings
                0x00000000080ae8d0                zone8_act1_enemies
                0x00000000080ae8f4                zone8_act1_itemboxes
                0x00000000080ae918                zone8_act1_interactables
                0x00000000080ae93c                zone8_act2_rings
                0x00000000080aea28                zone8_act2_enemies
                0x00000000080aea3c                zone8_act2_itemboxes
                0x00000000080aea50                zone8_act2_interactables
                0x00000000080aea64                zone8_boss_rings
                0x00000000080aebcc                zone8_boss_enemies
                0x00000000080aebe0                zone8_boss_itemboxes
                0x00000000080aebf4                zone8_boss_interactables
 build/sa2/data/multiboot_chao_garden.o(.rodata)
 .rodata        0x00000000080aed70    0x25e8c build/sa2/data/multiboot_chao_garden.o
                0x00000000080aed70                gMultiBootProgram_TinyChaoGarden
 build/sa2/asm/entities_0.o(.rodata)
 .rodata        0x00000000080d4bfc      0x6e4 build/sa2/asm/entities_0.o
                0x00000000080d4bfc                gSpritePosData_rings
                0x00000000080d4c84                gSpritePosData_interactables
                0x00000000080d4d0c                gSpritePosData_itemboxes
                0x00000000080d4d94                gSpritePosData_enemies
                0x00000000080d4e1c                gSpriteInits_Interactables
                0x00000000080d4fc4                gSpriteInits_Enemies
                0x00000000080d5020                gUnknown_080D5020
                0x00000000080d502c                gUnknown_080D502C
                0x00000000080d50a0                gSpriteTileInits_PreStageEntry
                0x00000000080d5128                gUnknown_080D5128
                0x00000000080d5130                gUnknown_080D5130
                0x00000000080d5148                sAnimInfoPauseMenu
                0x00000000080d5178                gUnknown_080D5178
                0x00000000080d51c6                ItemBox_1UpIcons
                0x00000000080d51e4                gUnknown_080D51E4
                0x00000000080d51f4                gUnknown_080D51F4
                0x00000000080d51fc                gUnknown_080D51FC
                0x00000000080d5204                gLevelSongs
                0x00000000080d5254                gUnknown_080D5254
                0x00000000080d5262                gUnknown_080D5262
                0x00000000080d5270                gUnknown_080D5270
                0x00000000080d527e                gUnknown_080D527E
                0x00000000080d528c                gUnknown_080D528C
                0x00000000080d529a                gUnknown_080D529A
                0x00000000080d52a8                gUnknown_080D52A8
                0x00000000080d52b6                gUnknown_080D52B6
                0x00000000080d52c4                gUnknown_080D52C4
                0x00000000080d52d2                gUnknown_080D52D2
 build/sa2/src/game/interactables_0/spring.o(.rodata)
 .rodata        0x00000000080d52e0      0x104 build/sa2/src/game/interactables_0/spring.o
 build/sa2/src/game/interactables_0/platform.o(.rodata)
 .rodata        0x00000000080d53e4       0x4c build/sa2/src/game/interactables_0/platform.o
                0x00000000080d53e4                sPlatformLevelAnims
 build/sa2/asm/interactable_081.o(.rodata)
 .rodata        0x00000000080d5430       0x38 build/sa2/asm/interactable_081.o
                0x00000000080d5430                gUnknown_080D5430
 build/sa2/src/game/interactables_0/platform_thin.o(.rodata)
 .rodata        0x00000000080d5468       0xa4 build/sa2/src/game/interactables_0/platform_thin.o
 build/sa2/asm/entities_1.o(.rodata)
 .rodata        0x00000000080d550c       0x20 build/sa2/asm/entities_1.o
                0x00000000080d550c                gUnknown_080D550C
                0x00000000080d5518                gUnknown_080D5518
 build/sa2/src/game/player_callbacks_0.o(.rodata)
 .rodata        0x00000000080d552c       0x1c build/sa2/src/game/player_callbacks_0.o
 build/sa2/asm/entities_2.o(.rodata)
 .rodata        0x00000000080d5548      0x294 build/sa2/asm/entities_2.o
                0x00000000080d5548                gUnknown_080D5548
                0x00000000080d5590                gUnknown_080D5590
                0x00000000080d5628                gUnknown_080D5628
                0x00000000080d5674                gUnknown_080D5674
                0x00000000080d5678                gUnknown_080D5678
                0x00000000080d5684                gUnknown_080D5684
                0x00000000080d5744                gUnknown_080D5744
                0x00000000080d5768                gUnknown_080D5768
                0x00000000080d57d8                gUnknown_080D57D8
 build/sa2/src/game/game.o(.rodata)
 .rodata        0x00000000080d57dc      0x508 build/sa2/src/game/game.o
                0x00000000080d57dc                gUnknown_080D57DC
                0x00000000080d5864                gUnknown_080D5864
                0x00000000080d5964                gUnknown_080D5964
                0x00000000080d5988                gUnknown_080D5988
                0x00000000080d5a10                gUnknown_080D5A10
                0x00000000080d5a98                gUnknown_080D5A98
                0x00000000080d5b20                gUnknown_080D5B20
                0x00000000080d5b21                gUnknown_080D5B21
                0x00000000080d5b22                gUnknown_080D5B22
                0x00000000080d5b50                gUnknown_080D5B50
                0x00000000080d5bf0                gUnknown_080D5BF0
                0x00000000080d5c02                gUnknown_080D5C02
                0x00000000080d5c04                gUnknown_080D5C04
                0x00000000080d5c62                gUnknown_080D5C62
                0x00000000080d5c82                gUnknown_080D5C82
                0x00000000080d5ca2                gUnknown_080D5CA2
                0x00000000080d5cc2                gUnknown_080D5CC2
 build/sa2/src/game/stage.o(.rodata)
 .rodata        0x00000000080d5ce4      0x828 build/sa2/src/game/stage.o
                0x00000000080d5ce4                gMapHeaders
                0x00000000080d62d8                gUnknown_080D62D8
                0x00000000080d6354                sAnimData_StageGoalScoreBonus
                0x00000000080d6374                gSpawnPositions
                0x00000000080d63fc                gUnknown_080D63FC
 build/sa2/asm/game.o(.rodata)
 .rodata        0x00000000080d650c      0x3f6 build/sa2/asm/game.o
                0x00000000080d650c                gUnknown_080D650C
                0x00000000080d661c                gUnknown_080D661C
                0x00000000080d672c                PlayerCharacterIdleAnims
                0x00000000080d6736                gUnknown_080D6736
 build/sa2/src/game/player_callbacks_1.o(.rodata)
 .rodata        0x00000000080d6902       0xc4 build/sa2/src/game/player_callbacks_1.o
 build/sa2/asm/game_2.o(.rodata)
 *fill*         0x00000000080d69c6        0x2 00000000
 .rodata        0x00000000080d69c8       0xb8 build/sa2/asm/game_2.o
                0x00000000080d69c8                gAnims_SuperSonic_080D69C8
 build/sa2/src/game/stage_ui.o(.rodata)
 .rodata        0x00000000080d6a80      0x208 build/sa2/src/game/stage_ui.o
                0x00000000080d6a80                sAnimsUiDigits
                0x00000000080d6ab0                sAnims1UpIcons
                0x00000000080d6ace                sPalette_080D6ACE
                0x00000000080d6af0                gUnknown_080D6AF0
                0x00000000080d6b08                gSecondsTable
                0x00000000080d6b80                gMillisUnpackTable
                0x00000000080d6bf8                gUnknown_080D6BF8
                0x00000000080d6c72                gUnknown_080D6C72
 build/sa2/src/game/trapped_animals.o(.rodata)
 .rodata        0x00000000080d6c88      0x15c build/sa2/src/game/trapped_animals.o
                0x00000000080d6c88                gAnimsTrappedAnimals
 build/sa2/src/game/stage_intro.o(.rodata)
 .rodata        0x00000000080d6de4       0x1c build/sa2/src/game/stage_intro.o
                0x00000000080d6de4                gUnknown_080D6DE4
 build/sa2/asm/stage_intro.o(.rodata)
 .rodata        0x00000000080d6e00      0x33c build/sa2/asm/stage_intro.o
                0x00000000080d6e00                zoneLoadingCharacterLogos
                0x00000000080d6e1e                zoneLoadingZoneNames
                0x00000000080d6f0e                zoneLoadingIcons
                0x00000000080d6f44                zoneUnlockedIcons
                0x00000000080d6f80                sZoneLoadingActLetters
                0x00000000080d6fa0                characterAnimsGettingReady
                0x00000000080d6fc8                gUnknown_080D6FC8
                0x00000000080d6ff0                gUnknown_080D6FF0
                0x00000000080d6ff5                gUnknown_080D6FF5
                0x00000000080d6ff7                gUnknown_080D6FF7
                0x00000000080d7116                sZoneLoadingCharacterColors
                0x00000000080d7120                sScreenPositions_ZoneLoadingActLetters
                0x00000000080d7130                gUnknown_080D7130
 build/sa2/asm/stage_outro.o(.rodata)
 .rodata        0x00000000080d713c       0x98 build/sa2/asm/stage_outro.o
                0x00000000080d713c                sAnimsGotThroughCharacterNames
                0x00000000080d715a                gUnknown_080D715A
                0x00000000080d7178                sAnimsGotThroughZoneAndActNames
                0x00000000080d71ba                gUnknown_080D71BA
                0x00000000080d71cc                gUnknown_080D71CC
 build/sa2/src/game/character_select.o(.rodata)
 .rodata        0x00000000080d71d4       0xe3 build/sa2/src/game/character_select.o
 build/sa2/src/game/course_select.o(.rodata)
 *fill*         0x00000000080d72b7        0x1 00000000
 .rodata        0x00000000080d72b8      0x260 build/sa2/src/game/course_select.o
 build/sa2/src/game/countdown.o(.rodata)
 .rodata        0x00000000080d7518       0x28 build/sa2/src/game/countdown.o
                0x00000000080d7518                gUnknown_080D7518
 build/sa2/src/game/true_area_53/intro.o(.rodata)
 .rodata        0x00000000080d7540      0x44c build/sa2/src/game/true_area_53/intro.o
 build/sa2/data/true_area_53_data.o(.rodata)
 .rodata        0x00000000080d798c     0x15a4 build/sa2/data/true_area_53_data.o
                0x00000000080d798c                gUnknown_080D798C
                0x00000000080d79b0                gUnknown_080D79B0
                0x00000000080d79d0                gUnknown_080D79D0
                0x00000000080d7a18                gUnknown_080D7A18
                0x00000000080d7a28                gUnknown_080D7A28
                0x00000000080d7a38                gUnknown_080D7A38
                0x00000000080d7a58                gUnknown_080D7A58
                0x00000000080d7a78                gUnknown_080D7A78
                0x00000000080d7a98                gUnknown_080D7A98
                0x00000000080d7aa2                gUnknown_080D7AA2
                0x00000000080d7aa8                gUnknown_080D7AA8
                0x00000000080d7ab0                gUnknown_080D7AB0
                0x00000000080d7ad0                gUnknown_080D7AD0
                0x00000000080d7b10                gUnknown_080D7B10
                0x00000000080d7b13                gUnknown_080D7B13
                0x00000000080d7b43                gUnknown_080D7B43
                0x00000000080d7b4e                gUnknown_080D7B4E
                0x00000000080d7b50                gUnknown_080D7B50
                0x00000000080d7b68                gUnknown_080D7B68
                0x00000000080d7b70                gUnknown_080D7B70
                0x00000000080d7b90                gUnknown_080D7B90
                0x00000000080d7bb0                gUnknown_080D7BB0
                0x00000000080d7bc8                gUnknown_080D7BC8
                0x00000000080d7bd8                gUnknown_080D7BD8
                0x00000000080d7bdc                gUnknown_080D7BDC
                0x00000000080d7be2                gUnknown_080D7BE2
                0x00000000080d7e78                gUnknown_080D7E78
                0x00000000080d7ed4                gUnknown_080D7ED4
                0x00000000080d7f10                gUnknown_080D7F10
                0x00000000080d7f14                gUnknown_080D7F14
                0x00000000080d7f34                gUnknown_080D7F34
                0x00000000080d7f54                gUnknown_080D7F54
                0x00000000080d7f74                gUnknown_080D7F74
                0x00000000080d7f94                gUnknown_080D7F94
                0x00000000080d7f98                gUnknown_080D7F98
                0x00000000080d7fb0                gUnknown_080D7FB0
                0x00000000080d7ff0                gUnknown_080D7FF0
                0x00000000080d8010                gUnknown_080D8010
                0x00000000080d8030                gUnknown_080D8030
                0x00000000080d8034                gUnknown_080D8034
                0x00000000080d8044                gUnknown_080D8044
                0x00000000080d804e                gUnknown_080D804E
                0x00000000080d8076                gUnknown_080D8076
                0x00000000080d809e                gUnknown_080D809E
                0x00000000080d80c6                gUnknown_080D80C6
                0x00000000080d80e6                gUnknown_080D80E6
                0x00000000080d8108                gUnknown_080D8108
                0x00000000080d8148                gUnknown_080D8148
                0x00000000080d814a                gUnknown_080D814A
                0x00000000080d859c                gUnknown_080D859C
                0x00000000080d86d4                gUnknown_080D86D4
                0x00000000080d8710                gUnknown_080D8710
                0x00000000080d874c                gUnknown_080D874C
                0x00000000080d8788                gUnknown_080D8788
                0x00000000080d8796                gUnknown_080D8796
                0x00000000080d87d8                gUnknown_080D87D8
                0x00000000080d87e6                gUnknown_080D87E6
                0x00000000080d8808                gUnknown_080D8808
                0x00000000080d8840                gUnknown_080D8840
                0x00000000080d8858                gUnknown_080D8858
                0x00000000080d8864                gUnknown_080D8864
                0x00000000080d8874                gUnknown_080D8874
                0x00000000080d8888                gUnknown_080D8888
                0x00000000080d888a                gUnknown_080D888A
                0x00000000080d8890                gUnknown_080D8890
                0x00000000080d88b0                gUnknown_080D88B0
                0x00000000080d88f0                gUnknown_080D88F0
                0x00000000080d8918                gUnknown_080D8918
                0x00000000080d89a5                gUnknown_080D89A5
                0x00000000080d89ac                gUnknown_080D89AC
                0x00000000080d89c8                gUnknown_080D89C8
                0x00000000080d8a1c                gUnknown_080D8A1C
                0x00000000080d8a34                gUnknown_080D8A34
                0x00000000080d8a4c                gUnknown_080D8A4C
                0x00000000080d8a64                gUnknown_080D8A64
                0x00000000080d8a7c                gUnknown_080D8A7C
                0x00000000080d8a94                gUnknown_080D8A94
                0x00000000080d8aac                gUnknown_080D8AAC
                0x00000000080d8ac4                gUnknown_080D8AC4
                0x00000000080d8adc                gUnknown_080D8ADC
                0x00000000080d8af4                gUnknown_080D8AF4
                0x00000000080d8c4c                gUnknown_080D8C4C
                0x00000000080d8c64                gUnknown_080D8C64
                0x00000000080d8c7c                gUnknown_080D8C7C
                0x00000000080d8c94                gUnknown_080D8C94
                0x00000000080d8d6c                gUnknown_080D8D6C
                0x00000000080d8dcc                gUnknown_080D8DCC
                0x00000000080d8e14                gUnknown_080D8E14
                0x00000000080d8e20                gUnknown_080D8E20
                0x00000000080d8e22                gUnknown_080D8E22
                0x00000000080d8ee0                gUnknown_080D8EE0
                0x00000000080d8ef0                gUnknown_080D8EF0
                0x00000000080d8f10                gUnknown_080D8F10
 build/sa2/asm/enemy_kubinaga.o(.rodata)
 .rodata        0x00000000080d8f30        0x8 build/sa2/asm/enemy_kubinaga.o
                0x00000000080d8f30                gUnknown_080D8F30
 build/sa2/asm/enemy_koura.o(.rodata)
 .rodata        0x00000000080d8f38       0x18 build/sa2/asm/enemy_koura.o
                0x00000000080d8f38                gUnknown_080D8F38
 build/sa2/asm/enemy_geji_geji.o(.rodata)
 .rodata        0x00000000080d8f50       0x20 build/sa2/asm/enemy_geji_geji.o
                0x00000000080d8f50                gUnknown_080D8F50
 build/sa2/src/game/multiplayer/mode_select.o(.rodata)
 .rodata        0x00000000080d8f70       0xe0 build/sa2/src/game/multiplayer/mode_select.o
 build/sa2/src/game/multiplayer/multipak_connection.o(.rodata)
 .rodata        0x00000000080d9050       0x38 build/sa2/src/game/multiplayer/multipak_connection.o
 build/sa2/src/game/multiplayer/communication_outcome.o(.rodata)
 .rodata        0x00000000080d9088       0x78 build/sa2/src/game/multiplayer/communication_outcome.o
 build/sa2/src/game/multiplayer/results.o(.rodata)
 .rodata        0x00000000080d9100      0x1b6 build/sa2/src/game/multiplayer/results.o
 build/sa2/src/game/multiplayer/team_play.o(.rodata)
 *fill*         0x00000000080d92b6        0x2 00000000
 .rodata        0x00000000080d92b8      0x13c build/sa2/src/game/multiplayer/team_play.o
 build/sa2/src/game/interactables_1/decoration.o(.rodata)
 .rodata        0x00000000080d93f4       0x38 build/sa2/src/game/interactables_1/decoration.o
 build/sa2/src/game/interactables_1/booster.o(.rodata)
 .rodata        0x00000000080d942c       0x60 build/sa2/src/game/interactables_1/booster.o
                0x00000000080d942c                sBoosterAnimationData
 build/sa2/src/game/interactables_1/spring_bouncy.o(.rodata)
 .rodata        0x00000000080d948c       0x48 build/sa2/src/game/interactables_1/spring_bouncy.o
 build/sa2/src/game/interactables_1/019.o(.rodata)
 .rodata        0x00000000080d94d4        0x4 build/sa2/src/game/interactables_1/019.o
 build/sa2/src/game/interactables_1/spikes.o(.rodata)
 .rodata        0x00000000080d94d8       0x10 build/sa2/src/game/interactables_1/spikes.o
                0x00000000080d94d8                sSpikesOfZone
 build/sa2/src/game/interactables_1/bouncy_bar.o(.rodata)
 .rodata        0x00000000080d94e8       0x10 build/sa2/src/game/interactables_1/bouncy_bar.o
                0x00000000080d94e8                gUnknown_080D94E8
                0x00000000080d94ee                gUnknown_080D94EE
                0x00000000080d94f2                gUnknown_080D94F2
 build/sa2/src/game/interactables_1/checkpoint.o(.rodata)
 .rodata        0x00000000080d94f8       0x20 build/sa2/src/game/interactables_1/checkpoint.o
 build/sa2/src/game/interactables_1/windmill.o(.rodata)
 .rodata        0x00000000080d9518       0x28 build/sa2/src/game/interactables_1/windmill.o
 build/sa2/src/game/options_screen.o(.rodata)
 .rodata        0x00000000080d9540      0xd30 build/sa2/src/game/options_screen.o
                0x00000000080d95a4                gUnknown_080D95A4
                0x00000000080d95c4                gUnknown_080D95C4
                0x00000000080d95c8                gUnknown_080D95C8
                0x00000000080d95d2                gUnknown_080D95D2
                0x00000000080d95d6                gUnknown_080D95D6
                0x00000000080d95e8                sOptionsScreenTitleText
                0x00000000080d9618                sOptionsScreenMenuItemsText
                0x00000000080d9798                sDifficultyLevelSwitchText
                0x00000000080d97f8                sTimeLimitMenuSwitchText
                0x00000000080d9858                sOptionsScreenSelectedLanguageText
                0x00000000080d9888                sDifficultyMenuTitleText
                0x00000000080d98b8                sDifficultyMenuControlsText
                0x00000000080d98e8                sTimeLimitMenuTitleText
                0x00000000080d9918                sTimeLimitMenuControlsText
                0x00000000080d9948                sButtonConfigTitleAndControlsText
                0x00000000080d99d8                sButtonConfigButtonIcons
                0x00000000080d99f0                sButtonConfigActionsText
                0x00000000080d9a80                sLanguageScreenTitles
                0x00000000080d9ab0                sLanguageScreenEditControlsText
                0x00000000080d9ae0                sLanguageScreenNewControlsText
                0x00000000080d9b10                sLanguageScreenOptionsText
                0x00000000080d9b40                sDeleteScreenConfirmTitleText
                0x00000000080d9b70                sDeleteScreenAbsoluteConfirmTitleText
                0x00000000080d9ba0                sDeleteScreenControlsText
                0x00000000080d9bd0                sDeleteScreenOptionsText
                0x00000000080d9c30                sPlayerDataMenuTitleText
                0x00000000080d9c60                sPlayerDataMenuControlsText
                0x00000000080d9c90                sPlayerDataMenuItemsText
                0x00000000080d9d50                sProfileNameScreenNewTitleText
                0x00000000080d9d80                sProfileNameScreenEditTitleText
                0x00000000080d9db0                sProfileNameScreenArrowTiles
                0x00000000080d9dc0                sProfileNameScreenEndButtonText
                0x00000000080d9df0                sProfileNameScreenScrollArrowTiles
                0x00000000080d9e00                sMultiplayerRecordsTitleAndColumnHeadersText
                0x00000000080d9e60                sMultiplayerScoreDigitTiles
                0x00000000080d9eb0                sTimeRecordsChoiceViewTitles
                0x00000000080d9ee0                sTimeRecordsScreenChoices
                0x00000000080d9f40                sTimeRecordsZoneActTitleDigits
                0x00000000080d9f78                sTimeRecordDigitTiles
                0x00000000080d9fd0                sZoneNameTitles
                0x00000000080da120                sZoneBossTitles
 build/sa2/src/game/special_stage/data.o(.rodata)
 .rodata        0x00000000080da270     0x53f8 build/sa2/src/game/special_stage/data.o
                0x00000000080da270                gUnknown_080DA270
                0x00000000080df040                gUnknown_080DF040
                0x00000000080df2f8                gUnknown_080DF2F8
 build/sa2/src/game/special_stage/player.o(.rodata)
 .rodata        0x00000000080df668       0x64 build/sa2/src/game/special_stage/player.o
 build/sa2/src/game/special_stage/collectables.o(.rodata)
 .rodata        0x00000000080df6cc        0xe build/sa2/src/game/special_stage/collectables.o
                0x00000000080df6cc                gUnknown_080DF6CC
 build/sa2/src/game/special_stage/world.o(.rodata)
 *fill*         0x00000000080df6da        0x2 00000000
 .rodata        0x00000000080df6dc       0xb8 build/sa2/src/game/special_stage/world.o
                0x00000000080df6ec                gUnknown_080DF6EC
 build/sa2/src/game/special_stage/physics.o(.rodata)
 .rodata        0x00000000080df794       0x54 build/sa2/src/game/special_stage/physics.o
 build/sa2/src/game/special_stage/ui.o(.rodata)
 .rodata        0x00000000080df7e8      0x12c build/sa2/src/game/special_stage/ui.o
 build/sa2/src/game/special_stage/guard_robo.o(.rodata)
 .rodata        0x00000000080df914       0x54 build/sa2/src/game/special_stage/guard_robo.o
 build/sa2/src/game/special_stage/tables.o(.rodata)
 .rodata        0x00000000080df968       0xa8 build/sa2/src/game/special_stage/tables.o
                0x00000000080df968                gUnknown_080DF968
                0x00000000080df9a0                gSpecialStageGuardRoboStartPositions
                0x00000000080df9d8                gUnknown_080DF9D8
                0x00000000080dfa02                gSpecialStageScoreTargets
 build/sa2/src/game/interactables_2/hot_crater/dash_ring.o(.rodata)
 .rodata        0x00000000080dfa10      0x1e0 build/sa2/src/game/interactables_2/hot_crater/dash_ring.o
 build/sa2/src/game/interactables_2/music_plant/note_sphere.o(.rodata)
 .rodata        0x00000000080dfbf0       0x50 build/sa2/src/game/interactables_2/music_plant/note_sphere.o
 build/sa2/src/game/interactables_2/music_plant/note_block.o(.rodata)
 .rodata        0x00000000080dfc40       0x48 build/sa2/src/game/interactables_2/music_plant/note_block.o
                0x00000000080dfc40                gUnknown_080DFC40
                0x00000000080dfc6a                gUnknown_080DFC6A
                0x00000000080dfc78                gUnknown_080DFC78
 build/sa2/src/game/interactables_2/music_plant/keyboard.o(.rodata)
 .rodata        0x00000000080dfc88       0x18 build/sa2/src/game/interactables_2/music_plant/keyboard.o
                0x00000000080dfc88                sKeyboardAccelMusicPlant
                0x00000000080dfc94                sKeyboardAccelTechnoBase
 build/sa2/src/game/interactables_2/music_plant/german_flute.o(.rodata)
 .rodata        0x00000000080dfca0       0x10 build/sa2/src/game/interactables_2/music_plant/german_flute.o
 build/sa2/src/game/interactables_2/music_plant/handlers_ia_pipe_horn.o(.rodata)
 .rodata        0x00000000080dfcb0       0x40 build/sa2/src/game/interactables_2/music_plant/handlers_ia_pipe_horn.o
                0x00000000080dfcb0                sPipeHandlers
 build/sa2/data/handlers_ia_pipe_horn_data.o(.rodata)
 .rodata        0x00000000080dfcf0      0x304 build/sa2/data/handlers_ia_pipe_horn_data.o
                0x00000000080dfcf0                gUnknown_080DFCF0
                0x00000000080dfd40                gUnknown_080DFD40
                0x00000000080dfd98                gUnknown_080DFD98
                0x00000000080dfdd8                gUnknown_080DFDD8
                0x00000000080dfe30                gUnknown_080DFE30
                0x00000000080dfe90                gUnknown_080DFE90
                0x00000000080dfeb4                gUnknown_080DFEB4
                0x00000000080dfed0                gUnknown_080DFED0
                0x00000000080dfee4                gUnknown_080DFEE4
                0x00000000080dff3c                gUnknown_080DFF3C
                0x00000000080dff9c                gUnknown_080DFF9C
 build/sa2/src/game/interactables_2/music_plant/pipe_horn.o(.rodata)
 .rodata        0x00000000080dfff4       0x14 build/sa2/src/game/interactables_2/music_plant/pipe_horn.o
 build/sa2/src/game/interactables_2/tec_base/note_block.o(.rodata)
 .rodata        0x00000000080e0008       0x30 build/sa2/src/game/interactables_2/tec_base/note_block.o
 build/sa2/src/game/interactables_2/tec_base/light_bridge.o(.rodata)
 .rodata        0x00000000080e0038       0x7c build/sa2/src/game/interactables_2/tec_base/light_bridge.o
 build/sa2/src/game/interactables_2/tec_base/078.o(.rodata)
 .rodata        0x00000000080e00b4       0x70 build/sa2/src/game/interactables_2/tec_base/078.o
 build/sa2/src/game/interactables_2/sky_canyon/whirlwind.o(.rodata)
 .rodata        0x00000000080e0124       0x1a build/sa2/src/game/interactables_2/sky_canyon/whirlwind.o
 build/sa2/src/game/interactables_2/note_particle.o(.rodata)
 *fill*         0x00000000080e013e        0x2 00000000
 .rodata        0x00000000080e0140       0x28 build/sa2/src/game/interactables_2/note_particle.o
 build/sa2/src/game/multiboot/connection.o(.rodata)
 .rodata        0x00000000080e0168       0xcc build/sa2/src/game/multiboot/connection.o
                0x00000000080e0168                gUnknown_080E0168
 build/sa2/src/game/multiboot/collect_rings/time_display.o(.rodata)
 .rodata        0x00000000080e0234       0x5c build/sa2/src/game/multiboot/collect_rings/time_display.o
                0x00000000080e0234                gUnknown_080E0234
                0x00000000080e0270                gUnknown_080E0270
 build/sa2/asm/math_1.o(.rodata)
 .rodata        0x00000000080e0290        0x4 build/sa2/asm/math_1.o
                0x00000000080e0290                gUnknown_080E0290
 build/sa2/asm/item_box.o(.rodata)
 .rodata        0x00000000080e0294       0x24 build/sa2/asm/item_box.o
                0x00000000080e0294                gUnknown_080E0294
                0x00000000080e029a                gUnknown_080E029A
                0x00000000080e02aa                gUnknown_080E02AA
 build/sa2/src/game/race_progress.o(.rodata)
 .rodata        0x00000000080e02b8       0x22 build/sa2/src/game/race_progress.o
 build/sa2/src/game/unknown_effect.o(.rodata)
 *fill*         0x00000000080e02da        0x2 00000000
 .rodata        0x00000000080e02dc       0x10 build/sa2/src/game/unknown_effect.o
 build/sa2/src/game/multiplayer_lobby.o(.rodata)
 .rodata        0x00000000080e02ec       0x98 build/sa2/src/game/multiplayer_lobby.o
 build/sa2/src/game/time_attack/mode_select.o(.rodata)
 .rodata        0x00000000080e0384       0xf0 build/sa2/src/game/time_attack/mode_select.o
                0x00000000080e0384                gUnknown_080E0384
 build/sa2/src/game/time_attack/lobby.o(.rodata)
 .rodata        0x00000000080e0474      0x150 build/sa2/src/game/time_attack/lobby.o
                0x00000000080e0474                gUnknown_080E0474
                0x00000000080e04c4                gUnknown_080E04C4
                0x00000000080e04d4                gUnknown_080E04D4
 build/sa2/src/game/time_attack/results.o(.rodata)
 .rodata        0x00000000080e05c4       0x20 build/sa2/src/game/time_attack/results.o
                0x00000000080e05c4                gUnknown_080E05C4
 build/sa2/src/game/sound_test.o(.rodata)
 .rodata        0x00000000080e05e4      0x780 build/sa2/src/game/sound_test.o
 build/sa2/src/game/title_screen.o(.rodata)
 .rodata        0x00000000080e0d64      0x3b2 build/sa2/src/game/title_screen.o
                0x00000000080e0d64                gPressStartTiles
 build/sa2/src/game/cutscenes/level_endings.o(.rodata)
 *fill*         0x00000000080e1116        0x2 00000000
 .rodata        0x00000000080e1118      0x12c build/sa2/src/game/cutscenes/level_endings.o
 build/sa2/src/game/cutscenes/credits.o(.rodata)
 .rodata        0x00000000080e1244       0x34 build/sa2/src/game/cutscenes/credits.o
 build/sa2/src/game/cutscenes/credits_slides.o(.rodata)
 .rodata        0x00000000080e1278       0x38 build/sa2/src/game/cutscenes/credits_slides.o
 build/sa2/src/game/cutscenes/credits_end.o(.rodata)
 .rodata        0x00000000080e12b0       0x4c build/sa2/src/game/cutscenes/credits_end.o
 build/sa2/src/game/cutscenes/extra_ending_fall.o(.rodata)
 .rodata        0x00000000080e12fc      0x34c build/sa2/src/game/cutscenes/extra_ending_fall.o
 build/sa2/src/game/cutscenes/final_ending_fall.o(.rodata)
 .rodata        0x00000000080e1648      0x152 build/sa2/src/game/cutscenes/final_ending_fall.o
 build/sa2/src/game/cutscenes/final_ending_land.o(.rodata)
 *fill*         0x00000000080e179a        0x2 00000000
 .rodata        0x00000000080e179c      0x4c0 build/sa2/src/game/cutscenes/final_ending_land.o
 build/sa2/src/game/cutscenes/missing_emeralds.o(.rodata)
 .rodata        0x00000000080e1c5c       0x5c build/sa2/src/game/cutscenes/missing_emeralds.o
 build/sa2/data/data5.o(.rodata)
 .rodata        0x00000000080e1cb8    0x1241c build/sa2/data/data5.o
                0x00000000080e1cb8                gUnknown_080E1CB8
 build/sa2/data/sprite_data.o(.rodata)
 .rodata        0x00000000080f40d4   0x5f5d34 build/sa2/data/sprite_data.o
                0x00000000080f40d4                gSpriteTables
                0x0000000008135ec4                gAnimations
                0x0000000008137078                gUnknown_08137078
                0x000000000814d1c4                gSpriteDimensions
                0x0000000008169c14                gSpriteOamData
                0x000000000816adc8                gSpritePalettes
                0x00000000081709a8                gObjTiles_4bpp
                0x00000000086e9e08                gObjTiles_8bpp
 build/sa2/data/map_data.o(.rodata)
 .rodata        0x00000000086e9e08   0x3e3e70 build/sa2/data/map_data.o
                0x00000000086e9e08                Palette_Stage_LeafForest_Act1
                0x00000000086ea008                Tileset_Stage_LeafForest_Act1
                0x00000000086f12a8                gUnknown_086F12A8
                0x00000000086f2f50                gUnknown_086F2F50
                0x00000000086f32e8                gUnknown_086F32E8
                0x00000000086f33d0                Metatiles_Stage_LeafForest_Act1
                0x000000000870de30                Map_Stage_LeafForest_Act1_FrontLayer
                0x00000000087111b0                Map_Stage_LeafForest_Act1_BackLayer
                0x0000000008714530                MapHeader_LeafForest_Act1_FrontLayer
                0x0000000008714554                MapHeader_LeafForest_Act1_BackLayer
                0x0000000008714578                gUnknown_08714578
                0x000000000871459c                Palette_Stage_LeafForest_Act2
                0x000000000871479c                Tileset_Stage_LeafForest_Act2
                0x000000000871b4dc                gUnknown_0871B4DC
                0x000000000871d02c                gUnknown_0871D02C
                0x000000000871d398                gUnknown_0871D398
                0x000000000871d474                Metatiles_Stage_LeafForest_Act2
                0x00000000087352f4                Map_Stage_LeafForest_Act2_FrontLayer
                0x0000000008737b60                Map_Stage_LeafForest_Act2_BackLayer
                0x000000000873a3cc                MapHeader_LeafForest_Act2_FrontLayer
                0x000000000873a3f0                MapHeader_LeafForest_Act2_BackLayer
                0x000000000873a414                gUnknown_0873A414
                0x000000000873a438                Palette_Stage_LeafForest_Boss
                0x000000000873a638                Tileset_Stage_LeafForest_Boss
                0x000000000873b438                gUnknown_0873B438
                0x000000000873b7b8                gUnknown_0873B7B8
                0x000000000873b828                gUnknown_0873B828
                0x000000000873b844                Metatiles_Stage_LeafForest_Boss
                0x000000000873bde4                Map_Stage_LeafForest_Boss_FrontLayer
                0x000000000873bf4c                Map_Stage_LeafForest_Boss_BackLayer
                0x000000000873c0b4                MapHeader_LeafForest_Boss_FrontLayer
                0x000000000873c0d8                MapHeader_LeafForest_Boss_BackLayer
                0x000000000873c0fc                gUnknown_087C0FC
 build/sa2/src/lib/m4a_tables.o(.rodata)
 .rodata        0x0000000008acdc78      0x2d8 build/sa2/src/lib/m4a_tables.o
                0x0000000008acdc78                gMPlayJumpTableTemplate
                0x0000000008acdd08                gScaleTable
                0x0000000008acddbc                gFreqTable
                0x0000000008acddec                gPcmSamplesPerVBlankTable
                0x0000000008acde04                gCgbScaleTable
                0x0000000008acde88                gCgbFreqTable
                0x0000000008acdea0                gNoiseTable
                0x0000000008acdedc                gCgb3Vol
                0x0000000008acdeec                gClockTable
                0x0000000008acdf20                gXcmdTable
 build/sa2/data/sound_data.o(.rodata)
 .rodata        0x0000000008acdf50   0x18564b build/sa2/data/sound_data.o
                0x0000000008acdf50                voicegroup000
                0x0000000008ace3a0                voicegroup001
                0x0000000008ace550                voicegroup002
                0x0000000008ace784                voicegroup003
                0x0000000008acebd4                voicegroup004
                0x0000000008aced90                voicegroup005
                0x0000000008acf384                voicegroup006
                0x0000000008acf510                voicegroup007
                0x0000000008acfb10                voicegroup008
                0x0000000008ad0110                voicegroup009
                0x0000000008ad0710                voicegroup010
                0x0000000008ad0d10                voicegroup011
                0x0000000008ad1160                voicegroup012
                0x0000000008ad1544                voicegroup013
                0x0000000008ad1b44                voicegroup014
                0x0000000008ad1f94                voicegroup015
                0x0000000008ad2108                voicegroup016
                0x0000000008ad2558                voicegroup017
                0x0000000008ad2948                voicegroup018
                0x0000000008ad2abc                voicegroup019
                0x0000000008ad30bc                voicegroup020
                0x0000000008ad36bc                voicegroup021
                0x0000000008ad3cbc                voicegroup022
                0x0000000008ad42bc                voicegroup023
                0x0000000008ad470c                voicegroup024
                0x0000000008ad4f1c                gMPlayTable
                0x0000000008ad4f4c                gSongTable
                0x0000000008ad5f28                DirectSoundWaveData_1
                0x0000000008ad73fc                DirectSoundWaveData_2
                0x0000000008ad8810                DirectSoundWaveData_3
                0x0000000008ad9140                DirectSoundWaveData_4
                0x0000000008ad98b0                DirectSoundWaveData_5
                0x0000000008adb1a4                DirectSoundWaveData_6
                0x0000000008ade2d0                DirectSoundWaveData_7
                0x0000000008ade918                DirectSoundWaveData_8
                0x0000000008ae200c                DirectSoundWaveData_9
                0x0000000008ae4fe8                DirectSoundWaveData_10
                0x0000000008ae7f2c                DirectSoundWaveData_11
                0x0000000008ae98b4                DirectSoundWaveData_12
                0x0000000008ae9bb4                DirectSoundWaveData_13
                0x0000000008aea788                DirectSoundWaveData_14
                0x0000000008aed36c                DirectSoundWaveData_15
                0x0000000008af0160                DirectSoundWaveData_16
                0x0000000008af2584                DirectSoundWaveData_17
 build/sa2/sound/songs/midi/mus_intro.o(.rodata)
 *fill*         0x0000000008c5359b        0x1 00000000
 .rodata        0x0000000008c5359c      0x8d0 build/sa2/sound/songs/midi/mus_intro.o
                0x0000000008c53e40                mus_intro
 build/sa2/sound/songs/midi/mus_title_fanfare.o(.rodata)
 .rodata        0x0000000008c53e6c      0x314 build/sa2/sound/songs/midi/mus_title_fanfare.o
                0x0000000008c5415c                mus_title_fanfare
 build/sa2/sound/songs/midi/mus_character_selection.o(.rodata)
 .rodata        0x0000000008c54180      0x2f4 build/sa2/sound/songs/midi/mus_character_selection.o
                0x0000000008c54460                mus_character_selection
 build/sa2/sound/songs/midi/mus_ta_course_selection.o(.rodata)
 .rodata        0x0000000008c54474      0x66c build/sa2/sound/songs/midi/mus_ta_course_selection.o
                0x0000000008c54ab8                mus_ta_course_selection
 build/sa2/sound/songs/midi/mus_course_selection_2.o(.rodata)
 .rodata        0x0000000008c54ae0      0x7f4 build/sa2/sound/songs/midi/mus_course_selection_2.o
                0x0000000008c552a4                mus_course_selection_2
 build/sa2/sound/songs/midi/mus_course_selection_3.o(.rodata)
 .rodata        0x0000000008c552d4      0x6d0 build/sa2/sound/songs/midi/mus_course_selection_3.o
                0x0000000008c55974                mus_course_selection_3
 build/sa2/sound/songs/midi/mus_time_attack_menu.o(.rodata)
 .rodata        0x0000000008c559a4      0x7f0 build/sa2/sound/songs/midi/mus_time_attack_menu.o
                0x0000000008c56174                mus_time_attack_menu
 build/sa2/sound/songs/midi/mus_options.o(.rodata)
 .rodata        0x0000000008c56194      0xd14 build/sa2/sound/songs/midi/mus_options.o
                0x0000000008c56e78                mus_options
 build/sa2/sound/songs/midi/mus_leaf_forest__act_1.o(.rodata)
 .rodata        0x0000000008c56ea8     0x13ac build/sa2/sound/songs/midi/mus_leaf_forest__act_1.o
                0x0000000008c5820c                mus_leaf_forest__act_1
 build/sa2/sound/songs/midi/mus_leaf_forest__act_2.o(.rodata)
 .rodata        0x0000000008c58254     0x1248 build/sa2/sound/songs/midi/mus_leaf_forest__act_2.o
                0x0000000008c59458                mus_leaf_forest__act_2
 build/sa2/sound/songs/midi/mus_hot_crater__act_1.o(.rodata)
 .rodata        0x0000000008c5949c      0xd9c build/sa2/sound/songs/midi/mus_hot_crater__act_1.o
                0x0000000008c5a208                mus_hot_crater__act_1
 build/sa2/sound/songs/midi/mus_hot_crater__act_2.o(.rodata)
 .rodata        0x0000000008c5a238     0x1280 build/sa2/sound/songs/midi/mus_hot_crater__act_2.o
                0x0000000008c5b47c                mus_hot_crater__act_2
 build/sa2/sound/songs/midi/mus_music_plant__act_1.o(.rodata)
 .rodata        0x0000000008c5b4b8     0x1244 build/sa2/sound/songs/midi/mus_music_plant__act_1.o
                0x0000000008c5c6cc                mus_music_plant__act_1
 build/sa2/sound/songs/midi/mus_music_plant__act_2.o(.rodata)
 .rodata        0x0000000008c5c6fc     0x16d8 build/sa2/sound/songs/midi/mus_music_plant__act_2.o
                0x0000000008c5dd98                mus_music_plant__act_2
 build/sa2/sound/songs/midi/mus_ice_paradise__act_1.o(.rodata)
 .rodata        0x0000000008c5ddd4     0x1b78 build/sa2/sound/songs/midi/mus_ice_paradise__act_1.o
                0x0000000008c5f90c                mus_ice_paradise__act_1
 build/sa2/sound/songs/midi/mus_ice_paradise__act_2.o(.rodata)
 .rodata        0x0000000008c5f94c     0x2e18 build/sa2/sound/songs/midi/mus_ice_paradise__act_2.o
                0x0000000008c6271c                mus_ice_paradise__act_2
 build/sa2/sound/songs/midi/mus_sky_canyon__act_1.o(.rodata)
 .rodata        0x0000000008c62764     0x1198 build/sa2/sound/songs/midi/mus_sky_canyon__act_1.o
                0x0000000008c638c8                mus_sky_canyon__act_1
 build/sa2/sound/songs/midi/mus_sky_canyon__act_2.o(.rodata)
 .rodata        0x0000000008c638fc     0x1454 build/sa2/sound/songs/midi/mus_sky_canyon__act_2.o
                0x0000000008c64d24                mus_sky_canyon__act_2
 build/sa2/sound/songs/midi/mus_techno_base__act_1.o(.rodata)
 .rodata        0x0000000008c64d50     0x1cc8 build/sa2/sound/songs/midi/mus_techno_base__act_1.o
                0x0000000008c669d8                mus_techno_base__act_1
 build/sa2/sound/songs/midi/mus_techno_base__act_2.o(.rodata)
 .rodata        0x0000000008c66a18     0x3054 build/sa2/sound/songs/midi/mus_techno_base__act_2.o
                0x0000000008c69a24                mus_techno_base__act_2
 build/sa2/sound/songs/midi/mus_egg_utopia__act_1.o(.rodata)
 .rodata        0x0000000008c69a6c     0x1184 build/sa2/sound/songs/midi/mus_egg_utopia__act_1.o
                0x0000000008c6abbc                mus_egg_utopia__act_1
 build/sa2/sound/songs/midi/mus_egg_utopia__act_2.o(.rodata)
 .rodata        0x0000000008c6abf0      0xe70 build/sa2/sound/songs/midi/mus_egg_utopia__act_2.o
                0x0000000008c6ba2c                mus_egg_utopia__act_2
 build/sa2/sound/songs/midi/mus_xx__final_zone.o(.rodata)
 .rodata        0x0000000008c6ba60      0x800 build/sa2/sound/songs/midi/mus_xx__final_zone.o
                0x0000000008c6c23c                mus_xx__final_zone
 build/sa2/sound/songs/midi/mus_true_area_53.o(.rodata)
 .rodata        0x0000000008c6c260     0x12c0 build/sa2/sound/songs/midi/mus_true_area_53.o
                0x0000000008c6d4ec                mus_true_area_53
 build/sa2/sound/songs/midi/mus_invincibility.o(.rodata)
 .rodata        0x0000000008c6d520      0x804 build/sa2/sound/songs/midi/mus_invincibility.o
                0x0000000008c6dcfc                mus_invincibility
 build/sa2/sound/songs/midi/mus_drowning.o(.rodata)
 .rodata        0x0000000008c6dd24      0x1ac build/sa2/sound/songs/midi/mus_drowning.o
                0x0000000008c6debc                mus_drowning
 build/sa2/sound/songs/midi/mus_boss.o(.rodata)
 .rodata        0x0000000008c6ded0     0x1618 build/sa2/sound/songs/midi/mus_boss.o
                0x0000000008c6f4c0                mus_boss
 build/sa2/sound/songs/midi/mus_boss_pinch.o(.rodata)
 .rodata        0x0000000008c6f4e8      0x780 build/sa2/sound/songs/midi/mus_boss_pinch.o
                0x0000000008c6fc3c                mus_boss_pinch
 build/sa2/sound/songs/midi/mus_boss_knuckles.o(.rodata)
 .rodata        0x0000000008c6fc68     0x33dc build/sa2/sound/songs/midi/mus_boss_knuckles.o
                0x0000000008c73008                mus_boss_knuckles
 build/sa2/sound/songs/midi/mus_7_boss.o(.rodata)
 .rodata        0x0000000008c73044     0x1214 build/sa2/sound/songs/midi/mus_7_boss.o
                0x0000000008c74210                mus_7_boss
 build/sa2/sound/songs/midi/mus_7_boss_pinch.o(.rodata)
 .rodata        0x0000000008c74258      0xd18 build/sa2/sound/songs/midi/mus_7_boss_pinch.o
                0x0000000008c74f3c                mus_7_boss_pinch
 build/sa2/sound/songs/midi/mus_final_boss.o(.rodata)
 .rodata        0x0000000008c74f70      0xcdc build/sa2/sound/songs/midi/mus_final_boss.o
                0x0000000008c75c14                mus_final_boss
 build/sa2/sound/songs/midi/mus_final_boss_pinch.o(.rodata)
 .rodata        0x0000000008c75c4c      0x70c build/sa2/sound/songs/midi/mus_final_boss_pinch.o
                0x0000000008c7632c                mus_final_boss_pinch
 build/sa2/sound/songs/midi/mus_game_over.o(.rodata)
 .rodata        0x0000000008c76358      0x1bc build/sa2/sound/songs/midi/mus_game_over.o
                0x0000000008c764fc                mus_game_over
 build/sa2/sound/songs/midi/mus_final_ending.o(.rodata)
 .rodata        0x0000000008c76514      0xa0c build/sa2/sound/songs/midi/mus_final_ending.o
                0x0000000008c76ef8                mus_final_ending
 build/sa2/sound/songs/midi/mus_extra_ending.o(.rodata)
 .rodata        0x0000000008c76f20     0x138c build/sa2/sound/songs/midi/mus_extra_ending.o
                0x0000000008c78270                mus_extra_ending
 build/sa2/sound/songs/midi/mus_staff_credits.o(.rodata)
 .rodata        0x0000000008c782ac     0x1e0c build/sa2/sound/songs/midi/mus_staff_credits.o
                0x0000000008c7a070                mus_staff_credits
 build/sa2/sound/songs/midi/mus_demo_1.o(.rodata)
 .rodata        0x0000000008c7a0b8      0xcf0 build/sa2/sound/songs/midi/mus_demo_1.o
                0x0000000008c7ad88                mus_demo_1
 build/sa2/sound/songs/midi/mus_demo_2.o(.rodata)
 .rodata        0x0000000008c7ada8      0x6a8 build/sa2/sound/songs/midi/mus_demo_2.o
                0x0000000008c7b430                mus_demo_2
 build/sa2/sound/songs/midi/mus_extra_demo_1.o(.rodata)
 .rodata        0x0000000008c7b450      0xb20 build/sa2/sound/songs/midi/mus_extra_demo_1.o
                0x0000000008c7bf48                mus_extra_demo_1
 build/sa2/sound/songs/midi/mus_extra_demo_2.o(.rodata)
 .rodata        0x0000000008c7bf70      0xd50 build/sa2/sound/songs/midi/mus_extra_demo_2.o
                0x0000000008c7cc88                mus_extra_demo_2
 build/sa2/sound/songs/midi/mus_special_stage_intro.o(.rodata)
 .rodata        0x0000000008c7ccc0      0x128 build/sa2/sound/songs/midi/mus_special_stage_intro.o
                0x0000000008c7cdcc                mus_special_stage_intro
 build/sa2/sound/songs/midi/mus_special_stage.o(.rodata)
 .rodata        0x0000000008c7cde8      0xc60 build/sa2/sound/songs/midi/mus_special_stage.o
                0x0000000008c7da24                mus_special_stage
 build/sa2/sound/songs/midi/mus_special_stage_pinch.o(.rodata)
 .rodata        0x0000000008c7da48      0x6cc build/sa2/sound/songs/midi/mus_special_stage_pinch.o
                0x0000000008c7e0f8                mus_special_stage_pinch
 build/sa2/sound/songs/midi/mus_achievement.o(.rodata)
 .rodata        0x0000000008c7e114       0xf8 build/sa2/sound/songs/midi/mus_achievement.o
                0x0000000008c7e1f0                mus_achievement
 build/sa2/sound/songs/midi/mus_special_stage_clear.o(.rodata)
 .rodata        0x0000000008c7e20c      0x1bc build/sa2/sound/songs/midi/mus_special_stage_clear.o
                0x0000000008c7e3a8                mus_special_stage_clear
 build/sa2/sound/songs/midi/mus_special_stage_result.o(.rodata)
 .rodata        0x0000000008c7e3c8      0x534 build/sa2/sound/songs/midi/mus_special_stage_result.o
                0x0000000008c7e8dc                mus_special_stage_result
 build/sa2/sound/songs/midi/mus_chaos_emerald.o(.rodata)
 .rodata        0x0000000008c7e8fc      0x16c build/sa2/sound/songs/midi/mus_chaos_emerald.o
                0x0000000008c7ea40                mus_chaos_emerald
 build/sa2/sound/songs/midi/mus_special_stage_result_lose.o(.rodata)
 .rodata        0x0000000008c7ea68      0x17c build/sa2/sound/songs/midi/mus_special_stage_result_lose.o
                0x0000000008c7ebc8                mus_special_stage_result_lose
 build/sa2/sound/songs/midi/mus_vs_2.o(.rodata)
 .rodata        0x0000000008c7ebe4      0xcc8 build/sa2/sound/songs/midi/mus_vs_2.o
                0x0000000008c7f888                mus_vs_2
 build/sa2/sound/songs/midi/mus_vs_3.o(.rodata)
 .rodata        0x0000000008c7f8ac      0x37c build/sa2/sound/songs/midi/mus_vs_3.o
                0x0000000008c7fc04                mus_vs_3
 build/sa2/sound/songs/midi/mus_connection_pending.o(.rodata)
 .rodata        0x0000000008c7fc28      0x3f0 build/sa2/sound/songs/midi/mus_connection_pending.o
                0x0000000008c7fff4                mus_connection_pending
 build/sa2/sound/songs/midi/mus_vs_lobby.o(.rodata)
 .rodata        0x0000000008c80018      0x588 build/sa2/sound/songs/midi/mus_vs_lobby.o
                0x0000000008c8057c                mus_vs_lobby
 build/sa2/sound/songs/midi/mus_vs_select_pak_mode.o(.rodata)
 .rodata        0x0000000008c805a0      0x6e8 build/sa2/sound/songs/midi/mus_vs_select_pak_mode.o
                0x0000000008c80c64                mus_vs_select_pak_mode
 build/sa2/sound/songs/midi/se_ring.o(.rodata)
 .rodata        0x0000000008c80c88       0x1c build/sa2/sound/songs/midi/se_ring.o
                0x0000000008c80c98                se_ring
 build/sa2/sound/songs/midi/se_shift.o(.rodata)
 .rodata        0x0000000008c80ca4       0x4c build/sa2/sound/songs/midi/se_shift.o
                0x0000000008c80ce4                se_shift
 build/sa2/sound/songs/midi/se_success.o(.rodata)
 .rodata        0x0000000008c80cf0       0x30 build/sa2/sound/songs/midi/se_success.o
                0x0000000008c80d14                se_success
 build/sa2/sound/songs/midi/se_abort.o(.rodata)
 .rodata        0x0000000008c80d20       0x28 build/sa2/sound/songs/midi/se_abort.o
                0x0000000008c80d3c                se_abort
 build/sa2/sound/songs/midi/se_select.o(.rodata)
 .rodata        0x0000000008c80d48       0x28 build/sa2/sound/songs/midi/se_select.o
                0x0000000008c80d64                se_select
 build/sa2/sound/songs/midi/se_return.o(.rodata)
 .rodata        0x0000000008c80d70       0x24 build/sa2/sound/songs/midi/se_return.o
                0x0000000008c80d88                se_return
 build/sa2/sound/songs/midi/se_menu_cursor_move.o(.rodata)
 .rodata        0x0000000008c80d94       0x20 build/sa2/sound/songs/midi/se_menu_cursor_move.o
                0x0000000008c80da8                se_menu_cursor_move
 build/sa2/sound/songs/midi/se_spin_attack.o(.rodata)
 .rodata        0x0000000008c80db4       0x20 build/sa2/sound/songs/midi/se_spin_attack.o
                0x0000000008c80dc8                se_spin_attack
 build/sa2/sound/songs/midi/se_spin_dash_release.o(.rodata)
 .rodata        0x0000000008c80dd4       0xcc build/sa2/sound/songs/midi/se_spin_dash_release.o
                0x0000000008c80e94                se_spin_dash_release
 build/sa2/sound/songs/midi/se_sonic_skid_attack.o(.rodata)
 .rodata        0x0000000008c80ea0       0x24 build/sa2/sound/songs/midi/se_sonic_skid_attack.o
                0x0000000008c80eb8                se_sonic_skid_attack
 build/sa2/sound/songs/midi/se_sonic_midair_somersault.o(.rodata)
 .rodata        0x0000000008c80ec4       0x64 build/sa2/sound/songs/midi/se_sonic_midair_somersault.o
                0x0000000008c80f1c                se_sonic_midair_somersault
 build/sa2/sound/songs/midi/se_sonic_insta_shield.o(.rodata)
 .rodata        0x0000000008c80f28       0xa8 build/sa2/sound/songs/midi/se_sonic_insta_shield.o
                0x0000000008c80fc4                se_sonic_insta_shield
 build/sa2/sound/songs/midi/se_114.o(.rodata)
 .rodata        0x0000000008c80fd0       0x3c build/sa2/sound/songs/midi/se_114.o
                0x0000000008c81000                se_114
 build/sa2/sound/songs/midi/se_brake.o(.rodata)
 .rodata        0x0000000008c8100c       0x5c build/sa2/sound/songs/midi/se_brake.o
                0x0000000008c8105c                se_brake
 build/sa2/sound/songs/midi/se_jump.o(.rodata)
 .rodata        0x0000000008c81068       0x4c build/sa2/sound/songs/midi/se_jump.o
                0x0000000008c810a8                se_jump
 build/sa2/sound/songs/midi/se_ring_copy.o(.rodata)
 .rodata        0x0000000008c810b4       0x1c build/sa2/sound/songs/midi/se_ring_copy.o
                0x0000000008c810c4                se_ring_copy
 build/sa2/sound/songs/midi/se_rings_lost.o(.rodata)
 .rodata        0x0000000008c810d0       0x1c build/sa2/sound/songs/midi/se_rings_lost.o
                0x0000000008c810e0                se_rings_lost
 build/sa2/sound/songs/midi/se_life_lost.o(.rodata)
 .rodata        0x0000000008c810ec       0x24 build/sa2/sound/songs/midi/se_life_lost.o
                0x0000000008c81104                se_life_lost
 build/sa2/sound/songs/midi/se_tails_propeller_flying.o(.rodata)
 .rodata        0x0000000008c81110       0x68 build/sa2/sound/songs/midi/se_tails_propeller_flying.o
                0x0000000008c8116c                se_tails_propeller_flying
 build/sa2/sound/songs/midi/se_tails_tail_swipe.o(.rodata)
 .rodata        0x0000000008c81178       0x24 build/sa2/sound/songs/midi/se_tails_tail_swipe.o
                0x0000000008c81190                se_tails_tail_swipe
 build/sa2/sound/songs/midi/se_125.o(.rodata)
 .rodata        0x0000000008c8119c       0xe0 build/sa2/sound/songs/midi/se_125.o
                0x0000000008c81270                se_125
 build/sa2/sound/songs/midi/se_126.o(.rodata)
 .rodata        0x0000000008c8127c       0xe0 build/sa2/sound/songs/midi/se_126.o
                0x0000000008c81350                se_126
 build/sa2/sound/songs/midi/se_127.o(.rodata)
 .rodata        0x0000000008c8135c       0xf4 build/sa2/sound/songs/midi/se_127.o
                0x0000000008c81444                se_127
 build/sa2/sound/songs/midi/se_amy_ground_hammer.o(.rodata)
 .rodata        0x0000000008c81450       0x1c build/sa2/sound/songs/midi/se_amy_ground_hammer.o
                0x0000000008c81460                se_amy_ground_hammer
 build/sa2/sound/songs/midi/se_amy_super_hammer_attack.o(.rodata)
 .rodata        0x0000000008c8146c       0x1c build/sa2/sound/songs/midi/se_amy_super_hammer_attack.o
                0x0000000008c8147c                se_amy_super_hammer_attack
 build/sa2/sound/songs/midi/se_amy_hammer_swirl.o(.rodata)
 .rodata        0x0000000008c81488       0x74 build/sa2/sound/songs/midi/se_amy_hammer_swirl.o
                0x0000000008c814f0                se_amy_hammer_swirl
 build/sa2/sound/songs/midi/se_sa1_goal_post.o(.rodata)
 .rodata        0x0000000008c814fc       0x20 build/sa2/sound/songs/midi/se_sa1_goal_post.o
                0x0000000008c81510                se_sa1_goal_post
 build/sa2/sound/songs/midi/se_item_box.o(.rodata)
 .rodata        0x0000000008c8151c       0x60 build/sa2/sound/songs/midi/se_item_box.o
                0x0000000008c8156c                se_item_box
 build/sa2/sound/songs/midi/se_timer.o(.rodata)
 .rodata        0x0000000008c8157c       0x28 build/sa2/sound/songs/midi/se_timer.o
                0x0000000008c81598                se_timer
 build/sa2/sound/songs/midi/se_stage_result_counter.o(.rodata)
 .rodata        0x0000000008c815a4       0x20 build/sa2/sound/songs/midi/se_stage_result_counter.o
                0x0000000008c815b8                se_stage_result_counter
 build/sa2/sound/songs/midi/se_stage_result_counter_done.o(.rodata)
 .rodata        0x0000000008c815c4       0x20 build/sa2/sound/songs/midi/se_stage_result_counter_done.o
                0x0000000008c815d8                se_stage_result_counter_done
 build/sa2/sound/songs/midi/se_pause_screen.o(.rodata)
 .rodata        0x0000000008c815e4       0x2c build/sa2/sound/songs/midi/se_pause_screen.o
                0x0000000008c81604                se_pause_screen
 build/sa2/sound/songs/midi/se_143.o(.rodata)
 .rodata        0x0000000008c81610       0xd0 build/sa2/sound/songs/midi/se_143.o
                0x0000000008c816d4                se_143
 build/sa2/sound/songs/midi/se_144.o(.rodata)
 .rodata        0x0000000008c816e0       0x24 build/sa2/sound/songs/midi/se_144.o
                0x0000000008c816f8                se_144
 build/sa2/sound/songs/midi/se_145.o(.rodata)
 .rodata        0x0000000008c81704       0xd0 build/sa2/sound/songs/midi/se_145.o
                0x0000000008c817c8                se_145
 build/sa2/sound/songs/midi/se_146.o(.rodata)
 .rodata        0x0000000008c817d4       0x54 build/sa2/sound/songs/midi/se_146.o
                0x0000000008c8181c                se_146
 build/sa2/sound/songs/midi/se_spin.o(.rodata)
 .rodata        0x0000000008c81828       0x20 build/sa2/sound/songs/midi/se_spin.o
                0x0000000008c8183c                se_spin
 build/sa2/sound/songs/midi/se_148.o(.rodata)
 .rodata        0x0000000008c81848       0x4c build/sa2/sound/songs/midi/se_148.o
                0x0000000008c81888                se_148
 build/sa2/sound/songs/midi/se_149.o(.rodata)
 .rodata        0x0000000008c81894       0x60 build/sa2/sound/songs/midi/se_149.o
                0x0000000008c818e8                se_149
 build/sa2/sound/songs/midi/se_item_box_2.o(.rodata)
 .rodata        0x0000000008c818f4       0x60 build/sa2/sound/songs/midi/se_item_box_2.o
                0x0000000008c81944                se_item_box_2
 build/sa2/sound/songs/midi/se_151.o(.rodata)
 .rodata        0x0000000008c81954       0x28 build/sa2/sound/songs/midi/se_151.o
                0x0000000008c81970                se_151
 build/sa2/sound/songs/midi/se_checkpoint.o(.rodata)
 .rodata        0x0000000008c8197c       0x28 build/sa2/sound/songs/midi/se_checkpoint.o
                0x0000000008c81998                se_checkpoint
 build/sa2/sound/songs/midi/se_spring.o(.rodata)
 .rodata        0x0000000008c819a4       0x4c build/sa2/sound/songs/midi/se_spring.o
                0x0000000008c819e4                se_spring
 build/sa2/sound/songs/midi/se_spikes.o(.rodata)
 .rodata        0x0000000008c819f0       0x74 build/sa2/sound/songs/midi/se_spikes.o
                0x0000000008c81a58                se_spikes
 build/sa2/sound/songs/midi/se_speed_booster.o(.rodata)
 .rodata        0x0000000008c81a64       0xe0 build/sa2/sound/songs/midi/se_speed_booster.o
                0x0000000008c81b38                se_speed_booster
 build/sa2/sound/songs/midi/se_156.o(.rodata)
 .rodata        0x0000000008c81b44       0xb4 build/sa2/sound/songs/midi/se_156.o
                0x0000000008c81bec                se_156
 build/sa2/sound/songs/midi/se_157.o(.rodata)
 .rodata        0x0000000008c81bf8       0x44 build/sa2/sound/songs/midi/se_157.o
                0x0000000008c81c30                se_157
 build/sa2/sound/songs/midi/se_air_bubble.o(.rodata)
 .rodata        0x0000000008c81c3c       0x54 build/sa2/sound/songs/midi/se_air_bubble.o
                0x0000000008c81c84                se_air_bubble
 build/sa2/sound/songs/midi/se_alarm_1.o(.rodata)
 .rodata        0x0000000008c81c90       0x20 build/sa2/sound/songs/midi/se_alarm_1.o
                0x0000000008c81ca4                se_alarm_1
 build/sa2/sound/songs/midi/se_alarm_2.o(.rodata)
 .rodata        0x0000000008c81cb0       0x20 build/sa2/sound/songs/midi/se_alarm_2.o
                0x0000000008c81cc4                se_alarm_2
 build/sa2/sound/songs/midi/se_alarm_3.o(.rodata)
 .rodata        0x0000000008c81cd0       0x20 build/sa2/sound/songs/midi/se_alarm_3.o
                0x0000000008c81ce4                se_alarm_3
 build/sa2/sound/songs/midi/se_alarm_4.o(.rodata)
 .rodata        0x0000000008c81cf0       0x20 build/sa2/sound/songs/midi/se_alarm_4.o
                0x0000000008c81d04                se_alarm_4
 build/sa2/sound/songs/midi/se_alarm_5.o(.rodata)
 .rodata        0x0000000008c81d10       0x20 build/sa2/sound/songs/midi/se_alarm_5.o
                0x0000000008c81d24                se_alarm_5
 build/sa2/sound/songs/midi/se_alarm_6.o(.rodata)
 .rodata        0x0000000008c81d30       0x20 build/sa2/sound/songs/midi/se_alarm_6.o
                0x0000000008c81d44                se_alarm_6
 build/sa2/sound/songs/midi/se_alarm_7.o(.rodata)
 .rodata        0x0000000008c81d50       0x20 build/sa2/sound/songs/midi/se_alarm_7.o
                0x0000000008c81d64                se_alarm_7
 build/sa2/sound/songs/midi/se_alarm_8.o(.rodata)
 .rodata        0x0000000008c81d70       0x20 build/sa2/sound/songs/midi/se_alarm_8.o
                0x0000000008c81d84                se_alarm_8
 build/sa2/sound/songs/midi/se_alarm_9.o(.rodata)
 .rodata        0x0000000008c81d90       0x20 build/sa2/sound/songs/midi/se_alarm_9.o
                0x0000000008c81da4                se_alarm_9
 build/sa2/sound/songs/midi/se_alarm_10.o(.rodata)
 .rodata        0x0000000008c81db0       0x20 build/sa2/sound/songs/midi/se_alarm_10.o
                0x0000000008c81dc4                se_alarm_10
 build/sa2/sound/songs/midi/se_springy_pole.o(.rodata)
 .rodata        0x0000000008c81dd0       0xb8 build/sa2/sound/songs/midi/se_springy_pole.o
                0x0000000008c81e7c                se_springy_pole
 build/sa2/sound/songs/midi/se_springy_spring.o(.rodata)
 .rodata        0x0000000008c81e88       0xb8 build/sa2/sound/songs/midi/se_springy_spring.o
                0x0000000008c81f34                se_springy_spring
 build/sa2/sound/songs/midi/voice__announcer__sonic_advance_2.o(.rodata)
 .rodata        0x0000000008c81f40       0x1c build/sa2/sound/songs/midi/voice__announcer__sonic_advance_2.o
                0x0000000008c81f50                voice__announcer__sonic_advance_2
 build/sa2/sound/songs/midi/voice__announcer__sonic.o(.rodata)
 .rodata        0x0000000008c81f5c       0x1c build/sa2/sound/songs/midi/voice__announcer__sonic.o
                0x0000000008c81f6c                voice__announcer__sonic
 build/sa2/sound/songs/midi/voice__announcer__tails.o(.rodata)
 .rodata        0x0000000008c81f78       0x1c build/sa2/sound/songs/midi/voice__announcer__tails.o
                0x0000000008c81f88                voice__announcer__tails
 build/sa2/sound/songs/midi/voice__announcer__knuckles.o(.rodata)
 .rodata        0x0000000008c81f94       0x1c build/sa2/sound/songs/midi/voice__announcer__knuckles.o
                0x0000000008c81fa4                voice__announcer__knuckles
 build/sa2/sound/songs/midi/voice__announcer__amy.o(.rodata)
 .rodata        0x0000000008c81fb0       0x1c build/sa2/sound/songs/midi/voice__announcer__amy.o
                0x0000000008c81fc0                voice__announcer__amy
 build/sa2/sound/songs/midi/voice__announcer__cream.o(.rodata)
 .rodata        0x0000000008c81fcc       0x1c build/sa2/sound/songs/midi/voice__announcer__cream.o
                0x0000000008c81fdc                voice__announcer__cream
 build/sa2/sound/songs/midi/voice__announcer__3.o(.rodata)
 .rodata        0x0000000008c81fe8       0x1c build/sa2/sound/songs/midi/voice__announcer__3.o
                0x0000000008c81ff8                voice__announcer__3
 build/sa2/sound/songs/midi/voice__announcer__2.o(.rodata)
 .rodata        0x0000000008c82004       0x1c build/sa2/sound/songs/midi/voice__announcer__2.o
                0x0000000008c82014                voice__announcer__2
 build/sa2/sound/songs/midi/voice__announcer__1.o(.rodata)
 .rodata        0x0000000008c82020       0x1c build/sa2/sound/songs/midi/voice__announcer__1.o
                0x0000000008c82030                voice__announcer__1
 build/sa2/sound/songs/midi/voice__announcer__go.o(.rodata)
 .rodata        0x0000000008c8203c       0x1c build/sa2/sound/songs/midi/voice__announcer__go.o
                0x0000000008c8204c                voice__announcer__go
 build/sa2/sound/songs/midi/voice__announcer__congratulations.o(.rodata)
 .rodata        0x0000000008c82058       0x1c build/sa2/sound/songs/midi/voice__announcer__congratulations.o
                0x0000000008c82068                voice__announcer__congratulations
 build/sa2/sound/songs/midi/se_map_move.o(.rodata)
 .rodata        0x0000000008c82074       0x94 build/sa2/sound/songs/midi/se_map_move.o
                0x0000000008c820fc                se_map_move
 build/sa2/sound/songs/midi/se_map_214.o(.rodata)
 .rodata        0x0000000008c82108       0xa0 build/sa2/sound/songs/midi/se_map_214.o
                0x0000000008c8219c                se_map_214
 build/sa2/sound/songs/midi/se_map_move_end.o(.rodata)
 .rodata        0x0000000008c821a8       0x94 build/sa2/sound/songs/midi/se_map_move_end.o
                0x0000000008c82230                se_map_move_end
 build/sa2/sound/songs/midi/se_216.o(.rodata)
 .rodata        0x0000000008c8223c       0xa8 build/sa2/sound/songs/midi/se_216.o
                0x0000000008c822d8                se_216
 build/sa2/sound/songs/midi/se_217.o(.rodata)
 .rodata        0x0000000008c822e4       0x5c build/sa2/sound/songs/midi/se_217.o
                0x0000000008c82334                se_217
 build/sa2/sound/songs/midi/se_218.o(.rodata)
 .rodata        0x0000000008c82340       0x44 build/sa2/sound/songs/midi/se_218.o
                0x0000000008c82378                se_218
 build/sa2/sound/songs/midi/se_219.o(.rodata)
 .rodata        0x0000000008c82384       0x30 build/sa2/sound/songs/midi/se_219.o
                0x0000000008c823a8                se_219
 build/sa2/sound/songs/midi/se_delete_game_data.o(.rodata)
 .rodata        0x0000000008c823b4       0x24 build/sa2/sound/songs/midi/se_delete_game_data.o
                0x0000000008c823cc                se_delete_game_data
 build/sa2/sound/songs/midi/se_221.o(.rodata)
 .rodata        0x0000000008c823d8       0xa4 build/sa2/sound/songs/midi/se_221.o
                0x0000000008c82470                se_221
 build/sa2/sound/songs/midi/se_222.o(.rodata)
 .rodata        0x0000000008c8247c       0x3c build/sa2/sound/songs/midi/se_222.o
                0x0000000008c824ac                se_222
 build/sa2/sound/songs/midi/se_223.o(.rodata)
 .rodata        0x0000000008c824b8       0x88 build/sa2/sound/songs/midi/se_223.o
                0x0000000008c82534                se_223
 build/sa2/sound/songs/midi/se_224.o(.rodata)
 .rodata        0x0000000008c82540       0x30 build/sa2/sound/songs/midi/se_224.o
                0x0000000008c82564                se_224
 build/sa2/sound/songs/midi/se_225.o(.rodata)
 .rodata        0x0000000008c82570      0x104 build/sa2/sound/songs/midi/se_225.o
                0x0000000008c82668                se_225
 build/sa2/sound/songs/midi/se_226.o(.rodata)
 .rodata        0x0000000008c82674       0x74 build/sa2/sound/songs/midi/se_226.o
                0x0000000008c826dc                se_226
 build/sa2/sound/songs/midi/se_cream_flying.o(.rodata)
 .rodata        0x0000000008c826e8       0x80 build/sa2/sound/songs/midi/se_cream_flying.o
                0x0000000008c8275c                se_cream_flying
 build/sa2/sound/songs/midi/se_228.o(.rodata)
 .rodata        0x0000000008c82768       0x30 build/sa2/sound/songs/midi/se_228.o
                0x0000000008c8278c                se_228
 build/sa2/sound/songs/midi/se_cream_cheese_attack.o(.rodata)
 .rodata        0x0000000008c82798       0x1c build/sa2/sound/songs/midi/se_cream_cheese_attack.o
                0x0000000008c827a8                se_cream_cheese_attack
 build/sa2/sound/songs/midi/se_230.o(.rodata)
 .rodata        0x0000000008c827b4       0xa4 build/sa2/sound/songs/midi/se_230.o
                0x0000000008c8284c                se_230
 build/sa2/sound/songs/midi/se_231.o(.rodata)
 .rodata        0x0000000008c82858       0x30 build/sa2/sound/songs/midi/se_231.o
                0x0000000008c8287c                se_231
 build/sa2/sound/songs/midi/se_long_brake.o(.rodata)
 .rodata        0x0000000008c82888      0x1fc build/sa2/sound/songs/midi/se_long_brake.o
                0x0000000008c82a78                se_long_brake
 build/sa2/sound/songs/midi/se_234.o(.rodata)
 .rodata        0x0000000008c82a84       0xa4 build/sa2/sound/songs/midi/se_234.o
                0x0000000008c82b1c                se_234
 build/sa2/sound/songs/midi/se_235.o(.rodata)
 .rodata        0x0000000008c82b28       0xd4 build/sa2/sound/songs/midi/se_235.o
                0x0000000008c82bf0                se_235
 build/sa2/sound/songs/midi/se_236.o(.rodata)
 .rodata        0x0000000008c82bfc      0x12c build/sa2/sound/songs/midi/se_236.o
                0x0000000008c82d1c                se_236
 build/sa2/sound/songs/midi/se_237.o(.rodata)
 .rodata        0x0000000008c82d28       0x84 build/sa2/sound/songs/midi/se_237.o
                0x0000000008c82da0                se_237
 build/sa2/sound/songs/midi/se_238.o(.rodata)
 .rodata        0x0000000008c82dac       0x24 build/sa2/sound/songs/midi/se_238.o
                0x0000000008c82dc4                se_238
 build/sa2/sound/songs/midi/se_239.o(.rodata)
 .rodata        0x0000000008c82dd0       0x64 build/sa2/sound/songs/midi/se_239.o
                0x0000000008c82e28                se_239
 build/sa2/sound/songs/midi/se_241.o(.rodata)
 .rodata        0x0000000008c82e34       0xe0 build/sa2/sound/songs/midi/se_241.o
                0x0000000008c82f08                se_241
 build/sa2/sound/songs/midi/se_242.o(.rodata)
 .rodata        0x0000000008c82f14       0xd0 build/sa2/sound/songs/midi/se_242.o
                0x0000000008c82fd8                se_242
 build/sa2/sound/songs/midi/se_243.o(.rodata)
 .rodata        0x0000000008c82fe4       0x24 build/sa2/sound/songs/midi/se_243.o
                0x0000000008c82ffc                se_243
 build/sa2/sound/songs/midi/se_244.o(.rodata)
 .rodata        0x0000000008c83008       0x7c build/sa2/sound/songs/midi/se_244.o
                0x0000000008c83078                se_244
 build/sa2/sound/songs/midi/se_245.o(.rodata)
 .rodata        0x0000000008c83084       0x2c build/sa2/sound/songs/midi/se_245.o
                0x0000000008c830a4                se_245
 build/sa2/sound/songs/midi/se_246.o(.rodata)
 .rodata        0x0000000008c830b0       0x5c build/sa2/sound/songs/midi/se_246.o
                0x0000000008c83100                se_246
 build/sa2/sound/songs/midi/se_248.o(.rodata)
 .rodata        0x0000000008c8310c      0x12c build/sa2/sound/songs/midi/se_248.o
                0x0000000008c8322c                se_248
 build/sa2/sound/songs/midi/se_249.o(.rodata)
 .rodata        0x0000000008c83238       0x24 build/sa2/sound/songs/midi/se_249.o
                0x0000000008c83250                se_249
 build/sa2/sound/songs/midi/se_250.o(.rodata)
 .rodata        0x0000000008c8325c       0x74 build/sa2/sound/songs/midi/se_250.o
                0x0000000008c832c4                se_250
 build/sa2/sound/songs/midi/se_251.o(.rodata)
 .rodata        0x0000000008c832d0       0x24 build/sa2/sound/songs/midi/se_251.o
                0x0000000008c832e8                se_251
 build/sa2/sound/songs/midi/se_252.o(.rodata)
 .rodata        0x0000000008c832f4       0x9c build/sa2/sound/songs/midi/se_252.o
                0x0000000008c83384                se_252
 build/sa2/sound/songs/midi/se_253.o(.rodata)
 .rodata        0x0000000008c83390       0x8c build/sa2/sound/songs/midi/se_253.o
                0x0000000008c83410                se_253
 build/sa2/sound/songs/midi/se_254.o(.rodata)
 .rodata        0x0000000008c8341c       0x68 build/sa2/sound/songs/midi/se_254.o
                0x0000000008c83478                se_254
 build/sa2/sound/songs/midi/se_255.o(.rodata)
 .rodata        0x0000000008c83484       0x28 build/sa2/sound/songs/midi/se_255.o
                0x0000000008c834a0                se_255
 build/sa2/sound/songs/midi/se_256.o(.rodata)
 .rodata        0x0000000008c834ac       0x54 build/sa2/sound/songs/midi/se_256.o
                0x0000000008c834f4                se_256
 build/sa2/sound/songs/midi/se_257.o(.rodata)
 .rodata        0x0000000008c83500       0x6c build/sa2/sound/songs/midi/se_257.o
                0x0000000008c83560                se_257
 build/sa2/sound/songs/midi/se_258.o(.rodata)
 .rodata        0x0000000008c8356c       0xe4 build/sa2/sound/songs/midi/se_258.o
                0x0000000008c83644                se_258
 build/sa2/sound/songs/midi/se_259.o(.rodata)
 .rodata        0x0000000008c83650       0x30 build/sa2/sound/songs/midi/se_259.o
                0x0000000008c83674                se_259
 build/sa2/sound/songs/midi/se_260.o(.rodata)
 .rodata        0x0000000008c83680       0x6c build/sa2/sound/songs/midi/se_260.o
                0x0000000008c836e0                se_260
 build/sa2/sound/songs/midi/se_261.o(.rodata)
 .rodata        0x0000000008c836ec       0x50 build/sa2/sound/songs/midi/se_261.o
                0x0000000008c83730                se_261
 build/sa2/sound/songs/midi/se_262.o(.rodata)
 .rodata        0x0000000008c8373c       0x54 build/sa2/sound/songs/midi/se_262.o
                0x0000000008c83784                se_262
 build/sa2/sound/songs/midi/se_263.o(.rodata)
 .rodata        0x0000000008c83790       0xa4 build/sa2/sound/songs/midi/se_263.o
                0x0000000008c83828                se_263
 build/sa2/sound/songs/midi/se_264.o(.rodata)
 .rodata        0x0000000008c83834       0xbc build/sa2/sound/songs/midi/se_264.o
                0x0000000008c838e4                se_264
 build/sa2/sound/songs/midi/se_265.o(.rodata)
 .rodata        0x0000000008c838f0       0xd4 build/sa2/sound/songs/midi/se_265.o
                0x0000000008c839b8                se_265
 build/sa2/sound/songs/midi/se_266.o(.rodata)
 .rodata        0x0000000008c839c4       0x54 build/sa2/sound/songs/midi/se_266.o
                0x0000000008c83a0c                se_266
 build/sa2/sound/songs/midi/se_267.o(.rodata)
 .rodata        0x0000000008c83a18       0x24 build/sa2/sound/songs/midi/se_267.o
                0x0000000008c83a30                se_267
 build/sa2/sound/songs/midi/se_268.o(.rodata)
 .rodata        0x0000000008c83a3c       0x88 build/sa2/sound/songs/midi/se_268.o
                0x0000000008c83ab8                se_268
 build/sa2/sound/songs/midi/se_269.o(.rodata)
 .rodata        0x0000000008c83ac4       0xb4 build/sa2/sound/songs/midi/se_269.o
                0x0000000008c83b6c                se_269
 build/sa2/sound/songs/midi/se_suction.o(.rodata)
 .rodata        0x0000000008c83b78       0x88 build/sa2/sound/songs/midi/se_suction.o
                0x0000000008c83bf4                se_suction
 build/sa2/sound/songs/midi/se_271.o(.rodata)
 .rodata        0x0000000008c83c00       0xb4 build/sa2/sound/songs/midi/se_271.o
                0x0000000008c83ca8                se_271
 build/sa2/sound/songs/midi/se_272.o(.rodata)
 .rodata        0x0000000008c83cb4       0x70 build/sa2/sound/songs/midi/se_272.o
                0x0000000008c83d18                se_272
 build/sa2/sound/songs/midi/se_273.o(.rodata)
 .rodata        0x0000000008c83d24       0xb8 build/sa2/sound/songs/midi/se_273.o
                0x0000000008c83dd0                se_273
 build/sa2/sound/songs/midi/se_274.o(.rodata)
 .rodata        0x0000000008c83ddc       0x40 build/sa2/sound/songs/midi/se_274.o
                0x0000000008c83e0c                se_274
 build/sa2/sound/songs/midi/se_275.o(.rodata)
 .rodata        0x0000000008c83e1c       0x84 build/sa2/sound/songs/midi/se_275.o
                0x0000000008c83e94                se_275
 build/sa2/sound/songs/midi/se_276.o(.rodata)
 .rodata        0x0000000008c83ea0       0xe0 build/sa2/sound/songs/midi/se_276.o
                0x0000000008c83f74                se_276
 build/sa2/sound/songs/midi/se_277.o(.rodata)
 .rodata        0x0000000008c83f80       0xe4 build/sa2/sound/songs/midi/se_277.o
                0x0000000008c84058                se_277
 build/sa2/sound/songs/midi/se_278.o(.rodata)
 .rodata        0x0000000008c84064       0x54 build/sa2/sound/songs/midi/se_278.o
                0x0000000008c840ac                se_278
 build/sa2/sound/songs/midi/se_279.o(.rodata)
 .rodata        0x0000000008c840b8       0xb8 build/sa2/sound/songs/midi/se_279.o
                0x0000000008c84164                se_279
 build/sa2/sound/songs/midi/se_280.o(.rodata)
 .rodata        0x0000000008c84170       0xbc build/sa2/sound/songs/midi/se_280.o
                0x0000000008c84220                se_280
 build/sa2/sound/songs/midi/se_281.o(.rodata)
 .rodata        0x0000000008c8422c       0x30 build/sa2/sound/songs/midi/se_281.o
                0x0000000008c84250                se_281
 build/sa2/sound/songs/midi/se_282.o(.rodata)
 .rodata        0x0000000008c8425c       0x2c build/sa2/sound/songs/midi/se_282.o
                0x0000000008c8427c                se_282
 build/sa2/sound/songs/midi/se_283.o(.rodata)
 .rodata        0x0000000008c84288       0xbc build/sa2/sound/songs/midi/se_283.o
                0x0000000008c84338                se_283
 build/sa2/sound/songs/midi/se_284.o(.rodata)
 .rodata        0x0000000008c84344       0xb8 build/sa2/sound/songs/midi/se_284.o
                0x0000000008c843f0                se_284
 build/sa2/sound/songs/midi/se_285.o(.rodata)
 .rodata        0x0000000008c843fc       0x88 build/sa2/sound/songs/midi/se_285.o
                0x0000000008c84478                se_285
 build/sa2/sound/songs/midi/se_286.o(.rodata)
 .rodata        0x0000000008c84484       0x50 build/sa2/sound/songs/midi/se_286.o
                0x0000000008c844c8                se_286
 build/sa2/sound/songs/midi/se_287.o(.rodata)
 .rodata        0x0000000008c844d4       0xa4 build/sa2/sound/songs/midi/se_287.o
                0x0000000008c8456c                se_287
 build/sa2/sound/songs/midi/se_288.o(.rodata)
 .rodata        0x0000000008c84578       0x68 build/sa2/sound/songs/midi/se_288.o
                0x0000000008c845d4                se_288
 build/sa2/sound/songs/midi/se_289.o(.rodata)
 .rodata        0x0000000008c845e0       0x38 build/sa2/sound/songs/midi/se_289.o
                0x0000000008c8460c                se_289
 build/sa2/sound/songs/midi/se_290.o(.rodata)
 .rodata        0x0000000008c84618       0xbc build/sa2/sound/songs/midi/se_290.o
                0x0000000008c846c8                se_290
 build/sa2/sound/songs/se_291.o(.rodata)
 .rodata        0x0000000008c846d4       0x64 build/sa2/sound/songs/se_291.o
                0x0000000008c846d4                song0291_1
                0x0000000008c8472c                se_291
 build/sa2/sound/songs/midi/se_ice_paradise_slide.o(.rodata)
 .rodata        0x0000000008c84738      0x110 build/sa2/sound/songs/midi/se_ice_paradise_slide.o
                0x0000000008c8483c                se_ice_paradise_slide
 build/sa2/sound/songs/midi/se_293.o(.rodata)
 .rodata        0x0000000008c84848       0x8c build/sa2/sound/songs/midi/se_293.o
                0x0000000008c848c8                se_293
 build/sa2/sound/songs/midi/se_techno_base_note_block.o(.rodata)
 .rodata        0x0000000008c848d4       0x88 build/sa2/sound/songs/midi/se_techno_base_note_block.o
                0x0000000008c84950                se_techno_base_note_block
 build/sa2/sound/songs/midi/se_295.o(.rodata)
 .rodata        0x0000000008c8495c       0x24 build/sa2/sound/songs/midi/se_295.o
                0x0000000008c84974                se_295
 build/sa2/sound/songs/midi/se_296.o(.rodata)
 .rodata        0x0000000008c84980       0x4c build/sa2/sound/songs/midi/se_296.o
                0x0000000008c849c0                se_296
 build/sa2/sound/songs/midi/se_297.o(.rodata)
 .rodata        0x0000000008c849cc       0x68 build/sa2/sound/songs/midi/se_297.o
                0x0000000008c84a28                se_297
 build/sa2/sound/songs/midi/se_special_ring.o(.rodata)
 .rodata        0x0000000008c84a34       0x24 build/sa2/sound/songs/midi/se_special_ring.o
                0x0000000008c84a4c                se_special_ring
 build/sa2/sound/songs/midi/se_music_plant_spring_1.o(.rodata)
 .rodata        0x0000000008c84a58       0x24 build/sa2/sound/songs/midi/se_music_plant_spring_1.o
                0x0000000008c84a70                se_music_plant_spring_1
 build/sa2/sound/songs/midi/se_music_plant_spring_2.o(.rodata)
 .rodata        0x0000000008c84a7c       0x24 build/sa2/sound/songs/midi/se_music_plant_spring_2.o
                0x0000000008c84a94                se_music_plant_spring_2
 build/sa2/sound/songs/midi/se_music_plant_spring_3.o(.rodata)
 .rodata        0x0000000008c84aa0       0x24 build/sa2/sound/songs/midi/se_music_plant_spring_3.o
                0x0000000008c84ab8                se_music_plant_spring_3
 build/sa2/sound/songs/midi/se_music_plant_spring_4.o(.rodata)
 .rodata        0x0000000008c84ac4       0x24 build/sa2/sound/songs/midi/se_music_plant_spring_4.o
                0x0000000008c84adc                se_music_plant_spring_4
 build/sa2/sound/songs/midi/se_music_plant_crash_hit.o(.rodata)
 .rodata        0x0000000008c84ae8       0x24 build/sa2/sound/songs/midi/se_music_plant_crash_hit.o
                0x0000000008c84b00                se_music_plant_crash_hit
 build/sa2/sound/songs/midi/se_music_plant_notes_1.o(.rodata)
 .rodata        0x0000000008c84b0c       0x24 build/sa2/sound/songs/midi/se_music_plant_notes_1.o
                0x0000000008c84b24                se_music_plant_notes_1
 build/sa2/sound/songs/midi/se_music_plant_notes_2.o(.rodata)
 .rodata        0x0000000008c84b30       0x24 build/sa2/sound/songs/midi/se_music_plant_notes_2.o
                0x0000000008c84b48                se_music_plant_notes_2
 build/sa2/sound/songs/midi/se_music_plant_notes_3.o(.rodata)
 .rodata        0x0000000008c84b54       0x24 build/sa2/sound/songs/midi/se_music_plant_notes_3.o
                0x0000000008c84b6c                se_music_plant_notes_3
 build/sa2/sound/songs/midi/se_music_plant_notes_4.o(.rodata)
 .rodata        0x0000000008c84b78       0x24 build/sa2/sound/songs/midi/se_music_plant_notes_4.o
                0x0000000008c84b90                se_music_plant_notes_4
 build/sa2/sound/songs/midi/se_music_plant_notes_5.o(.rodata)
 .rodata        0x0000000008c84b9c       0x24 build/sa2/sound/songs/midi/se_music_plant_notes_5.o
                0x0000000008c84bb4                se_music_plant_notes_5
 build/sa2/sound/songs/midi/se_music_plant_notes_6.o(.rodata)
 .rodata        0x0000000008c84bc0       0x24 build/sa2/sound/songs/midi/se_music_plant_notes_6.o
                0x0000000008c84bd8                se_music_plant_notes_6
 build/sa2/sound/songs/midi/se_music_plant_notes_7.o(.rodata)
 .rodata        0x0000000008c84be4       0x24 build/sa2/sound/songs/midi/se_music_plant_notes_7.o
                0x0000000008c84bfc                se_music_plant_notes_7
 build/sa2/sound/songs/midi/se_music_plant_notes_8.o(.rodata)
 .rodata        0x0000000008c84c08       0x24 build/sa2/sound/songs/midi/se_music_plant_notes_8.o
                0x0000000008c84c20                se_music_plant_notes_8
 build/sa2/sound/songs/midi/se_music_plant_glockenspiel_1.o(.rodata)
 .rodata        0x0000000008c84c2c       0x24 build/sa2/sound/songs/midi/se_music_plant_glockenspiel_1.o
                0x0000000008c84c44                se_music_plant_glockenspiel_1
 build/sa2/sound/songs/midi/se_music_plant_glockenspiel_2.o(.rodata)
 .rodata        0x0000000008c84c50       0x24 build/sa2/sound/songs/midi/se_music_plant_glockenspiel_2.o
                0x0000000008c84c68                se_music_plant_glockenspiel_2
 build/sa2/sound/songs/midi/se_music_plant_glockenspiel_3.o(.rodata)
 .rodata        0x0000000008c84c74       0x24 build/sa2/sound/songs/midi/se_music_plant_glockenspiel_3.o
                0x0000000008c84c8c                se_music_plant_glockenspiel_3
 build/sa2/sound/songs/midi/se_music_plant_glockenspiel_4.o(.rodata)
 .rodata        0x0000000008c84c98       0x24 build/sa2/sound/songs/midi/se_music_plant_glockenspiel_4.o
                0x0000000008c84cb0                se_music_plant_glockenspiel_4
 build/sa2/sound/songs/midi/se_music_plant_glockenspiel_5.o(.rodata)
 .rodata        0x0000000008c84cbc       0x24 build/sa2/sound/songs/midi/se_music_plant_glockenspiel_5.o
                0x0000000008c84cd4                se_music_plant_glockenspiel_5
 build/sa2/sound/songs/midi/se_music_plant_glockenspiel_6.o(.rodata)
 .rodata        0x0000000008c84ce0       0x24 build/sa2/sound/songs/midi/se_music_plant_glockenspiel_6.o
                0x0000000008c84cf8                se_music_plant_glockenspiel_6
 build/sa2/sound/songs/midi/se_music_plant_enter_horn.o(.rodata)
 .rodata        0x0000000008c84d04       0x24 build/sa2/sound/songs/midi/se_music_plant_enter_horn.o
                0x0000000008c84d1c                se_music_plant_enter_horn
 build/sa2/sound/songs/midi/se_music_plant_exit_horn.o(.rodata)
 .rodata        0x0000000008c84d28       0x2c build/sa2/sound/songs/midi/se_music_plant_exit_horn.o
                0x0000000008c84d48                se_music_plant_exit_horn
 build/sa2/sound/songs/midi/se_music_plant_enter_horn2.o(.rodata)
 .rodata        0x0000000008c84d54       0x24 build/sa2/sound/songs/midi/se_music_plant_enter_horn2.o
                0x0000000008c84d6c                se_music_plant_enter_horn2
 build/sa2/sound/songs/midi/se_music_plant_exit_horn2.o(.rodata)
 .rodata        0x0000000008c84d78       0x40 build/sa2/sound/songs/midi/se_music_plant_exit_horn2.o
                0x0000000008c84dac                se_music_plant_exit_horn2
 build/sa2/sound/songs/midi/se_music_plant_horn3.o(.rodata)
 .rodata        0x0000000008c84db8       0x38 build/sa2/sound/songs/midi/se_music_plant_horn3.o
                0x0000000008c84de4                se_music_plant_horn3
 build/sa2/sound/songs/midi/se_music_plant_guitar_string.o(.rodata)
 .rodata        0x0000000008c84df0       0x24 build/sa2/sound/songs/midi/se_music_plant_guitar_string.o
                0x0000000008c84e08                se_music_plant_guitar_string
 build/sa2/sound/songs/midi/se_music_plant_piano.o(.rodata)
 .rodata        0x0000000008c84e14       0x24 build/sa2/sound/songs/midi/se_music_plant_piano.o
                0x0000000008c84e2c                se_music_plant_piano
 build/sa2/sound/songs/midi/se_music_plant_flute_1.o(.rodata)
 .rodata        0x0000000008c84e38       0x24 build/sa2/sound/songs/midi/se_music_plant_flute_1.o
                0x0000000008c84e50                se_music_plant_flute_1
 build/sa2/sound/songs/midi/se_music_plant_flute_2.o(.rodata)
 .rodata        0x0000000008c84e5c       0x24 build/sa2/sound/songs/midi/se_music_plant_flute_2.o
                0x0000000008c84e74                se_music_plant_flute_2
 build/sa2/sound/songs/midi/se_music_plant_flute_3.o(.rodata)
 .rodata        0x0000000008c84e80       0x24 build/sa2/sound/songs/midi/se_music_plant_flute_3.o
                0x0000000008c84e98                se_music_plant_flute_3
 build/sa2/sound/songs/midi/se_music_plant_flute_4.o(.rodata)
 .rodata        0x0000000008c84ea4       0x24 build/sa2/sound/songs/midi/se_music_plant_flute_4.o
                0x0000000008c84ebc                se_music_plant_flute_4
 build/sa2/sound/songs/midi/se_331.o(.rodata)
 .rodata        0x0000000008c84ec8       0x1c build/sa2/sound/songs/midi/se_331.o
                0x0000000008c84ed8                se_331
 build/sa2/sound/songs/midi/se_332.o(.rodata)
 .rodata        0x0000000008c84ee4       0x1c build/sa2/sound/songs/midi/se_332.o
                0x0000000008c84ef4                se_332
 build/sa2/sound/songs/midi/se_333.o(.rodata)
 .rodata        0x0000000008c84f00       0x9c build/sa2/sound/songs/midi/se_333.o
                0x0000000008c84f90                se_333
 build/sa2/sound/songs/midi/mus_act_clear.o(.rodata)
 .rodata        0x0000000008c84f9c      0x108 build/sa2/sound/songs/midi/mus_act_clear.o
                0x0000000008c8508c                mus_act_clear
 build/sa2/sound/songs/midi/mus_boss_clear.o(.rodata)
 .rodata        0x0000000008c850a4      0x1f4 build/sa2/sound/songs/midi/mus_boss_clear.o
                0x0000000008c85270                mus_boss_clear
 build/sa2/sound/songs/midi/mus_final_clear.o(.rodata)
 .rodata        0x0000000008c85298      0x294 build/sa2/sound/songs/midi/mus_final_clear.o
                0x0000000008c85500                mus_final_clear
 build/sa2/sound/songs/midi/mus_extra_clear.o(.rodata)
 .rodata        0x0000000008c8552c      0x210 build/sa2/sound/songs/midi/mus_extra_clear.o
                0x0000000008c85718                mus_extra_clear
 build/sa2/sound/songs/midi/mus_time_attack_2.o(.rodata)
 .rodata        0x0000000008c8573c      0x19c build/sa2/sound/songs/midi/mus_time_attack_2.o
                0x0000000008c858b0                mus_time_attack_2
 build/sa2/sound/songs/midi/mus_time_attack_3.o(.rodata)
 .rodata        0x0000000008c858d8      0x3a0 build/sa2/sound/songs/midi/mus_time_attack_3.o
                0x0000000008c85c4c                mus_time_attack_3
 build/sa2/sound/songs/midi/mus_1_up.o(.rodata)
 .rodata        0x0000000008c85c78      0x120 build/sa2/sound/songs/midi/mus_1_up.o
                0x0000000008c85d80                mus_1_up
 build/sa2/sound/songs/midi/mus_message_2.o(.rodata)
 .rodata        0x0000000008c85d98      0x2e4 build/sa2/sound/songs/midi/mus_message_2.o
                0x0000000008c8605c                mus_message_2
 build/sa2/sound/songs/midi/mus_got_all_chaos_emeralds.o(.rodata)
 .rodata        0x0000000008c8607c      0x1a8 build/sa2/sound/songs/midi/mus_got_all_chaos_emeralds.o
                0x0000000008c861fc                mus_got_all_chaos_emeralds
 build/sa2/sound/songs/midi/mus_fanfare.o(.rodata)
 .rodata        0x0000000008c86224      0x214 build/sa2/sound/songs/midi/mus_fanfare.o
                0x0000000008c86410                mus_fanfare
 build/sa2/sound/songs/midi/mus_vs_exit.o(.rodata)
 .rodata        0x0000000008c86438       0x90 build/sa2/sound/songs/midi/mus_vs_exit.o
                0x0000000008c864ac                mus_vs_exit
 build/sa2/sound/songs/midi/mus_vs_success.o(.rodata)
 .rodata        0x0000000008c864c8       0xd0 build/sa2/sound/songs/midi/mus_vs_success.o
                0x0000000008c86580                mus_vs_success
 build/sa2/sound/songs/midi/mus_vs_miss.o(.rodata)
 .rodata        0x0000000008c86598       0x80 build/sa2/sound/songs/midi/mus_vs_miss.o
                0x0000000008c86600                mus_vs_miss
 build/sa2/sound/songs/midi/mus_message.o(.rodata)
 .rodata        0x0000000008c86618      0x300 build/sa2/sound/songs/midi/mus_message.o
                0x0000000008c868f8                mus_message
 build/sa2/sound/songs/midi/mus_504.o(.rodata)
 .rodata        0x0000000008c86918      0x158 build/sa2/sound/songs/midi/mus_504.o
                0x0000000008c86a4c                mus_504
 build/sa2/sound/songs/midi/mus_505.o(.rodata)
 .rodata        0x0000000008c86a70      0x1f0 build/sa2/sound/songs/midi/mus_505.o
                0x0000000008c86c34                mus_505
 build/sa2/sound/songs/midi/mus_506.o(.rodata)
 .rodata        0x0000000008c86c60      0x158 build/sa2/sound/songs/midi/mus_506.o
                0x0000000008c86d94                mus_506
 build/sa2/src/lib/agb_flash.o(.rodata)
 .rodata        0x0000000008c86db8       0x70 build/sa2/src/lib/agb_flash.o
 build/sa2/src/lib/agb_flash_512k.o(.rodata)
 .rodata        0x0000000008c86e28       0x48 build/sa2/src/lib/agb_flash_512k.o
                0x0000000008c86e38                gSetup512KInfos
 build/sa2/src/lib/agb_flash_le_512k.o(.rodata)
 .rodata        0x0000000008c86e70       0x98 build/sa2/src/lib/agb_flash_le_512k.o
                0x0000000008c86e70                le512kMaxTime
                0x0000000008c86e88                DefaultFlash512K
                0x0000000008c86eb4                LE39FW512
 build/sa2/src/lib/agb_flash_mx_512k.o(.rodata)
 .rodata        0x0000000008c86f08       0x90 build/sa2/src/lib/agb_flash_mx_512k.o
                0x0000000008c86f08                mx512kMaxTime
                0x0000000008c86f20                paMaxTime
                0x0000000008c86f38                MX29L512
                0x0000000008c86f64                MN63F805MNP
 *libgcc.a:_divdi3.o(.rodata)
 .rodata        0x0000000008c86f98      0x100 tools/agbcc/lib/libgcc.a(_divdi3.o)
 build/sa2/data/data3.o(.rodata)
 .rodata        0x0000000008c87098      0x150 build/sa2/data/data3.o
                0x0000000008c87098                gUnknown_08c87098_unused
                0x0000000008c87198                unk_8C87198
                0x0000000008c871a4                unk_8C871A4
                0x0000000008c871b0                unk_8C871B0
                0x0000000008c871bc                unk_8C871BC
                0x0000000008c871c8                unk_8C871C8
                0x0000000008c871d4                gUnknown_08C871D4
 build/sa2/data/special_stage_levels.o(.rodata)
 .rodata        0x0000000008c871e8      0x754 build/sa2/data/special_stage_levels.o
                0x0000000008c878e8                gUnknown_08C878E8
                0x0000000008c87904                gUnknown_08C87904
                0x0000000008c87920                gUnknown_08C87920
 build/sa2/data/handlers_ia_pipe_horn_sequences.o(.rodata)
 .rodata        0x0000000008c8793c       0x30 build/sa2/data/handlers_ia_pipe_horn_sequences.o
                0x0000000008c8793c                gUnknown_08C8793C
                0x0000000008c87960                gUnknown_08C87960
 build/sa2/src/data/palettes.o(.rodata)
 .rodata        0x0000000008c8796c      0x140 build/sa2/src/data/palettes.o
                0x0000000008c8796c                gUnknown_08C8796C
 build/sa2/src/data/recordings.o(.rodata)
 .rodata        0x0000000008c87aac      0x81c build/sa2/src/data/recordings.o
                0x0000000008c87aac                gDemoRecordings
 build/sa2/data/data4.o(.rodata)
 .rodata        0x0000000008c882c8    0x4b23c build/sa2/data/data4.o
                0x0000000008c882c8                gUnknown_08C882C8
                0x0000000008c88408                gUnknown_08C88408
                0x0000000008c90408                gUnknown_08C90408
                0x0000000008c92208                gUnknown_08C92208
                0x0000000008c9a208                unused_gUnknown_08C9A208
                0x0000000008ca6760                gUnknown_08CA6760
                0x0000000008cad1dc                gUnknown_08CAD1DC
                0x0000000008cb41c0                gUnknown_08CB41C0
                0x0000000008cbac04                gUnknown_08CBAC04
                0x0000000008cc2c04                gUnknown_08CC2C04
                0x0000000008ccac04                gUnknown_08CCAC04
 build/sa2/data/multiboot_subgame_loader.o(.rodata)
 .rodata        0x0000000008cd3504     0x314c build/sa2/data/multiboot_subgame_loader.o
                0x0000000008cd3504                gMultiBootProgram_SubgameLoader
 build/sa2/asm/rom_footer.o(.rodata)
 .rodata        0x0000000008cd6650       0x20 build/sa2/asm/rom_footer.o
                0x0000000008cd6650                rom_footer

.debug
 *(.debug)

.line
 *(.line)

.debug_srcinfo
 *(.debug_srcinfo)

.debug_sfnames
 *(.debug_sfnames)

.debug_aranges
 *(.debug_aranges)

.debug_pubnames
 *(.debug_pubnames)

.debug_info
 *(.debug_info .gnu.linkonce.wi.*)

.debug_abbrev
 *(.debug_abbrev)

.debug_line
 *(.debug_line)

.debug_frame
 *(.debug_frame)

.debug_str
 *(.debug_str)

.debug_loc
 *(.debug_loc)

.debug_macinfo
 *(.debug_macinfo)

/DISCARD/
 *(*)
LOAD build/sa2/src/animation_commands.o
LOAD build/sa2/src/core.o
LOAD build/sa2/src/sprite_1.o
LOAD build/sa2/src/sprite_3.o
LOAD build/sa2/src/lib/agb_flash_le_512k.o
LOAD build/sa2/src/lib/agb_flash_512k.o
LOAD build/sa2/src/lib/agb_flash_mx_512k.o
LOAD build/sa2/src/lib/m4a.o
LOAD build/sa2/src/lib/agb_flash.o
LOAD build/sa2/src/lib/m4a_tables.o
LOAD build/sa2/src/main.o
LOAD build/sa2/src/task.o
LOAD build/sa2/src/sprite_2.o
LOAD build/sa2/src/trig.o
LOAD build/sa2/src/malloc_vram.o
LOAD build/sa2/src/data/palettes.o
LOAD build/sa2/src/data/recordings.o
LOAD build/sa2/src/malloc_ewram.o
LOAD build/sa2/src/sio32_multi_load.o
LOAD build/sa2/src/animation_commands_extra.o
LOAD build/sa2/src/game/interactables_1/gapped_loop.o
LOAD build/sa2/src/game/interactables_1/bouncy_bar.o
LOAD build/sa2/src/game/interactables_1/checkpoint.o
LOAD build/sa2/src/game/interactables_1/toggle_player_layer.o
LOAD build/sa2/src/game/interactables_1/corkscrew.o
LOAD build/sa2/src/game/interactables_1/windmill.o
LOAD build/sa2/src/game/interactables_1/stage_goal.o
LOAD build/sa2/src/game/interactables_1/spikes.o
LOAD build/sa2/src/game/interactables_1/booster.o
LOAD build/sa2/src/game/interactables_1/spring_bouncy.o
LOAD build/sa2/src/game/interactables_1/rotating_handle.o
LOAD build/sa2/src/game/interactables_1/incline_ramp.o
LOAD build/sa2/src/game/interactables_1/019.o
LOAD build/sa2/src/game/interactables_1/decoration.o
LOAD build/sa2/src/game/enemies/bell.o
LOAD build/sa2/src/game/enemies/spinner.o
LOAD build/sa2/src/game/multiplayer_lobby.o
LOAD build/sa2/src/game/options_screen.o
LOAD build/sa2/src/game/boost_effect.o
LOAD build/sa2/src/game/screen_transition.o
LOAD build/sa2/src/game/multiboot/connection.o
LOAD build/sa2/src/game/multiboot/collect_rings/results.o
LOAD build/sa2/src/game/multiboot/collect_rings/time_display.o
LOAD build/sa2/src/game/character_select.o
LOAD build/sa2/src/game/stage_intro.o
LOAD build/sa2/src/game/init.o
LOAD build/sa2/src/game/stage.o
LOAD build/sa2/src/game/interactables_2/tec_base/note_block.o
LOAD build/sa2/src/game/interactables_2/tec_base/078.o
LOAD build/sa2/src/game/interactables_2/tec_base/075.o
LOAD build/sa2/src/game/interactables_2/tec_base/light_bridge.o
LOAD build/sa2/src/game/interactables_2/tec_base/080.o
LOAD build/sa2/src/game/interactables_2/105.o
LOAD build/sa2/src/game/interactables_2/egg_utopia/gravity_toggle.o
LOAD build/sa2/src/game/interactables_2/egg_utopia/speeding_platform.o
LOAD build/sa2/src/game/interactables_2/notification_ring_bonus.o
LOAD build/sa2/src/game/interactables_2/hot_crater/crane.o
LOAD build/sa2/src/game/interactables_2/hot_crater/floating_spring.o
LOAD build/sa2/src/game/interactables_2/hot_crater/wind_up_stick.o
LOAD build/sa2/src/game/interactables_2/hot_crater/hook_rail.o
LOAD build/sa2/src/game/interactables_2/hot_crater/turn_around_bar.o
LOAD build/sa2/src/game/interactables_2/hot_crater/dash_ring.o
LOAD build/sa2/src/game/interactables_2/music_plant/handlers_ia_pipe_horn.o
LOAD build/sa2/src/game/interactables_2/music_plant/note_block.o
LOAD build/sa2/src/game/interactables_2/music_plant/german_flute.o
LOAD build/sa2/src/game/interactables_2/music_plant/keyboard.o
LOAD build/sa2/src/game/interactables_2/music_plant/note_sphere.o
LOAD build/sa2/src/game/interactables_2/music_plant/pipe_horn.o
LOAD build/sa2/src/game/interactables_2/music_plant/guitar_string.o
LOAD build/sa2/src/game/interactables_2/special_ring.o
LOAD build/sa2/src/game/interactables_2/ice_paradise/069.o
LOAD build/sa2/src/game/interactables_2/ice_paradise/funnel_sphere.o
LOAD build/sa2/src/game/interactables_2/ice_paradise/half_pipe.o
LOAD build/sa2/src/game/interactables_2/ice_paradise/slowing_snow.o
LOAD build/sa2/src/game/interactables_2/sky_canyon_init.o
LOAD build/sa2/src/game/interactables_2/sky_canyon/small_windmill.o
LOAD build/sa2/src/game/interactables_2/sky_canyon/giant_propeller.o
LOAD build/sa2/src/game/interactables_2/sky_canyon/094.o
LOAD build/sa2/src/game/interactables_2/sky_canyon/flying_handle.o
LOAD build/sa2/src/game/interactables_2/sky_canyon/085.o
LOAD build/sa2/src/game/interactables_2/sky_canyon/whirlwind.o
LOAD build/sa2/src/game/interactables_2/sky_canyon/095.o
LOAD build/sa2/src/game/interactables_2/note_particle.o
LOAD build/sa2/src/game/game_over.o
LOAD build/sa2/src/game/multiplayer/results.o
LOAD build/sa2/src/game/multiplayer/team_play.o
LOAD build/sa2/src/game/multiplayer/mode_select.o
LOAD build/sa2/src/game/multiplayer/multipak_connection.o
LOAD build/sa2/src/game/multiplayer/communication_outcome.o
LOAD build/sa2/src/game/math_0.o
LOAD build/sa2/src/game/math_1.o
LOAD build/sa2/src/game/true_area_53/intro.o
LOAD build/sa2/src/game/trapped_animals.o
LOAD build/sa2/src/game/special_stage/tables.o
LOAD build/sa2/src/game/special_stage/world.o
LOAD build/sa2/src/game/special_stage/guard_robo.o
LOAD build/sa2/src/game/special_stage/physics.o
LOAD build/sa2/src/game/special_stage/collectables.o
LOAD build/sa2/src/game/special_stage/main.o
LOAD build/sa2/src/game/special_stage/player.o
LOAD build/sa2/src/game/special_stage/data.o
LOAD build/sa2/src/game/special_stage/ui.o
LOAD build/sa2/src/game/special_stage/utils.o
LOAD build/sa2/src/game/title_screen.o
LOAD build/sa2/src/game/player_callbacks_0.o
LOAD build/sa2/src/game/backgrounds.o
LOAD build/sa2/src/game/time_attack/results.o
LOAD build/sa2/src/game/time_attack/mode_select.o
LOAD build/sa2/src/game/time_attack/lobby.o
LOAD build/sa2/src/game/cutscenes/extra_ending_slides.o
LOAD build/sa2/src/game/cutscenes/credits.o
LOAD build/sa2/src/game/cutscenes/missing_emeralds.o
LOAD build/sa2/src/game/cutscenes/endings.o
LOAD build/sa2/src/game/cutscenes/credits_end.o
LOAD build/sa2/src/game/cutscenes/final_ending_fall.o
LOAD build/sa2/src/game/cutscenes/level_endings.o
LOAD build/sa2/src/game/cutscenes/final_ending_land.o
LOAD build/sa2/src/game/cutscenes/extra_ending_fall.o
LOAD build/sa2/src/game/cutscenes/credits_slides.o
LOAD build/sa2/src/game/save.o
LOAD build/sa2/src/game/unknown_effect.o
LOAD build/sa2/src/game/player_callbacks_1.o
LOAD build/sa2/src/game/stage_ui.o
LOAD build/sa2/src/game/game.o
LOAD build/sa2/src/game/sound_test.o
LOAD build/sa2/src/game/heart_particles_effect.o
LOAD build/sa2/src/game/interactables_0/grind_rail.o
LOAD build/sa2/src/game/interactables_0/spring.o
LOAD build/sa2/src/game/interactables_0/slidy_ice.o
LOAD build/sa2/src/game/interactables_0/044.o
LOAD build/sa2/src/game/interactables_0/clear_pipe.o
LOAD build/sa2/src/game/interactables_0/platform_thin.o
LOAD build/sa2/src/game/interactables_0/ramp.o
LOAD build/sa2/src/game/interactables_0/platform.o
LOAD build/sa2/src/game/race_progress.o
LOAD build/sa2/src/game/item_box.o
LOAD build/sa2/src/game/countdown.o
LOAD build/sa2/src/game/course_select.o
LOAD build/sa2/src/bg_update.o
LOAD build/sa2/src/multi_sio.o
LOAD build/sa2/src/input_recorder.o
LOAD build/sa2/src/multi_boot.o
LOAD build/sa2/asm/crt0.o
LOAD build/sa2/asm/enemies_shared.o
LOAD build/sa2/asm/enemy_balloon.o
LOAD build/sa2/asm/enemy_bullet_buzzer.o
LOAD build/sa2/asm/enemy_buzzer.o
LOAD build/sa2/asm/enemy_circus.o
LOAD build/sa2/asm/enemy_flickey.o
LOAD build/sa2/asm/enemy_geji_geji.o
LOAD build/sa2/asm/enemy_gohla.o
LOAD build/sa2/asm/enemy_hammerhead.o
LOAD build/sa2/asm/enemy_kiki.o
LOAD build/sa2/asm/enemy_koura.o
LOAD build/sa2/asm/enemy_kubinaga.o
LOAD build/sa2/asm/enemy_kura_kura.o
LOAD build/sa2/asm/enemy_kyura.o
LOAD build/sa2/asm/enemy_madillo.o
LOAD build/sa2/asm/enemy_mon.o
LOAD build/sa2/asm/enemy_mouse.o
LOAD build/sa2/asm/enemy_pen.o
LOAD build/sa2/asm/enemy_piko_piko.o
LOAD build/sa2/asm/enemy_star.o
LOAD build/sa2/asm/enemy_straw.o
LOAD build/sa2/asm/enemy_yado.o
LOAD build/sa2/asm/entities_0.o
LOAD build/sa2/asm/entities_1.o
LOAD build/sa2/asm/entities_2.o
LOAD build/sa2/asm/game.o
LOAD build/sa2/asm/game_2.o
LOAD build/sa2/asm/interactable_081.o
LOAD build/sa2/asm/interactable_087.o
LOAD build/sa2/asm/interactable_091.o
LOAD build/sa2/asm/interactable_093.o
LOAD build/sa2/asm/interactable_corkscrew_3D.o
LOAD build/sa2/asm/interactable_platform.o
LOAD build/sa2/asm/item_box.o
LOAD build/sa2/asm/libagbsyscall.o
LOAD build/sa2/asm/m4a0.o
LOAD build/sa2/asm/math_0.o
LOAD build/sa2/asm/math_1.o
LOAD build/sa2/asm/multi_sio_asm.o
LOAD build/sa2/asm/rom_footer.o
LOAD build/sa2/asm/rom_header.o
LOAD build/sa2/asm/sprite_2.o
LOAD build/sa2/asm/sprite_3.o
LOAD build/sa2/asm/sprite_4.o
LOAD build/sa2/asm/stage_debug_ui.o
LOAD build/sa2/asm/stage_intro.o
LOAD build/sa2/asm/stage_outro.o
LOAD build/sa2/asm/stage_ui.o
LOAD build/sa2/asm/true_area_53.o
LOAD build/sa2/data/data3.o
LOAD build/sa2/data/data4.o
LOAD build/sa2/data/data5.o
LOAD build/sa2/data/handlers_ia_pipe_horn_data.o
LOAD build/sa2/data/handlers_ia_pipe_horn_sequences.o
LOAD build/sa2/data/map_data.o
LOAD build/sa2/data/multiboot_chao_garden.o
LOAD build/sa2/data/multiboot_subgame_loader.o
LOAD build/sa2/data/sound_data.o
LOAD build/sa2/data/special_stage_levels.o
LOAD build/sa2/data/sprite_data.o
LOAD build/sa2/data/true_area_53_data.o
LOAD build/sa2/sound/songs/se_291.o
LOAD build/sa2/sound/songs/midi/mus_1_up.o
LOAD build/sa2/sound/songs/midi/mus_504.o
LOAD build/sa2/sound/songs/midi/mus_505.o
LOAD build/sa2/sound/songs/midi/mus_506.o
LOAD build/sa2/sound/songs/midi/mus_7_boss.o
LOAD build/sa2/sound/songs/midi/mus_7_boss_pinch.o
LOAD build/sa2/sound/songs/midi/mus_achievement.o
LOAD build/sa2/sound/songs/midi/mus_act_clear.o
LOAD build/sa2/sound/songs/midi/mus_boss.o
LOAD build/sa2/sound/songs/midi/mus_boss_clear.o
LOAD build/sa2/sound/songs/midi/mus_boss_knuckles.o
LOAD build/sa2/sound/songs/midi/mus_boss_pinch.o
LOAD build/sa2/sound/songs/midi/mus_chaos_emerald.o
LOAD build/sa2/sound/songs/midi/mus_character_selection.o
LOAD build/sa2/sound/songs/midi/mus_connection_pending.o
LOAD build/sa2/sound/songs/midi/mus_course_selection_2.o
LOAD build/sa2/sound/songs/midi/mus_course_selection_3.o
LOAD build/sa2/sound/songs/midi/mus_demo_1.o
LOAD build/sa2/sound/songs/midi/mus_demo_2.o
LOAD build/sa2/sound/songs/midi/mus_drowning.o
LOAD build/sa2/sound/songs/midi/mus_egg_utopia__act_1.o
LOAD build/sa2/sound/songs/midi/mus_egg_utopia__act_2.o
LOAD build/sa2/sound/songs/midi/mus_extra_clear.o
LOAD build/sa2/sound/songs/midi/mus_extra_demo_1.o
LOAD build/sa2/sound/songs/midi/mus_extra_demo_2.o
LOAD build/sa2/sound/songs/midi/mus_extra_ending.o
LOAD build/sa2/sound/songs/midi/mus_fanfare.o
LOAD build/sa2/sound/songs/midi/mus_final_boss.o
LOAD build/sa2/sound/songs/midi/mus_final_boss_pinch.o
LOAD build/sa2/sound/songs/midi/mus_final_clear.o
LOAD build/sa2/sound/songs/midi/mus_final_ending.o
LOAD build/sa2/sound/songs/midi/mus_game_over.o
LOAD build/sa2/sound/songs/midi/mus_got_all_chaos_emeralds.o
LOAD build/sa2/sound/songs/midi/mus_hot_crater__act_1.o
LOAD build/sa2/sound/songs/midi/mus_hot_crater__act_2.o
LOAD build/sa2/sound/songs/midi/mus_ice_paradise__act_1.o
LOAD build/sa2/sound/songs/midi/mus_ice_paradise__act_2.o
LOAD build/sa2/sound/songs/midi/mus_intro.o
LOAD build/sa2/sound/songs/midi/mus_invincibility.o
LOAD build/sa2/sound/songs/midi/mus_leaf_forest__act_1.o
LOAD build/sa2/sound/songs/midi/mus_leaf_forest__act_2.o
LOAD build/sa2/sound/songs/midi/mus_message.o
LOAD build/sa2/sound/songs/midi/mus_message_2.o
LOAD build/sa2/sound/songs/midi/mus_music_plant__act_1.o
LOAD build/sa2/sound/songs/midi/mus_music_plant__act_2.o
LOAD build/sa2/sound/songs/midi/mus_options.o
LOAD build/sa2/sound/songs/midi/mus_sky_canyon__act_1.o
LOAD build/sa2/sound/songs/midi/mus_sky_canyon__act_2.o
LOAD build/sa2/sound/songs/midi/mus_special_stage.o
LOAD build/sa2/sound/songs/midi/mus_special_stage_clear.o
LOAD build/sa2/sound/songs/midi/mus_special_stage_intro.o
LOAD build/sa2/sound/songs/midi/mus_special_stage_pinch.o
LOAD build/sa2/sound/songs/midi/mus_special_stage_result.o
LOAD build/sa2/sound/songs/midi/mus_special_stage_result_lose.o
LOAD build/sa2/sound/songs/midi/mus_staff_credits.o
LOAD build/sa2/sound/songs/midi/mus_ta_course_selection.o
LOAD build/sa2/sound/songs/midi/mus_techno_base__act_1.o
LOAD build/sa2/sound/songs/midi/mus_techno_base__act_2.o
LOAD build/sa2/sound/songs/midi/mus_time_attack_2.o
LOAD build/sa2/sound/songs/midi/mus_time_attack_3.o
LOAD build/sa2/sound/songs/midi/mus_time_attack_menu.o
LOAD build/sa2/sound/songs/midi/mus_title_fanfare.o
LOAD build/sa2/sound/songs/midi/mus_true_area_53.o
LOAD build/sa2/sound/songs/midi/mus_vs_2.o
LOAD build/sa2/sound/songs/midi/mus_vs_3.o
LOAD build/sa2/sound/songs/midi/mus_vs_exit.o
LOAD build/sa2/sound/songs/midi/mus_vs_lobby.o
LOAD build/sa2/sound/songs/midi/mus_vs_miss.o
LOAD build/sa2/sound/songs/midi/mus_vs_select_pak_mode.o
LOAD build/sa2/sound/songs/midi/mus_vs_success.o
LOAD build/sa2/sound/songs/midi/mus_xx__final_zone.o
LOAD build/sa2/sound/songs/midi/se_114.o
LOAD build/sa2/sound/songs/midi/se_125.o
LOAD build/sa2/sound/songs/midi/se_126.o
LOAD build/sa2/sound/songs/midi/se_127.o
LOAD build/sa2/sound/songs/midi/se_143.o
LOAD build/sa2/sound/songs/midi/se_144.o
LOAD build/sa2/sound/songs/midi/se_145.o
LOAD build/sa2/sound/songs/midi/se_146.o
LOAD build/sa2/sound/songs/midi/se_148.o
LOAD build/sa2/sound/songs/midi/se_149.o
LOAD build/sa2/sound/songs/midi/se_151.o
LOAD build/sa2/sound/songs/midi/se_156.o
LOAD build/sa2/sound/songs/midi/se_157.o
LOAD build/sa2/sound/songs/midi/se_216.o
LOAD build/sa2/sound/songs/midi/se_217.o
LOAD build/sa2/sound/songs/midi/se_218.o
LOAD build/sa2/sound/songs/midi/se_219.o
LOAD build/sa2/sound/songs/midi/se_221.o
LOAD build/sa2/sound/songs/midi/se_222.o
LOAD build/sa2/sound/songs/midi/se_223.o
LOAD build/sa2/sound/songs/midi/se_224.o
LOAD build/sa2/sound/songs/midi/se_225.o
LOAD build/sa2/sound/songs/midi/se_226.o
LOAD build/sa2/sound/songs/midi/se_228.o
LOAD build/sa2/sound/songs/midi/se_230.o
LOAD build/sa2/sound/songs/midi/se_231.o
LOAD build/sa2/sound/songs/midi/se_234.o
LOAD build/sa2/sound/songs/midi/se_235.o
LOAD build/sa2/sound/songs/midi/se_236.o
LOAD build/sa2/sound/songs/midi/se_237.o
LOAD build/sa2/sound/songs/midi/se_238.o
LOAD build/sa2/sound/songs/midi/se_239.o
LOAD build/sa2/sound/songs/midi/se_241.o
LOAD build/sa2/sound/songs/midi/se_242.o
LOAD build/sa2/sound/songs/midi/se_243.o
LOAD build/sa2/sound/songs/midi/se_244.o
LOAD build/sa2/sound/songs/midi/se_245.o
LOAD build/sa2/sound/songs/midi/se_246.o
LOAD build/sa2/sound/songs/midi/se_248.o
LOAD build/sa2/sound/songs/midi/se_249.o
LOAD build/sa2/sound/songs/midi/se_250.o
LOAD build/sa2/sound/songs/midi/se_251.o
LOAD build/sa2/sound/songs/midi/se_252.o
LOAD build/sa2/sound/songs/midi/se_253.o
LOAD build/sa2/sound/songs/midi/se_254.o
LOAD build/sa2/sound/songs/midi/se_255.o
LOAD build/sa2/sound/songs/midi/se_256.o
LOAD build/sa2/sound/songs/midi/se_257.o
LOAD build/sa2/sound/songs/midi/se_258.o
LOAD build/sa2/sound/songs/midi/se_259.o
LOAD build/sa2/sound/songs/midi/se_260.o
LOAD build/sa2/sound/songs/midi/se_261.o
LOAD build/sa2/sound/songs/midi/se_262.o
LOAD build/sa2/sound/songs/midi/se_263.o
LOAD build/sa2/sound/songs/midi/se_264.o
LOAD build/sa2/sound/songs/midi/se_265.o
LOAD build/sa2/sound/songs/midi/se_266.o
LOAD build/sa2/sound/songs/midi/se_267.o
LOAD build/sa2/sound/songs/midi/se_268.o
LOAD build/sa2/sound/songs/midi/se_269.o
LOAD build/sa2/sound/songs/midi/se_271.o
LOAD build/sa2/sound/songs/midi/se_272.o
LOAD build/sa2/sound/songs/midi/se_273.o
LOAD build/sa2/sound/songs/midi/se_274.o
LOAD build/sa2/sound/songs/midi/se_275.o
LOAD build/sa2/sound/songs/midi/se_276.o
LOAD build/sa2/sound/songs/midi/se_277.o
LOAD build/sa2/sound/songs/midi/se_278.o
LOAD build/sa2/sound/songs/midi/se_279.o
LOAD build/sa2/sound/songs/midi/se_280.o
LOAD build/sa2/sound/songs/midi/se_281.o
LOAD build/sa2/sound/songs/midi/se_282.o
LOAD build/sa2/sound/songs/midi/se_283.o
LOAD build/sa2/sound/songs/midi/se_284.o
LOAD build/sa2/sound/songs/midi/se_285.o
LOAD build/sa2/sound/songs/midi/se_286.o
LOAD build/sa2/sound/songs/midi/se_287.o
LOAD build/sa2/sound/songs/midi/se_288.o
LOAD build/sa2/sound/songs/midi/se_289.o
LOAD build/sa2/sound/songs/midi/se_290.o
LOAD build/sa2/sound/songs/midi/se_293.o
LOAD build/sa2/sound/songs/midi/se_295.o
LOAD build/sa2/sound/songs/midi/se_296.o
LOAD build/sa2/sound/songs/midi/se_297.o
LOAD build/sa2/sound/songs/midi/se_331.o
LOAD build/sa2/sound/songs/midi/se_332.o
LOAD build/sa2/sound/songs/midi/se_333.o
LOAD build/sa2/sound/songs/midi/se_abort.o
LOAD build/sa2/sound/songs/midi/se_air_bubble.o
LOAD build/sa2/sound/songs/midi/se_alarm_1.o
LOAD build/sa2/sound/songs/midi/se_alarm_10.o
LOAD build/sa2/sound/songs/midi/se_alarm_2.o
LOAD build/sa2/sound/songs/midi/se_alarm_3.o
LOAD build/sa2/sound/songs/midi/se_alarm_4.o
LOAD build/sa2/sound/songs/midi/se_alarm_5.o
LOAD build/sa2/sound/songs/midi/se_alarm_6.o
LOAD build/sa2/sound/songs/midi/se_alarm_7.o
LOAD build/sa2/sound/songs/midi/se_alarm_8.o
LOAD build/sa2/sound/songs/midi/se_alarm_9.o
LOAD build/sa2/sound/songs/midi/se_amy_ground_hammer.o
LOAD build/sa2/sound/songs/midi/se_amy_hammer_swirl.o
LOAD build/sa2/sound/songs/midi/se_amy_super_hammer_attack.o
LOAD build/sa2/sound/songs/midi/se_brake.o
LOAD build/sa2/sound/songs/midi/se_checkpoint.o
LOAD build/sa2/sound/songs/midi/se_cream_cheese_attack.o
LOAD build/sa2/sound/songs/midi/se_cream_flying.o
LOAD build/sa2/sound/songs/midi/se_delete_game_data.o
LOAD build/sa2/sound/songs/midi/se_ice_paradise_slide.o
LOAD build/sa2/sound/songs/midi/se_item_box.o
LOAD build/sa2/sound/songs/midi/se_item_box_2.o
LOAD build/sa2/sound/songs/midi/se_jump.o
LOAD build/sa2/sound/songs/midi/se_life_lost.o
LOAD build/sa2/sound/songs/midi/se_long_brake.o
LOAD build/sa2/sound/songs/midi/se_map_214.o
LOAD build/sa2/sound/songs/midi/se_map_move.o
LOAD build/sa2/sound/songs/midi/se_map_move_end.o
LOAD build/sa2/sound/songs/midi/se_menu_cursor_move.o
LOAD build/sa2/sound/songs/midi/se_music_plant_crash_hit.o
LOAD build/sa2/sound/songs/midi/se_music_plant_enter_horn.o
LOAD build/sa2/sound/songs/midi/se_music_plant_enter_horn2.o
LOAD build/sa2/sound/songs/midi/se_music_plant_exit_horn.o
LOAD build/sa2/sound/songs/midi/se_music_plant_exit_horn2.o
LOAD build/sa2/sound/songs/midi/se_music_plant_flute_1.o
LOAD build/sa2/sound/songs/midi/se_music_plant_flute_2.o
LOAD build/sa2/sound/songs/midi/se_music_plant_flute_3.o
LOAD build/sa2/sound/songs/midi/se_music_plant_flute_4.o
LOAD build/sa2/sound/songs/midi/se_music_plant_glockenspiel_1.o
LOAD build/sa2/sound/songs/midi/se_music_plant_glockenspiel_2.o
LOAD build/sa2/sound/songs/midi/se_music_plant_glockenspiel_3.o
LOAD build/sa2/sound/songs/midi/se_music_plant_glockenspiel_4.o
LOAD build/sa2/sound/songs/midi/se_music_plant_glockenspiel_5.o
LOAD build/sa2/sound/songs/midi/se_music_plant_glockenspiel_6.o
LOAD build/sa2/sound/songs/midi/se_music_plant_guitar_string.o
LOAD build/sa2/sound/songs/midi/se_music_plant_horn3.o
LOAD build/sa2/sound/songs/midi/se_music_plant_notes_1.o
LOAD build/sa2/sound/songs/midi/se_music_plant_notes_2.o
LOAD build/sa2/sound/songs/midi/se_music_plant_notes_3.o
LOAD build/sa2/sound/songs/midi/se_music_plant_notes_4.o
LOAD build/sa2/sound/songs/midi/se_music_plant_notes_5.o
LOAD build/sa2/sound/songs/midi/se_music_plant_notes_6.o
LOAD build/sa2/sound/songs/midi/se_music_plant_notes_7.o
LOAD build/sa2/sound/songs/midi/se_music_plant_notes_8.o
LOAD build/sa2/sound/songs/midi/se_music_plant_piano.o
LOAD build/sa2/sound/songs/midi/se_music_plant_spring_1.o
LOAD build/sa2/sound/songs/midi/se_music_plant_spring_2.o
LOAD build/sa2/sound/songs/midi/se_music_plant_spring_3.o
LOAD build/sa2/sound/songs/midi/se_music_plant_spring_4.o
LOAD build/sa2/sound/songs/midi/se_pause_screen.o
LOAD build/sa2/sound/songs/midi/se_return.o
LOAD build/sa2/sound/songs/midi/se_ring.o
LOAD build/sa2/sound/songs/midi/se_ring_copy.o
LOAD build/sa2/sound/songs/midi/se_rings_lost.o
LOAD build/sa2/sound/songs/midi/se_sa1_goal_post.o
LOAD build/sa2/sound/songs/midi/se_select.o
LOAD build/sa2/sound/songs/midi/se_shift.o
LOAD build/sa2/sound/songs/midi/se_sonic_insta_shield.o
LOAD build/sa2/sound/songs/midi/se_sonic_midair_somersault.o
LOAD build/sa2/sound/songs/midi/se_sonic_skid_attack.o
LOAD build/sa2/sound/songs/midi/se_special_ring.o
LOAD build/sa2/sound/songs/midi/se_speed_booster.o
LOAD build/sa2/sound/songs/midi/se_spikes.o
LOAD build/sa2/sound/songs/midi/se_spin.o
LOAD build/sa2/sound/songs/midi/se_spin_attack.o
LOAD build/sa2/sound/songs/midi/se_spin_dash_release.o
LOAD build/sa2/sound/songs/midi/se_spring.o
LOAD build/sa2/sound/songs/midi/se_springy_pole.o
LOAD build/sa2/sound/songs/midi/se_springy_spring.o
LOAD build/sa2/sound/songs/midi/se_stage_result_counter.o
LOAD build/sa2/sound/songs/midi/se_stage_result_counter_done.o
LOAD build/sa2/sound/songs/midi/se_success.o
LOAD build/sa2/sound/songs/midi/se_suction.o
LOAD build/sa2/sound/songs/midi/se_tails_propeller_flying.o
LOAD build/sa2/sound/songs/midi/se_tails_tail_swipe.o
LOAD build/sa2/sound/songs/midi/se_techno_base_note_block.o
LOAD build/sa2/sound/songs/midi/se_timer.o
LOAD build/sa2/sound/songs/midi/voice__announcer__1.o
LOAD build/sa2/sound/songs/midi/voice__announcer__2.o
LOAD build/sa2/sound/songs/midi/voice__announcer__3.o
LOAD build/sa2/sound/songs/midi/voice__announcer__amy.o
LOAD build/sa2/sound/songs/midi/voice__announcer__congratulations.o
LOAD build/sa2/sound/songs/midi/voice__announcer__cream.o
LOAD build/sa2/sound/songs/midi/voice__announcer__go.o
LOAD build/sa2/sound/songs/midi/voice__announcer__knuckles.o
LOAD build/sa2/sound/songs/midi/voice__announcer__sonic.o
LOAD build/sa2/sound/songs/midi/voice__announcer__sonic_advance_2.o
LOAD build/sa2/sound/songs/midi/voice__announcer__tails.o
LOAD tools/agbcc/lib/libgcc.a
LOAD tools/agbcc/lib/libc.a
OUTPUT(sa2.elf elf32-littlearm)
LOAD linker stubs
