Archive member included to satisfy reference by file (symbol)

/home/runner/work/sa2/sa2/tools/agbcc/lib/libgcc.a(_ashrdi3.o)
                              src/game/math.o (__ashrdi3)
/home/runner/work/sa2/sa2/tools/agbcc/lib/libgcc.a(_call_via_rX.o)
                              src/multi_sio.o (_call_via_r0)
/home/runner/work/sa2/sa2/tools/agbcc/lib/libgcc.a(_divdi3.o)
                              src/game/math.o (__divdi3)
/home/runner/work/sa2/sa2/tools/agbcc/lib/libgcc.a(_divsi3.o)
                              src/lib/m4a/m4a.o (__divsi3)
/home/runner/work/sa2/sa2/tools/agbcc/lib/libgcc.a(_dvmd_tls.o)
                              /home/runner/work/sa2/sa2/tools/agbcc/lib/libgcc.a(_divsi3.o) (__div0)
/home/runner/work/sa2/sa2/tools/agbcc/lib/libgcc.a(_modsi3.o)
                              src/game/options_screen.o (__modsi3)
/home/runner/work/sa2/sa2/tools/agbcc/lib/libgcc.a(_muldi3.o)
                              src/game/math.o (__muldi3)
/home/runner/work/sa2/sa2/tools/agbcc/lib/libgcc.a(_negdi2.o)
                              src/game/math.o (__negdi2)
/home/runner/work/sa2/sa2/tools/agbcc/lib/libgcc.a(_udivsi3.o)
                              src/game/options_screen.o (__udivsi3)
/home/runner/work/sa2/sa2/tools/agbcc/lib/libgcc.a(_umodsi3.o)
                              src/game/options_screen.o (__umodsi3)
/home/runner/work/sa2/sa2/tools/agbcc/lib/libc.a(memset.o)
                              src/game/save.o (memset)
/home/runner/work/sa2/sa2/tools/agbcc/lib/libc.a(memcpy.o)
                              src/game/stage/background/zone_3.o (memcpy)
/home/runner/work/sa2/sa2/libagbsyscall/libagbsyscall.a(Sqrt.o)
                              src/game/math.o (Sqrt)
/home/runner/work/sa2/sa2/libagbsyscall/libagbsyscall.a(Mod.o)
                              src/game/stage/player_super_sonic.o (Mod)
/home/runner/work/sa2/sa2/libagbsyscall/libagbsyscall.a(VBlankIntrWait.o)
                              src/core.o (VBlankIntrWait)
/home/runner/work/sa2/sa2/libagbsyscall/libagbsyscall.a(SoftResetExram.o)
                              src/game/title_screen.o (SoftResetExram)
/home/runner/work/sa2/sa2/libagbsyscall/libagbsyscall.a(LZ77UnCompWram.o)
                              src/input_recorder.o (LZ77UnCompWram)
/home/runner/work/sa2/sa2/libagbsyscall/libagbsyscall.a(ArcTan2.o)
                              src/game/stage/player.o (ArcTan2)
/home/runner/work/sa2/sa2/libagbsyscall/libagbsyscall.a(MultiBoot.o)
                              src/multi_boot.o (MultiBoot)
/home/runner/work/sa2/sa2/libagbsyscall/libagbsyscall.a(Div.o)
                              src/game/stage/background/zone_3.o (Div)
/home/runner/work/sa2/sa2/libagbsyscall/libagbsyscall.a(RLUnCompWram.o)
                              src/game/sa1_sa2_shared/rings_manager.o (RLUnCompWram)
/home/runner/work/sa2/sa2/libagbsyscall/libagbsyscall.a(CpuFastSet.o)
                              src/core.o (CpuFastSet)
/home/runner/work/sa2/sa2/libagbsyscall/libagbsyscall.a(CpuSet.o)
                              src/lib/m4a/m4a.o (CpuSet)
/home/runner/work/sa2/sa2/libagbsyscall/libagbsyscall.a(SoftReset.o)
                              src/core.o (SoftReset)

Allocating common symbols
Common symbol       size              file

gSio32MultiLoadArea
                    0x18              src/sio32_multi_load.o

Discarded input sections

 .text          0x0000000000000000        0x0 data/sound_data.o
 .data          0x0000000000000000        0x0 data/sound_data.o
 .bss           0x0000000000000000        0x0 data/sound_data.o
 .ARM.attributes
                0x0000000000000000       0x20 data/sound_data.o
 .data          0x0000000000000000        0x0 src/lib/m4a/m4a.o
 .bss           0x0000000000000000        0x0 src/lib/m4a/m4a.o
 .ARM.attributes
                0x0000000000000000       0x20 src/lib/m4a/m4a.o
 .data          0x0000000000000000        0x0 src/malloc_ewram.o
 .bss           0x0000000000000000        0x0 src/malloc_ewram.o
 .ARM.attributes
                0x0000000000000000       0x20 src/malloc_ewram.o
 .data          0x0000000000000000        0x0 src/multi_boot.o
 .ARM.attributes
                0x0000000000000000       0x20 src/multi_boot.o
 .ARM.attributes
                0x0000000000000000       0x20 src/game/stage/background/zone_3.o
 .ARM.attributes
                0x0000000000000000       0x20 src/game/stage/background/zone_4.o
 .data          0x0000000000000000        0x0 src/game/stage/collision.o
 .ARM.attributes
                0x0000000000000000       0x20 src/game/stage/collision.o
 .ARM.attributes
                0x0000000000000000       0x20 src/lib/agb_flash/agb_flash.o
 .bss           0x0000000000000000        0x0 src/multi_sio.o
 .ARM.attributes
                0x0000000000000000       0x20 src/multi_sio.o
 .data          0x0000000000000000        0x0 src/sio32_multi_load.o
 .bss           0x0000000000000000        0x0 src/sio32_multi_load.o
 .ARM.attributes
                0x0000000000000000       0x20 src/sio32_multi_load.o
 .bss           0x0000000000000000        0x0 src/core.o
 .ARM.attributes
                0x0000000000000000       0x20 src/core.o
 .bss           0x0000000000000000        0x0 src/input_recorder.o
 .ARM.attributes
                0x0000000000000000       0x20 src/input_recorder.o
 .text          0x0000000000000000        0x0 src/game/sa1_sa2_shared/globals.o
 .bss           0x0000000000000000        0x0 src/game/sa1_sa2_shared/globals.o
 .ARM.attributes
                0x0000000000000000       0x20 src/game/sa1_sa2_shared/globals.o
 .bss           0x0000000000000000        0x0 src/game/water_effects.o
 .ARM.attributes
                0x0000000000000000       0x20 src/game/water_effects.o
 .bss           0x0000000000000000        0x0 src/game/cheese.o
 .ARM.attributes
                0x0000000000000000       0x20 src/game/cheese.o
 .bss           0x0000000000000000        0x0 src/game/boost_effect.o
 .ARM.attributes
                0x0000000000000000       0x20 src/game/boost_effect.o
 .bss           0x0000000000000000        0x0 src/game/multiplayer/mp_player.o
 .ARM.attributes
                0x0000000000000000       0x20 src/game/multiplayer/mp_player.o
 .bss           0x0000000000000000        0x0 src/game/multiplayer/mp_attack_2_effect.o
 .ARM.attributes
                0x0000000000000000       0x20 src/game/multiplayer/mp_attack_2_effect.o
 .bss           0x0000000000000000        0x0 src/game/dummy_task.o
 .ARM.attributes
                0x0000000000000000       0x20 src/game/dummy_task.o
 .bss           0x0000000000000000        0x0 src/game/stage/stage.o
 .ARM.attributes
                0x0000000000000000       0x20 src/game/stage/stage.o
 .bss           0x0000000000000000        0x0 src/game/stage/camera.o
 .ARM.attributes
                0x0000000000000000       0x20 src/game/stage/camera.o
 .bss           0x0000000000000000        0x0 src/game/stage/dust_effect_braking.o
 .ARM.attributes
                0x0000000000000000       0x20 src/game/stage/dust_effect_braking.o
 .bss           0x0000000000000000        0x0 src/game/stage/rings_scatter.o
 .ARM.attributes
                0x0000000000000000       0x20 src/game/stage/rings_scatter.o
 .bss           0x0000000000000000        0x0 src/game/stage/player.o
 .ARM.attributes
                0x0000000000000000       0x20 src/game/stage/player.o
 .bss           0x0000000000000000        0x0 src/game/stage/underwater_effects.o
 .ARM.attributes
                0x0000000000000000       0x20 src/game/stage/underwater_effects.o
 .bss           0x0000000000000000        0x0 src/game/stage/player_controls.o
 .ARM.attributes
                0x0000000000000000       0x20 src/game/stage/player_controls.o
 .bss           0x0000000000000000        0x0 src/game/stage/player_super_sonic.o
 .ARM.attributes
                0x0000000000000000       0x20 src/game/stage/player_super_sonic.o
 .bss           0x0000000000000000        0x0 src/game/stage/ui.o
 .ARM.attributes
                0x0000000000000000       0x20 src/game/stage/ui.o
 .bss           0x0000000000000000        0x0 src/game/stage/debug_text_printer.o
 .ARM.attributes
                0x0000000000000000       0x20 src/game/stage/debug_text_printer.o
 .bss           0x0000000000000000        0x0 src/game/bosses/common.o
 .ARM.attributes
                0x0000000000000000       0x20 src/game/bosses/common.o
 .bss           0x0000000000000000        0x0 src/game/options_screen.o
 .ARM.attributes
                0x0000000000000000       0x20 src/game/options_screen.o
 .bss           0x0000000000000000        0x0 src/game/special_stage/utils.o
 .ARM.attributes
                0x0000000000000000       0x20 src/game/special_stage/utils.o
 .bss           0x0000000000000000        0x0 src/game/save.o
 .ARM.attributes
                0x0000000000000000       0x20 src/game/save.o
 .bss           0x0000000000000000        0x0 src/game/multiboot/collect_rings/time_display.o
 .ARM.attributes
                0x0000000000000000       0x20 src/game/multiboot/collect_rings/time_display.o
 .bss           0x0000000000000000        0x0 src/game/math.o
 .ARM.attributes
                0x0000000000000000       0x20 src/game/math.o
 .bss           0x0000000000000000        0x0 src/game/multiplayer/mp_attack_1_effect.o
 .ARM.attributes
                0x0000000000000000       0x20 src/game/multiplayer/mp_attack_1_effect.o
 .bss           0x0000000000000000        0x0 src/game/bg_palette_effects.o
 .ARM.attributes
                0x0000000000000000       0x20 src/game/bg_palette_effects.o
 .data          0x0000000000000000        0x0 src/rom_header.o
 .bss           0x0000000000000000        0x0 src/rom_header.o
 .ARM.attributes
                0x0000000000000000       0x20 src/rom_header.o
 .data          0x0000000000000000        0x0 src/crt0.o
 .bss           0x0000000000000000        0x0 src/crt0.o
 .ARM.attributes
                0x0000000000000000       0x20 src/crt0.o
 .data          0x0000000000000000        0x0 src/multi_sio_asm.o
 .bss           0x0000000000000000        0x0 src/multi_sio_asm.o
 .ARM.attributes
                0x0000000000000000       0x20 src/multi_sio_asm.o
 .data          0x0000000000000000        0x0 src/main.o
 .bss           0x0000000000000000        0x0 src/main.o
 .ARM.attributes
                0x0000000000000000       0x20 src/main.o
 .data          0x0000000000000000        0x0 src/task.o
 .bss           0x0000000000000000        0x0 src/task.o
 .ARM.attributes
                0x0000000000000000       0x20 src/task.o
 .data          0x0000000000000000        0x0 src/background.o
 .bss           0x0000000000000000        0x0 src/background.o
 .ARM.attributes
                0x0000000000000000       0x20 src/background.o
 .data          0x0000000000000000        0x0 src/sprite.o
 .bss           0x0000000000000000        0x0 src/sprite.o
 .ARM.attributes
                0x0000000000000000       0x20 src/sprite.o
 .data          0x0000000000000000        0x0 src/bg_triangles.o
 .bss           0x0000000000000000        0x0 src/bg_triangles.o
 .ARM.attributes
                0x0000000000000000       0x20 src/bg_triangles.o
 .data          0x0000000000000000        0x0 src/malloc_vram.o
 .bss           0x0000000000000000        0x0 src/malloc_vram.o
 .ARM.attributes
                0x0000000000000000       0x20 src/malloc_vram.o
 .data          0x0000000000000000        0x0 src/game/sa1_sa2_shared/rings_manager.o
 .bss           0x0000000000000000        0x0 src/game/sa1_sa2_shared/rings_manager.o
 .ARM.attributes
                0x0000000000000000       0x20 src/game/sa1_sa2_shared/rings_manager.o
 .data          0x0000000000000000        0x0 src/game/sa1_sa2_shared/entities_manager.o
 .bss           0x0000000000000000        0x0 src/game/sa1_sa2_shared/entities_manager.o
 .ARM.attributes
                0x0000000000000000       0x20 src/game/sa1_sa2_shared/entities_manager.o
 .data          0x0000000000000000        0x0 src/game/sa1_sa2_shared/palette_loader.o
 .bss           0x0000000000000000        0x0 src/game/sa1_sa2_shared/palette_loader.o
 .ARM.attributes
                0x0000000000000000       0x20 src/game/sa1_sa2_shared/palette_loader.o
 .data          0x0000000000000000        0x0 src/game/sa1_sa2_shared/unused_level_select.o
 .bss           0x0000000000000000        0x0 src/game/sa1_sa2_shared/unused_level_select.o
 .ARM.attributes
                0x0000000000000000       0x20 src/game/sa1_sa2_shared/unused_level_select.o
 .data          0x0000000000000000        0x0 src/game/sa1_sa2_shared/spot_light_beam_task.o
 .bss           0x0000000000000000        0x0 src/game/sa1_sa2_shared/spot_light_beam_task.o
 .ARM.attributes
                0x0000000000000000       0x20 src/game/sa1_sa2_shared/spot_light_beam_task.o
 .data          0x0000000000000000        0x0 src/game/sa1_sa2_shared/enemy_defeat_score.o
 .bss           0x0000000000000000        0x0 src/game/sa1_sa2_shared/enemy_defeat_score.o
 .ARM.attributes
                0x0000000000000000       0x20 src/game/sa1_sa2_shared/enemy_defeat_score.o
 .data          0x0000000000000000        0x0 src/game/sa1_sa2_shared/demo_manager.o
 .bss           0x0000000000000000        0x0 src/game/sa1_sa2_shared/demo_manager.o
 .ARM.attributes
                0x0000000000000000       0x20 src/game/sa1_sa2_shared/demo_manager.o
 .data          0x0000000000000000        0x0 src/game/sa1_sa2_shared/unused_flash_task.o
 .bss           0x0000000000000000        0x0 src/game/sa1_sa2_shared/unused_flash_task.o
 .ARM.attributes
                0x0000000000000000       0x20 src/game/sa1_sa2_shared/unused_flash_task.o
 .data          0x0000000000000000        0x0 src/game/sa1_sa2_shared/simple_sprite_particle.o
 .bss           0x0000000000000000        0x0 src/game/sa1_sa2_shared/simple_sprite_particle.o
 .ARM.attributes
                0x0000000000000000       0x20 src/game/sa1_sa2_shared/simple_sprite_particle.o
 .data          0x0000000000000000        0x0 src/game/sa1_sa2_shared/spot_light.o
 .bss           0x0000000000000000        0x0 src/game/sa1_sa2_shared/spot_light.o
 .ARM.attributes
                0x0000000000000000       0x20 src/game/sa1_sa2_shared/spot_light.o
 .data          0x0000000000000000        0x0 src/game/sa1_sa2_shared/pause_menu.o
 .bss           0x0000000000000000        0x0 src/game/sa1_sa2_shared/pause_menu.o
 .ARM.attributes
                0x0000000000000000       0x20 src/game/sa1_sa2_shared/pause_menu.o
 .data          0x0000000000000000        0x0 src/game/sa1_sa2_shared/collect_ring_effect.o
 .bss           0x0000000000000000        0x0 src/game/sa1_sa2_shared/collect_ring_effect.o
 .ARM.attributes
                0x0000000000000000       0x20 src/game/sa1_sa2_shared/collect_ring_effect.o
 .data          0x0000000000000000        0x0 src/game/sa1_sa2_shared/item_box.o
 .bss           0x0000000000000000        0x0 src/game/sa1_sa2_shared/item_box.o
 .ARM.attributes
                0x0000000000000000       0x20 src/game/sa1_sa2_shared/item_box.o
 .data          0x0000000000000000        0x0 src/game/sa1_sa2_shared/dust_cloud.o
 .bss           0x0000000000000000        0x0 src/game/sa1_sa2_shared/dust_cloud.o
 .ARM.attributes
                0x0000000000000000       0x20 src/game/sa1_sa2_shared/dust_cloud.o
 .data          0x0000000000000000        0x0 src/game/sa1_sa2_shared/magnetic_ring.o
 .bss           0x0000000000000000        0x0 src/game/sa1_sa2_shared/magnetic_ring.o
 .ARM.attributes
                0x0000000000000000       0x20 src/game/sa1_sa2_shared/magnetic_ring.o
 .data          0x0000000000000000        0x0 src/game/sa1_sa2_shared/music_manager.o
 .bss           0x0000000000000000        0x0 src/game/sa1_sa2_shared/music_manager.o
 .ARM.attributes
                0x0000000000000000       0x20 src/game/sa1_sa2_shared/music_manager.o
 .data          0x0000000000000000        0x0 src/game/sa1_sa2_shared/collision.o
 .bss           0x0000000000000000        0x0 src/game/sa1_sa2_shared/collision.o
 .ARM.attributes
                0x0000000000000000       0x20 src/game/sa1_sa2_shared/collision.o
 .bss           0x0000000000000000        0x0 src/game/sa1_sa2_shared/input_buffer.o
 .ARM.attributes
                0x0000000000000000       0x20 src/game/sa1_sa2_shared/input_buffer.o
 .data          0x0000000000000000        0x0 src/game/sa1_sa2_shared/interactables/spring.o
 .bss           0x0000000000000000        0x0 src/game/sa1_sa2_shared/interactables/spring.o
 .ARM.attributes
                0x0000000000000000       0x20 src/game/sa1_sa2_shared/interactables/spring.o
 .data          0x0000000000000000        0x0 src/game/sa1_sa2_shared/interactables/platform.o
 .bss           0x0000000000000000        0x0 src/game/sa1_sa2_shared/interactables/platform.o
 .ARM.attributes
                0x0000000000000000       0x20 src/game/sa1_sa2_shared/interactables/platform.o
 .data          0x0000000000000000        0x0 src/game/sa1_sa2_shared/interactables/platform_square.o
 .bss           0x0000000000000000        0x0 src/game/sa1_sa2_shared/interactables/platform_square.o
 .ARM.attributes
                0x0000000000000000       0x20 src/game/sa1_sa2_shared/interactables/platform_square.o
 .data          0x0000000000000000        0x0 src/game/sa1_sa2_shared/interactables/ramp.o
 .bss           0x0000000000000000        0x0 src/game/sa1_sa2_shared/interactables/ramp.o
 .ARM.attributes
                0x0000000000000000       0x20 src/game/sa1_sa2_shared/interactables/ramp.o
 .data          0x0000000000000000        0x0 src/game/sa1_sa2_shared/interactables/grind_rail.o
 .bss           0x0000000000000000        0x0 src/game/sa1_sa2_shared/interactables/grind_rail.o
 .ARM.attributes
                0x0000000000000000       0x20 src/game/sa1_sa2_shared/interactables/grind_rail.o
 .data          0x0000000000000000        0x0 src/game/sa1_sa2_shared/interactables/ceiling_slope.o
 .bss           0x0000000000000000        0x0 src/game/sa1_sa2_shared/interactables/ceiling_slope.o
 .ARM.attributes
                0x0000000000000000       0x20 src/game/sa1_sa2_shared/interactables/ceiling_slope.o
 .data          0x0000000000000000        0x0 src/game/sa1_sa2_shared/interactables/pipe.o
 .bss           0x0000000000000000        0x0 src/game/sa1_sa2_shared/interactables/pipe.o
 .ARM.attributes
                0x0000000000000000       0x20 src/game/sa1_sa2_shared/interactables/pipe.o
 .data          0x0000000000000000        0x0 src/game/sa1_sa2_shared/interactables/platform_thin.o
 .bss           0x0000000000000000        0x0 src/game/sa1_sa2_shared/interactables/platform_thin.o
 .ARM.attributes
                0x0000000000000000       0x20 src/game/sa1_sa2_shared/interactables/platform_thin.o
 .data          0x0000000000000000        0x0 src/game/sa1_sa2_shared/interactables/slidy_ice.o
 .bss           0x0000000000000000        0x0 src/game/sa1_sa2_shared/interactables/slidy_ice.o
 .ARM.attributes
                0x0000000000000000       0x20 src/game/sa1_sa2_shared/interactables/slidy_ice.o
 .data          0x0000000000000000        0x0 src/game/player_callbacks.o
 .bss           0x0000000000000000        0x0 src/game/player_callbacks.o
 .ARM.attributes
                0x0000000000000000       0x20 src/game/player_callbacks.o
 .data          0x0000000000000000        0x0 src/game/amy_attack_heart_effect.o
 .bss           0x0000000000000000        0x0 src/game/amy_attack_heart_effect.o
 .ARM.attributes
                0x0000000000000000       0x20 src/game/amy_attack_heart_effect.o
 .data          0x0000000000000000        0x0 src/game/multiplayer/multiplayer_event_mgr.o
 .bss           0x0000000000000000        0x0 src/game/multiplayer/multiplayer_event_mgr.o
 .ARM.attributes
                0x0000000000000000       0x20 src/game/multiplayer/multiplayer_event_mgr.o
 .data          0x0000000000000000        0x0 src/game/multiplayer/multiplayer_event_recv_mgr.o
 .bss           0x0000000000000000        0x0 src/game/multiplayer/multiplayer_event_recv_mgr.o
 .ARM.attributes
                0x0000000000000000       0x20 src/game/multiplayer/multiplayer_event_recv_mgr.o
 .data          0x0000000000000000        0x0 src/game/multiplayer/indicators.o
 .bss           0x0000000000000000        0x0 src/game/multiplayer/indicators.o
 .ARM.attributes
                0x0000000000000000       0x20 src/game/multiplayer/indicators.o
 .data          0x0000000000000000        0x0 src/game/multiplayer/finish.o
 .bss           0x0000000000000000        0x0 src/game/multiplayer/finish.o
 .ARM.attributes
                0x0000000000000000       0x20 src/game/multiplayer/finish.o
 .data          0x0000000000000000        0x0 src/game/game.o
 .bss           0x0000000000000000        0x0 src/game/game.o
 .ARM.attributes
                0x0000000000000000       0x20 src/game/game.o
 .data          0x0000000000000000        0x0 src/game/stage/background/zone_1.o
 .bss           0x0000000000000000        0x0 src/game/stage/background/zone_1.o
 .ARM.attributes
                0x0000000000000000       0x20 src/game/stage/background/zone_1.o
 .data          0x0000000000000000        0x0 src/game/stage/background/zone_2.o
 .bss           0x0000000000000000        0x0 src/game/stage/background/zone_2.o
 .ARM.attributes
                0x0000000000000000       0x20 src/game/stage/background/zone_2.o
 .data          0x0000000000000000        0x0 src/game/stage/background/zone_5.o
 .bss           0x0000000000000000        0x0 src/game/stage/background/zone_5.o
 .ARM.attributes
                0x0000000000000000       0x20 src/game/stage/background/zone_5.o
 .data          0x0000000000000000        0x0 src/game/stage/background/zone_6.o
 .bss           0x0000000000000000        0x0 src/game/stage/background/zone_6.o
 .ARM.attributes
                0x0000000000000000       0x20 src/game/stage/background/zone_6.o
 .data          0x0000000000000000        0x0 src/game/stage/background/zone_7_1.o
 .bss           0x0000000000000000        0x0 src/game/stage/background/zone_7_1.o
 .ARM.attributes
                0x0000000000000000       0x20 src/game/stage/background/zone_7_1.o
 .data          0x0000000000000000        0x0 src/game/stage/background/zone_final.o
 .bss           0x0000000000000000        0x0 src/game/stage/background/zone_final.o
 .ARM.attributes
                0x0000000000000000       0x20 src/game/stage/background/zone_final.o
 .data          0x0000000000000000        0x0 src/game/stage/camera_destroy.o
 .bss           0x0000000000000000        0x0 src/game/stage/camera_destroy.o
 .ARM.attributes
                0x0000000000000000       0x20 src/game/stage/camera_destroy.o
 .data          0x0000000000000000        0x0 src/game/stage/background/zone_2_init.o
 .bss           0x0000000000000000        0x0 src/game/stage/background/zone_2_init.o
 .ARM.attributes
                0x0000000000000000       0x20 src/game/stage/background/zone_2_init.o
 .data          0x0000000000000000        0x0 src/game/stage/background/dummy.o
 .bss           0x0000000000000000        0x0 src/game/stage/background/dummy.o
 .ARM.attributes
                0x0000000000000000       0x20 src/game/stage/background/dummy.o
 .data          0x0000000000000000        0x0 src/game/stage/background/zone_1_boss.o
 .bss           0x0000000000000000        0x0 src/game/stage/background/zone_1_boss.o
 .ARM.attributes
                0x0000000000000000       0x20 src/game/stage/background/zone_1_boss.o
 .data          0x0000000000000000        0x0 src/game/stage/background/zone_2_boss.o
 .bss           0x0000000000000000        0x0 src/game/stage/background/zone_2_boss.o
 .ARM.attributes
                0x0000000000000000       0x20 src/game/stage/background/zone_2_boss.o
 .data          0x0000000000000000        0x0 src/game/stage/background/zone_3_boss.o
 .bss           0x0000000000000000        0x0 src/game/stage/background/zone_3_boss.o
 .ARM.attributes
                0x0000000000000000       0x20 src/game/stage/background/zone_3_boss.o
 .data          0x0000000000000000        0x0 src/game/stage/background/zone_5_boss.o
 .bss           0x0000000000000000        0x0 src/game/stage/background/zone_5_boss.o
 .ARM.attributes
                0x0000000000000000       0x20 src/game/stage/background/zone_5_boss.o
 .data          0x0000000000000000        0x0 src/game/stage/background/zone_6_boss.o
 .bss           0x0000000000000000        0x0 src/game/stage/background/zone_6_boss.o
 .ARM.attributes
                0x0000000000000000       0x20 src/game/stage/background/zone_6_boss.o
 .data          0x0000000000000000        0x0 src/game/stage/background/zone_7_2.o
 .bss           0x0000000000000000        0x0 src/game/stage/background/zone_7_2.o
 .ARM.attributes
                0x0000000000000000       0x20 src/game/stage/background/zone_7_2.o
 .data          0x0000000000000000        0x0 src/game/stage/background/zone_7_boss.o
 .bss           0x0000000000000000        0x0 src/game/stage/background/zone_7_boss.o
 .ARM.attributes
                0x0000000000000000       0x20 src/game/stage/background/zone_7_boss.o
 .data          0x0000000000000000        0x0 src/game/stage/background/zone_final_boss.o
 .bss           0x0000000000000000        0x0 src/game/stage/background/zone_final_boss.o
 .ARM.attributes
                0x0000000000000000       0x20 src/game/stage/background/zone_final_boss.o
 .data          0x0000000000000000        0x0 src/game/stage/background/zone_extra_boss.o
 .bss           0x0000000000000000        0x0 src/game/stage/background/zone_extra_boss.o
 .ARM.attributes
                0x0000000000000000       0x20 src/game/stage/background/zone_extra_boss.o
 .data          0x0000000000000000        0x0 src/game/stage/background/callbacks.o
 .bss           0x0000000000000000        0x0 src/game/stage/background/callbacks.o
 .ARM.attributes
                0x0000000000000000       0x20 src/game/stage/background/callbacks.o
 .data          0x0000000000000000        0x0 src/game/stage/mp_sprite_task.o
 .bss           0x0000000000000000        0x0 src/game/stage/mp_sprite_task.o
 .ARM.attributes
                0x0000000000000000       0x20 src/game/stage/mp_sprite_task.o
 .data          0x0000000000000000        0x0 src/game/stage/dust_effect_spindash.o
 .bss           0x0000000000000000        0x0 src/game/stage/dust_effect_spindash.o
 .ARM.attributes
                0x0000000000000000       0x20 src/game/stage/dust_effect_spindash.o
 .data          0x0000000000000000        0x0 src/game/stage/grind_effect_1.o
 .bss           0x0000000000000000        0x0 src/game/stage/grind_effect_1.o
 .ARM.attributes
                0x0000000000000000       0x20 src/game/stage/grind_effect_1.o
 .data          0x0000000000000000        0x0 src/game/stage/item_tasks.o
 .bss           0x0000000000000000        0x0 src/game/stage/item_tasks.o
 .ARM.attributes
                0x0000000000000000       0x20 src/game/stage/item_tasks.o
 .data          0x0000000000000000        0x0 src/game/stage/screen_shake.o
 .bss           0x0000000000000000        0x0 src/game/stage/screen_shake.o
 .ARM.attributes
                0x0000000000000000       0x20 src/game/stage/screen_shake.o
 .data          0x0000000000000000        0x0 src/game/stage/screen_fade.o
 .bss           0x0000000000000000        0x0 src/game/stage/screen_fade.o
 .ARM.attributes
                0x0000000000000000       0x20 src/game/stage/screen_fade.o
 .data          0x0000000000000000        0x0 src/game/stage/trapped_animals.o
 .bss           0x0000000000000000        0x0 src/game/stage/trapped_animals.o
 .ARM.attributes
                0x0000000000000000       0x20 src/game/stage/trapped_animals.o
 .data          0x0000000000000000        0x0 src/game/stage/game_7.o
 .bss           0x0000000000000000        0x0 src/game/stage/game_7.o
 .ARM.attributes
                0x0000000000000000       0x20 src/game/stage/game_7.o
 .data          0x0000000000000000        0x0 src/game/stage/boss_results_transition.o
 .bss           0x0000000000000000        0x0 src/game/stage/boss_results_transition.o
 .ARM.attributes
                0x0000000000000000       0x20 src/game/stage/boss_results_transition.o
 .data          0x0000000000000000        0x0 src/game/stage/intro.o
 .bss           0x0000000000000000        0x0 src/game/stage/intro.o
 .ARM.attributes
                0x0000000000000000       0x20 src/game/stage/intro.o
 .data          0x0000000000000000        0x0 src/game/stage/results.o
 .bss           0x0000000000000000        0x0 src/game/stage/results.o
 .ARM.attributes
                0x0000000000000000       0x20 src/game/stage/results.o
 .data          0x0000000000000000        0x0 src/game/character_select.o
 .bss           0x0000000000000000        0x0 src/game/character_select.o
 .ARM.attributes
                0x0000000000000000       0x20 src/game/character_select.o
 .data          0x0000000000000000        0x0 src/game/course_select.o
 .bss           0x0000000000000000        0x0 src/game/course_select.o
 .ARM.attributes
                0x0000000000000000       0x20 src/game/course_select.o
 .data          0x0000000000000000        0x0 src/game/countdown.o
 .bss           0x0000000000000000        0x0 src/game/countdown.o
 .ARM.attributes
                0x0000000000000000       0x20 src/game/countdown.o
 .data          0x0000000000000000        0x0 src/game/game_over.o
 .bss           0x0000000000000000        0x0 src/game/game_over.o
 .ARM.attributes
                0x0000000000000000       0x20 src/game/game_over.o
 .data          0x0000000000000000        0x0 src/game/bosses/final_intro.o
 .bss           0x0000000000000000        0x0 src/game/bosses/final_intro.o
 .ARM.attributes
                0x0000000000000000       0x20 src/game/bosses/final_intro.o
 .data          0x0000000000000000        0x0 src/game/bosses/explosion_parts.o
 .bss           0x0000000000000000        0x0 src/game/bosses/explosion_parts.o
 .ARM.attributes
                0x0000000000000000       0x20 src/game/bosses/explosion_parts.o
 .data          0x0000000000000000        0x0 src/game/bosses/eggmobile_escape_sequence.o
 .bss           0x0000000000000000        0x0 src/game/bosses/eggmobile_escape_sequence.o
 .ARM.attributes
                0x0000000000000000       0x20 src/game/bosses/eggmobile_escape_sequence.o
 .data          0x0000000000000000        0x0 src/game/bosses/boss_1.o
 .bss           0x0000000000000000        0x0 src/game/bosses/boss_1.o
 .ARM.attributes
                0x0000000000000000       0x20 src/game/bosses/boss_1.o
 .data          0x0000000000000000        0x0 src/game/bosses/boss_2.o
 .bss           0x0000000000000000        0x0 src/game/bosses/boss_2.o
 .ARM.attributes
                0x0000000000000000       0x20 src/game/bosses/boss_2.o
 .data          0x0000000000000000        0x0 src/game/bosses/boss_3.o
 .bss           0x0000000000000000        0x0 src/game/bosses/boss_3.o
 .ARM.attributes
                0x0000000000000000       0x20 src/game/bosses/boss_3.o
 .data          0x0000000000000000        0x0 src/game/bosses/boss_4.o
 .bss           0x0000000000000000        0x0 src/game/bosses/boss_4.o
 .ARM.attributes
                0x0000000000000000       0x20 src/game/bosses/boss_4.o
 .data          0x0000000000000000        0x0 src/game/bosses/boss_5.o
 .bss           0x0000000000000000        0x0 src/game/bosses/boss_5.o
 .ARM.attributes
                0x0000000000000000       0x20 src/game/bosses/boss_5.o
 .data          0x0000000000000000        0x0 src/game/bosses/boss_6.o
 .bss           0x0000000000000000        0x0 src/game/bosses/boss_6.o
 .ARM.attributes
                0x0000000000000000       0x20 src/game/bosses/boss_6.o
 .data          0x0000000000000000        0x0 src/game/bosses/boss_7.o
 .bss           0x0000000000000000        0x0 src/game/bosses/boss_7.o
 .ARM.attributes
                0x0000000000000000       0x20 src/game/bosses/boss_7.o
 .data          0x0000000000000000        0x0 src/game/bosses/boss_8.o
 .bss           0x0000000000000000        0x0 src/game/bosses/boss_8.o
 .ARM.attributes
                0x0000000000000000       0x20 src/game/bosses/boss_8.o
 .data          0x0000000000000000        0x0 src/game/bosses/boss_9.o
 .bss           0x0000000000000000        0x0 src/game/bosses/boss_9.o
 .ARM.attributes
                0x0000000000000000       0x20 src/game/bosses/boss_9.o
 .data          0x0000000000000000        0x0 src/game/enemies/projectiles.o
 .bss           0x0000000000000000        0x0 src/game/enemies/projectiles.o
 .ARM.attributes
                0x0000000000000000       0x20 src/game/enemies/projectiles.o
 .data          0x0000000000000000        0x0 src/game/enemies/mon.o
 .bss           0x0000000000000000        0x0 src/game/enemies/mon.o
 .ARM.attributes
                0x0000000000000000       0x20 src/game/enemies/mon.o
 .data          0x0000000000000000        0x0 src/game/enemies/gohla.o
 .bss           0x0000000000000000        0x0 src/game/enemies/gohla.o
 .ARM.attributes
                0x0000000000000000       0x20 src/game/enemies/gohla.o
 .data          0x0000000000000000        0x0 src/game/enemies/kura_kura.o
 .bss           0x0000000000000000        0x0 src/game/enemies/kura_kura.o
 .ARM.attributes
                0x0000000000000000       0x20 src/game/enemies/kura_kura.o
 .data          0x0000000000000000        0x0 src/game/enemies/kubinaga.o
 .bss           0x0000000000000000        0x0 src/game/enemies/kubinaga.o
 .ARM.attributes
                0x0000000000000000       0x20 src/game/enemies/kubinaga.o
 .data          0x0000000000000000        0x0 src/game/enemies/buzzer.o
 .bss           0x0000000000000000        0x0 src/game/enemies/buzzer.o
 .ARM.attributes
                0x0000000000000000       0x20 src/game/enemies/buzzer.o
 .data          0x0000000000000000        0x0 src/game/enemies/kiki.o
 .bss           0x0000000000000000        0x0 src/game/enemies/kiki.o
 .ARM.attributes
                0x0000000000000000       0x20 src/game/enemies/kiki.o
 .data          0x0000000000000000        0x0 src/game/enemies/koura.o
 .bss           0x0000000000000000        0x0 src/game/enemies/koura.o
 .ARM.attributes
                0x0000000000000000       0x20 src/game/enemies/koura.o
 .data          0x0000000000000000        0x0 src/game/enemies/bell.o
 .bss           0x0000000000000000        0x0 src/game/enemies/bell.o
 .ARM.attributes
                0x0000000000000000       0x20 src/game/enemies/bell.o
 .data          0x0000000000000000        0x0 src/game/enemies/yado.o
 .bss           0x0000000000000000        0x0 src/game/enemies/yado.o
 .ARM.attributes
                0x0000000000000000       0x20 src/game/enemies/yado.o
 .data          0x0000000000000000        0x0 src/game/enemies/piko_piko.o
 .bss           0x0000000000000000        0x0 src/game/enemies/piko_piko.o
 .ARM.attributes
                0x0000000000000000       0x20 src/game/enemies/piko_piko.o
 .data          0x0000000000000000        0x0 src/game/enemies/circus.o
 .bss           0x0000000000000000        0x0 src/game/enemies/circus.o
 .ARM.attributes
                0x0000000000000000       0x20 src/game/enemies/circus.o
 .data          0x0000000000000000        0x0 src/game/enemies/madillo.o
 .bss           0x0000000000000000        0x0 src/game/enemies/madillo.o
 .ARM.attributes
                0x0000000000000000       0x20 src/game/enemies/madillo.o
 .data          0x0000000000000000        0x0 src/game/enemies/straw.o
 .bss           0x0000000000000000        0x0 src/game/enemies/straw.o
 .ARM.attributes
                0x0000000000000000       0x20 src/game/enemies/straw.o
 .data          0x0000000000000000        0x0 src/game/enemies/hammerhead.o
 .bss           0x0000000000000000        0x0 src/game/enemies/hammerhead.o
 .ARM.attributes
                0x0000000000000000       0x20 src/game/enemies/hammerhead.o
 .data          0x0000000000000000        0x0 src/game/enemies/spinner.o
 .bss           0x0000000000000000        0x0 src/game/enemies/spinner.o
 .ARM.attributes
                0x0000000000000000       0x20 src/game/enemies/spinner.o
 .data          0x0000000000000000        0x0 src/game/enemies/mouse.o
 .bss           0x0000000000000000        0x0 src/game/enemies/mouse.o
 .ARM.attributes
                0x0000000000000000       0x20 src/game/enemies/mouse.o
 .data          0x0000000000000000        0x0 src/game/enemies/pen.o
 .bss           0x0000000000000000        0x0 src/game/enemies/pen.o
 .ARM.attributes
                0x0000000000000000       0x20 src/game/enemies/pen.o
 .data          0x0000000000000000        0x0 src/game/enemies/geji_geji.o
 .bss           0x0000000000000000        0x0 src/game/enemies/geji_geji.o
 .ARM.attributes
                0x0000000000000000       0x20 src/game/enemies/geji_geji.o
 .data          0x0000000000000000        0x0 src/game/enemies/balloon.o
 .bss           0x0000000000000000        0x0 src/game/enemies/balloon.o
 .ARM.attributes
                0x0000000000000000       0x20 src/game/enemies/balloon.o
 .data          0x0000000000000000        0x0 src/game/enemies/flickey.o
 .bss           0x0000000000000000        0x0 src/game/enemies/flickey.o
 .ARM.attributes
                0x0000000000000000       0x20 src/game/enemies/flickey.o
 .data          0x0000000000000000        0x0 src/game/enemies/kyura.o
 .bss           0x0000000000000000        0x0 src/game/enemies/kyura.o
 .ARM.attributes
                0x0000000000000000       0x20 src/game/enemies/kyura.o
 .data          0x0000000000000000        0x0 src/game/enemies/bullet_buzzer.o
 .bss           0x0000000000000000        0x0 src/game/enemies/bullet_buzzer.o
 .ARM.attributes
                0x0000000000000000       0x20 src/game/enemies/bullet_buzzer.o
 .data          0x0000000000000000        0x0 src/game/enemies/star.o
 .bss           0x0000000000000000        0x0 src/game/enemies/star.o
 .ARM.attributes
                0x0000000000000000       0x20 src/game/enemies/star.o
 .data          0x0000000000000000        0x0 src/game/multiplayer/mode_select.o
 .bss           0x0000000000000000        0x0 src/game/multiplayer/mode_select.o
 .ARM.attributes
                0x0000000000000000       0x20 src/game/multiplayer/mode_select.o
 .data          0x0000000000000000        0x0 src/game/multiplayer/multipak_connection.o
 .bss           0x0000000000000000        0x0 src/game/multiplayer/multipak_connection.o
 .ARM.attributes
                0x0000000000000000       0x20 src/game/multiplayer/multipak_connection.o
 .data          0x0000000000000000        0x0 src/game/multiplayer/communication_outcome.o
 .bss           0x0000000000000000        0x0 src/game/multiplayer/communication_outcome.o
 .ARM.attributes
                0x0000000000000000       0x20 src/game/multiplayer/communication_outcome.o
 .data          0x0000000000000000        0x0 src/game/multiplayer/results.o
 .bss           0x0000000000000000        0x0 src/game/multiplayer/results.o
 .ARM.attributes
                0x0000000000000000       0x20 src/game/multiplayer/results.o
 .data          0x0000000000000000        0x0 src/game/multiplayer/team_play.o
 .bss           0x0000000000000000        0x0 src/game/multiplayer/team_play.o
 .ARM.attributes
                0x0000000000000000       0x20 src/game/multiplayer/team_play.o
 .data          0x0000000000000000        0x0 src/game/interactables_1/decoration.o
 .bss           0x0000000000000000        0x0 src/game/interactables_1/decoration.o
 .ARM.attributes
                0x0000000000000000       0x20 src/game/interactables_1/decoration.o
 .data          0x0000000000000000        0x0 src/game/interactables_1/booster.o
 .bss           0x0000000000000000        0x0 src/game/interactables_1/booster.o
 .ARM.attributes
                0x0000000000000000       0x20 src/game/interactables_1/booster.o
 .data          0x0000000000000000        0x0 src/game/interactables_1/incline_ramp.o
 .bss           0x0000000000000000        0x0 src/game/interactables_1/incline_ramp.o
 .ARM.attributes
                0x0000000000000000       0x20 src/game/interactables_1/incline_ramp.o
 .data          0x0000000000000000        0x0 src/game/interactables_1/spring_bouncy.o
 .bss           0x0000000000000000        0x0 src/game/interactables_1/spring_bouncy.o
 .ARM.attributes
                0x0000000000000000       0x20 src/game/interactables_1/spring_bouncy.o
 .data          0x0000000000000000        0x0 src/game/interactables_1/platform_crumbling.o
 .bss           0x0000000000000000        0x0 src/game/interactables_1/platform_crumbling.o
 .ARM.attributes
                0x0000000000000000       0x20 src/game/interactables_1/platform_crumbling.o
 .data          0x0000000000000000        0x0 src/game/interactables_1/toggle_player_layer.o
 .bss           0x0000000000000000        0x0 src/game/interactables_1/toggle_player_layer.o
 .ARM.attributes
                0x0000000000000000       0x20 src/game/interactables_1/toggle_player_layer.o
 .data          0x0000000000000000        0x0 src/game/interactables_1/rotating_handle.o
 .bss           0x0000000000000000        0x0 src/game/interactables_1/rotating_handle.o
 .ARM.attributes
                0x0000000000000000       0x20 src/game/interactables_1/rotating_handle.o
 .data          0x0000000000000000        0x0 src/game/interactables_1/gapped_loop.o
 .bss           0x0000000000000000        0x0 src/game/interactables_1/gapped_loop.o
 .ARM.attributes
                0x0000000000000000       0x20 src/game/interactables_1/gapped_loop.o
 .data          0x0000000000000000        0x0 src/game/interactables_1/spikes.o
 .bss           0x0000000000000000        0x0 src/game/interactables_1/spikes.o
 .ARM.attributes
                0x0000000000000000       0x20 src/game/interactables_1/spikes.o
 .data          0x0000000000000000        0x0 src/game/interactables_1/corkscrew.o
 .bss           0x0000000000000000        0x0 src/game/interactables_1/corkscrew.o
 .ARM.attributes
                0x0000000000000000       0x20 src/game/interactables_1/corkscrew.o
 .data          0x0000000000000000        0x0 src/game/interactables_1/bouncy_bar.o
 .bss           0x0000000000000000        0x0 src/game/interactables_1/bouncy_bar.o
 .ARM.attributes
                0x0000000000000000       0x20 src/game/interactables_1/bouncy_bar.o
 .data          0x0000000000000000        0x0 src/game/interactables_1/corkscrew_3d.o
 .bss           0x0000000000000000        0x0 src/game/interactables_1/corkscrew_3d.o
 .ARM.attributes
                0x0000000000000000       0x20 src/game/interactables_1/corkscrew_3d.o
 .data          0x0000000000000000        0x0 src/game/interactables_1/stage_goal.o
 .bss           0x0000000000000000        0x0 src/game/interactables_1/stage_goal.o
 .ARM.attributes
                0x0000000000000000       0x20 src/game/interactables_1/stage_goal.o
 .data          0x0000000000000000        0x0 src/game/interactables_1/checkpoint.o
 .bss           0x0000000000000000        0x0 src/game/interactables_1/checkpoint.o
 .ARM.attributes
                0x0000000000000000       0x20 src/game/interactables_1/checkpoint.o
 .data          0x0000000000000000        0x0 src/game/interactables_1/windmill.o
 .bss           0x0000000000000000        0x0 src/game/interactables_1/windmill.o
 .ARM.attributes
                0x0000000000000000       0x20 src/game/interactables_1/windmill.o
 .data          0x0000000000000000        0x0 src/game/special_stage/main.o
 .bss           0x0000000000000000        0x0 src/game/special_stage/main.o
 .ARM.attributes
                0x0000000000000000       0x20 src/game/special_stage/main.o
 .data          0x0000000000000000        0x0 src/game/special_stage/player.o
 .bss           0x0000000000000000        0x0 src/game/special_stage/player.o
 .ARM.attributes
                0x0000000000000000       0x20 src/game/special_stage/player.o
 .data          0x0000000000000000        0x0 src/game/special_stage/collectables.o
 .bss           0x0000000000000000        0x0 src/game/special_stage/collectables.o
 .ARM.attributes
                0x0000000000000000       0x20 src/game/special_stage/collectables.o
 .data          0x0000000000000000        0x0 src/game/special_stage/world.o
 .bss           0x0000000000000000        0x0 src/game/special_stage/world.o
 .ARM.attributes
                0x0000000000000000       0x20 src/game/special_stage/world.o
 .data          0x0000000000000000        0x0 src/game/special_stage/physics.o
 .bss           0x0000000000000000        0x0 src/game/special_stage/physics.o
 .ARM.attributes
                0x0000000000000000       0x20 src/game/special_stage/physics.o
 .data          0x0000000000000000        0x0 src/game/special_stage/ui.o
 .bss           0x0000000000000000        0x0 src/game/special_stage/ui.o
 .ARM.attributes
                0x0000000000000000       0x20 src/game/special_stage/ui.o
 .data          0x0000000000000000        0x0 src/game/special_stage/guard_robo.o
 .bss           0x0000000000000000        0x0 src/game/special_stage/guard_robo.o
 .ARM.attributes
                0x0000000000000000       0x20 src/game/special_stage/guard_robo.o
 .data          0x0000000000000000        0x0 src/game/interactables_2/hot_crater/windup_stick.o
 .bss           0x0000000000000000        0x0 src/game/interactables_2/hot_crater/windup_stick.o
 .ARM.attributes
                0x0000000000000000       0x20 src/game/interactables_2/hot_crater/windup_stick.o
 .data          0x0000000000000000        0x0 src/game/interactables_2/hot_crater/hook_rail.o
 .bss           0x0000000000000000        0x0 src/game/interactables_2/hot_crater/hook_rail.o
 .ARM.attributes
                0x0000000000000000       0x20 src/game/interactables_2/hot_crater/hook_rail.o
 .data          0x0000000000000000        0x0 src/game/interactables_2/hot_crater/turnaround_bar.o
 .bss           0x0000000000000000        0x0 src/game/interactables_2/hot_crater/turnaround_bar.o
 .ARM.attributes
                0x0000000000000000       0x20 src/game/interactables_2/hot_crater/turnaround_bar.o
 .data          0x0000000000000000        0x0 src/game/interactables_2/hot_crater/crane.o
 .bss           0x0000000000000000        0x0 src/game/interactables_2/hot_crater/crane.o
 .ARM.attributes
                0x0000000000000000       0x20 src/game/interactables_2/hot_crater/crane.o
 .data          0x0000000000000000        0x0 src/game/interactables_2/hot_crater/dash_ring.o
 .bss           0x0000000000000000        0x0 src/game/interactables_2/hot_crater/dash_ring.o
 .ARM.attributes
                0x0000000000000000       0x20 src/game/interactables_2/hot_crater/dash_ring.o
 .data          0x0000000000000000        0x0 src/game/interactables_2/hot_crater/floating_spring.o
 .bss           0x0000000000000000        0x0 src/game/interactables_2/hot_crater/floating_spring.o
 .ARM.attributes
                0x0000000000000000       0x20 src/game/interactables_2/hot_crater/floating_spring.o
 .data          0x0000000000000000        0x0 src/game/interactables_2/music_plant/note_sphere.o
 .bss           0x0000000000000000        0x0 src/game/interactables_2/music_plant/note_sphere.o
 .ARM.attributes
                0x0000000000000000       0x20 src/game/interactables_2/music_plant/note_sphere.o
 .data          0x0000000000000000        0x0 src/game/interactables_2/music_plant/note_block.o
 .bss           0x0000000000000000        0x0 src/game/interactables_2/music_plant/note_block.o
 .ARM.attributes
                0x0000000000000000       0x20 src/game/interactables_2/music_plant/note_block.o
 .data          0x0000000000000000        0x0 src/game/interactables_2/music_plant/bouncy_chain.o
 .bss           0x0000000000000000        0x0 src/game/interactables_2/music_plant/bouncy_chain.o
 .ARM.attributes
                0x0000000000000000       0x20 src/game/interactables_2/music_plant/bouncy_chain.o
 .data          0x0000000000000000        0x0 src/game/interactables_2/music_plant/keyboard.o
 .bss           0x0000000000000000        0x0 src/game/interactables_2/music_plant/keyboard.o
 .ARM.attributes
                0x0000000000000000       0x20 src/game/interactables_2/music_plant/keyboard.o
 .data          0x0000000000000000        0x0 src/game/interactables_2/music_plant/german_flute.o
 .bss           0x0000000000000000        0x0 src/game/interactables_2/music_plant/german_flute.o
 .ARM.attributes
                0x0000000000000000       0x20 src/game/interactables_2/music_plant/german_flute.o
 .data          0x0000000000000000        0x0 src/game/interactables_2/music_plant/pipe_horn.o
 .bss           0x0000000000000000        0x0 src/game/interactables_2/music_plant/pipe_horn.o
 .ARM.attributes
                0x0000000000000000       0x20 src/game/interactables_2/music_plant/pipe_horn.o
 .data          0x0000000000000000        0x0 src/game/interactables_2/ice_paradise/slowing_snow.o
 .bss           0x0000000000000000        0x0 src/game/interactables_2/ice_paradise/slowing_snow.o
 .ARM.attributes
                0x0000000000000000       0x20 src/game/interactables_2/ice_paradise/slowing_snow.o
 .data          0x0000000000000000        0x0 src/game/interactables_2/ice_paradise/funnel_sphere.o
 .bss           0x0000000000000000        0x0 src/game/interactables_2/ice_paradise/funnel_sphere.o
 .ARM.attributes
                0x0000000000000000       0x20 src/game/interactables_2/ice_paradise/funnel_sphere.o
 .data          0x0000000000000000        0x0 src/game/interactables_2/ice_paradise/half_pipe.o
 .bss           0x0000000000000000        0x0 src/game/interactables_2/ice_paradise/half_pipe.o
 .ARM.attributes
                0x0000000000000000       0x20 src/game/interactables_2/ice_paradise/half_pipe.o
 .data          0x0000000000000000        0x0 src/game/interactables_2/ice_paradise/big_snowball.o
 .bss           0x0000000000000000        0x0 src/game/interactables_2/ice_paradise/big_snowball.o
 .ARM.attributes
                0x0000000000000000       0x20 src/game/interactables_2/ice_paradise/big_snowball.o
 .data          0x0000000000000000        0x0 src/game/interactables_2/techno_base/bounce_block.o
 .bss           0x0000000000000000        0x0 src/game/interactables_2/techno_base/bounce_block.o
 .ARM.attributes
                0x0000000000000000       0x20 src/game/interactables_2/techno_base/bounce_block.o
 .data          0x0000000000000000        0x0 src/game/interactables_2/techno_base/light_bridge.o
 .bss           0x0000000000000000        0x0 src/game/interactables_2/techno_base/light_bridge.o
 .ARM.attributes
                0x0000000000000000       0x20 src/game/interactables_2/techno_base/light_bridge.o
 .data          0x0000000000000000        0x0 src/game/interactables_2/techno_base/arrow_platform.o
 .bss           0x0000000000000000        0x0 src/game/interactables_2/techno_base/arrow_platform.o
 .ARM.attributes
                0x0000000000000000       0x20 src/game/interactables_2/techno_base/arrow_platform.o
 .data          0x0000000000000000        0x0 src/game/interactables_2/techno_base/spike_platform.o
 .bss           0x0000000000000000        0x0 src/game/interactables_2/techno_base/spike_platform.o
 .ARM.attributes
                0x0000000000000000       0x20 src/game/interactables_2/techno_base/spike_platform.o
 .data          0x0000000000000000        0x0 src/game/interactables_2/techno_base/light_globe.o
 .bss           0x0000000000000000        0x0 src/game/interactables_2/techno_base/light_globe.o
 .ARM.attributes
                0x0000000000000000       0x20 src/game/interactables_2/techno_base/light_globe.o
 .data          0x0000000000000000        0x0 src/game/interactables_2/sky_canyon/propeller.o
 .bss           0x0000000000000000        0x0 src/game/interactables_2/sky_canyon/propeller.o
 .ARM.attributes
                0x0000000000000000       0x20 src/game/interactables_2/sky_canyon/propeller.o
 .data          0x0000000000000000        0x0 src/game/interactables_2/sky_canyon/small_windmill.o
 .bss           0x0000000000000000        0x0 src/game/interactables_2/sky_canyon/small_windmill.o
 .ARM.attributes
                0x0000000000000000       0x20 src/game/interactables_2/sky_canyon/small_windmill.o
 .data          0x0000000000000000        0x0 src/game/interactables_2/sky_canyon/propeller_spring.o
 .bss           0x0000000000000000        0x0 src/game/interactables_2/sky_canyon/propeller_spring.o
 .ARM.attributes
                0x0000000000000000       0x20 src/game/interactables_2/sky_canyon/propeller_spring.o
 .data          0x0000000000000000        0x0 src/game/interactables_2/sky_canyon/whirlwind.o
 .bss           0x0000000000000000        0x0 src/game/interactables_2/sky_canyon/whirlwind.o
 .ARM.attributes
                0x0000000000000000       0x20 src/game/interactables_2/sky_canyon/whirlwind.o
 .data          0x0000000000000000        0x0 src/game/interactables_2/sky_canyon/fan.o
 .bss           0x0000000000000000        0x0 src/game/interactables_2/sky_canyon/fan.o
 .ARM.attributes
                0x0000000000000000       0x20 src/game/interactables_2/sky_canyon/fan.o
 .data          0x0000000000000000        0x0 src/game/interactables_2/egg_utopia/launcher.o
 .bss           0x0000000000000000        0x0 src/game/interactables_2/egg_utopia/launcher.o
 .ARM.attributes
                0x0000000000000000       0x20 src/game/interactables_2/egg_utopia/launcher.o
 .data          0x0000000000000000        0x0 src/game/interactables_2/egg_utopia/cannon.o
 .bss           0x0000000000000000        0x0 src/game/interactables_2/egg_utopia/cannon.o
 .ARM.attributes
                0x0000000000000000       0x20 src/game/interactables_2/egg_utopia/cannon.o
 .data          0x0000000000000000        0x0 src/game/interactables_2/egg_utopia/pole.o
 .bss           0x0000000000000000        0x0 src/game/interactables_2/egg_utopia/pole.o
 .ARM.attributes
                0x0000000000000000       0x20 src/game/interactables_2/egg_utopia/pole.o
 .data          0x0000000000000000        0x0 src/game/interactables_2/egg_utopia/iron_ball.o
 .bss           0x0000000000000000        0x0 src/game/interactables_2/egg_utopia/iron_ball.o
 .ARM.attributes
                0x0000000000000000       0x20 src/game/interactables_2/egg_utopia/iron_ball.o
 .data          0x0000000000000000        0x0 src/game/interactables_2/egg_utopia/flying_handle.o
 .bss           0x0000000000000000        0x0 src/game/interactables_2/egg_utopia/flying_handle.o
 .ARM.attributes
                0x0000000000000000       0x20 src/game/interactables_2/egg_utopia/flying_handle.o
 .data          0x0000000000000000        0x0 src/game/interactables_2/egg_utopia/speeding_platform.o
 .bss           0x0000000000000000        0x0 src/game/interactables_2/egg_utopia/speeding_platform.o
 .ARM.attributes
                0x0000000000000000       0x20 src/game/interactables_2/egg_utopia/speeding_platform.o
 .data          0x0000000000000000        0x0 src/game/interactables_2/egg_utopia/gravity_toggle.o
 .bss           0x0000000000000000        0x0 src/game/interactables_2/egg_utopia/gravity_toggle.o
 .ARM.attributes
                0x0000000000000000       0x20 src/game/interactables_2/egg_utopia/gravity_toggle.o
 .data          0x0000000000000000        0x0 src/game/interactables_2/notification_ring_bonus.o
 .bss           0x0000000000000000        0x0 src/game/interactables_2/notification_ring_bonus.o
 .ARM.attributes
                0x0000000000000000       0x20 src/game/interactables_2/notification_ring_bonus.o
 .data          0x0000000000000000        0x0 src/game/interactables_2/sky_canyon_init.o
 .bss           0x0000000000000000        0x0 src/game/interactables_2/sky_canyon_init.o
 .ARM.attributes
                0x0000000000000000       0x20 src/game/interactables_2/sky_canyon_init.o
 .data          0x0000000000000000        0x0 src/game/interactables_2/105.o
 .bss           0x0000000000000000        0x0 src/game/interactables_2/105.o
 .ARM.attributes
                0x0000000000000000       0x20 src/game/interactables_2/105.o
 .data          0x0000000000000000        0x0 src/game/interactables_2/note_particle.o
 .bss           0x0000000000000000        0x0 src/game/interactables_2/note_particle.o
 .ARM.attributes
                0x0000000000000000       0x20 src/game/interactables_2/note_particle.o
 .data          0x0000000000000000        0x0 src/game/interactables_2/special_ring.o
 .bss           0x0000000000000000        0x0 src/game/interactables_2/special_ring.o
 .ARM.attributes
                0x0000000000000000       0x20 src/game/interactables_2/special_ring.o
 .data          0x0000000000000000        0x0 src/game/multiboot/connection.o
 .bss           0x0000000000000000        0x0 src/game/multiboot/connection.o
 .ARM.attributes
                0x0000000000000000       0x20 src/game/multiboot/connection.o
 .data          0x0000000000000000        0x0 src/game/multiboot/collect_rings/results.o
 .bss           0x0000000000000000        0x0 src/game/multiboot/collect_rings/results.o
 .ARM.attributes
                0x0000000000000000       0x20 src/game/multiboot/collect_rings/results.o
 .data          0x0000000000000000        0x0 src/game/mystery_item_box.o
 .bss           0x0000000000000000        0x0 src/game/mystery_item_box.o
 .ARM.attributes
                0x0000000000000000       0x20 src/game/mystery_item_box.o
 .data          0x0000000000000000        0x0 src/game/heart_particles_effect.o
 .bss           0x0000000000000000        0x0 src/game/heart_particles_effect.o
 .ARM.attributes
                0x0000000000000000       0x20 src/game/heart_particles_effect.o
 .data          0x0000000000000000        0x0 src/game/race_progress.o
 .bss           0x0000000000000000        0x0 src/game/race_progress.o
 .ARM.attributes
                0x0000000000000000       0x20 src/game/race_progress.o
 .data          0x0000000000000000        0x0 src/game/multiplayer_lobby.o
 .bss           0x0000000000000000        0x0 src/game/multiplayer_lobby.o
 .ARM.attributes
                0x0000000000000000       0x20 src/game/multiplayer_lobby.o
 .data          0x0000000000000000        0x0 src/game/time_attack/mode_select.o
 .bss           0x0000000000000000        0x0 src/game/time_attack/mode_select.o
 .ARM.attributes
                0x0000000000000000       0x20 src/game/time_attack/mode_select.o
 .data          0x0000000000000000        0x0 src/game/time_attack/lobby.o
 .bss           0x0000000000000000        0x0 src/game/time_attack/lobby.o
 .ARM.attributes
                0x0000000000000000       0x20 src/game/time_attack/lobby.o
 .data          0x0000000000000000        0x0 src/game/time_attack/results.o
 .bss           0x0000000000000000        0x0 src/game/time_attack/results.o
 .ARM.attributes
                0x0000000000000000       0x20 src/game/time_attack/results.o
 .data          0x0000000000000000        0x0 src/game/boost_mode_particles.o
 .bss           0x0000000000000000        0x0 src/game/boost_mode_particles.o
 .ARM.attributes
                0x0000000000000000       0x20 src/game/boost_mode_particles.o
 .data          0x0000000000000000        0x0 src/game/sound_test.o
 .bss           0x0000000000000000        0x0 src/game/sound_test.o
 .ARM.attributes
                0x0000000000000000       0x20 src/game/sound_test.o
 .data          0x0000000000000000        0x0 src/game/title_screen.o
 .bss           0x0000000000000000        0x0 src/game/title_screen.o
 .ARM.attributes
                0x0000000000000000       0x20 src/game/title_screen.o
 .data          0x0000000000000000        0x0 src/game/cutscenes/level_endings.o
 .bss           0x0000000000000000        0x0 src/game/cutscenes/level_endings.o
 .ARM.attributes
                0x0000000000000000       0x20 src/game/cutscenes/level_endings.o
 .data          0x0000000000000000        0x0 src/game/cutscenes/endings.o
 .bss           0x0000000000000000        0x0 src/game/cutscenes/endings.o
 .ARM.attributes
                0x0000000000000000       0x20 src/game/cutscenes/endings.o
 .data          0x0000000000000000        0x0 src/game/cutscenes/credits.o
 .bss           0x0000000000000000        0x0 src/game/cutscenes/credits.o
 .ARM.attributes
                0x0000000000000000       0x20 src/game/cutscenes/credits.o
 .data          0x0000000000000000        0x0 src/game/cutscenes/credits_slides.o
 .bss           0x0000000000000000        0x0 src/game/cutscenes/credits_slides.o
 .ARM.attributes
                0x0000000000000000       0x20 src/game/cutscenes/credits_slides.o
 .data          0x0000000000000000        0x0 src/game/cutscenes/credits_end.o
 .bss           0x0000000000000000        0x0 src/game/cutscenes/credits_end.o
 .ARM.attributes
                0x0000000000000000       0x20 src/game/cutscenes/credits_end.o
 .data          0x0000000000000000        0x0 src/game/cutscenes/extra_ending_fall.o
 .bss           0x0000000000000000        0x0 src/game/cutscenes/extra_ending_fall.o
 .ARM.attributes
                0x0000000000000000       0x20 src/game/cutscenes/extra_ending_fall.o
 .data          0x0000000000000000        0x0 src/game/cutscenes/extra_ending_slides.o
 .bss           0x0000000000000000        0x0 src/game/cutscenes/extra_ending_slides.o
 .ARM.attributes
                0x0000000000000000       0x20 src/game/cutscenes/extra_ending_slides.o
 .data          0x0000000000000000        0x0 src/game/cutscenes/final_ending_fall.o
 .bss           0x0000000000000000        0x0 src/game/cutscenes/final_ending_fall.o
 .ARM.attributes
                0x0000000000000000       0x20 src/game/cutscenes/final_ending_fall.o
 .data          0x0000000000000000        0x0 src/game/cutscenes/final_ending_land.o
 .bss           0x0000000000000000        0x0 src/game/cutscenes/final_ending_land.o
 .ARM.attributes
                0x0000000000000000       0x20 src/game/cutscenes/final_ending_land.o
 .data          0x0000000000000000        0x0 src/game/cutscenes/missing_emeralds.o
 .bss           0x0000000000000000        0x0 src/game/cutscenes/missing_emeralds.o
 .ARM.attributes
                0x0000000000000000       0x20 src/game/cutscenes/missing_emeralds.o
 .data          0x0000000000000000        0x0 src/lib/m4a/m4a0.o
 .bss           0x0000000000000000       0x40 src/lib/m4a/m4a0.o
 .ARM.attributes
                0x0000000000000000       0x20 src/lib/m4a/m4a0.o
 .data          0x0000000000000000        0x0 src/lib/agb_flash/agb_flash_512k.o
 .bss           0x0000000000000000        0x0 src/lib/agb_flash/agb_flash_512k.o
 .ARM.attributes
                0x0000000000000000       0x20 src/lib/agb_flash/agb_flash_512k.o
 .data          0x0000000000000000        0x0 src/lib/agb_flash/agb_flash_le_512k.o
 .bss           0x0000000000000000        0x0 src/lib/agb_flash/agb_flash_le_512k.o
 .ARM.attributes
                0x0000000000000000       0x20 src/lib/agb_flash/agb_flash_le_512k.o
 .data          0x0000000000000000        0x0 src/lib/agb_flash/agb_flash_mx_512k.o
 .bss           0x0000000000000000        0x0 src/lib/agb_flash/agb_flash_mx_512k.o
 .ARM.attributes
                0x0000000000000000       0x20 src/lib/agb_flash/agb_flash_mx_512k.o
 .text          0x0000000000000000        0x0 src/trig.o
 .data          0x0000000000000000        0x0 src/trig.o
 .bss           0x0000000000000000        0x0 src/trig.o
 .ARM.attributes
                0x0000000000000000       0x20 src/trig.o
 .text          0x0000000000000000        0x0 src/game/assets/compressed/entities.o
 .data          0x0000000000000000        0x0 src/game/assets/compressed/entities.o
 .bss           0x0000000000000000        0x0 src/game/assets/compressed/entities.o
 .ARM.attributes
                0x0000000000000000       0x20 src/game/assets/compressed/entities.o
 .text          0x0000000000000000        0x0 src/game/assets/compressed/roms.o
 .data          0x0000000000000000        0x0 src/game/assets/compressed/roms.o
 .bss           0x0000000000000000        0x0 src/game/assets/compressed/roms.o
 .ARM.attributes
                0x0000000000000000       0x20 src/game/assets/compressed/roms.o
 .text          0x0000000000000000        0x0 src/game/stage/tilemap_table.o
 .data          0x0000000000000000        0x0 src/game/stage/tilemap_table.o
 .bss           0x0000000000000000        0x0 src/game/stage/tilemap_table.o
 .ARM.attributes
                0x0000000000000000       0x20 src/game/stage/tilemap_table.o
 .text          0x0000000000000000        0x0 src/game/stage/spawn_positions.o
 .data          0x0000000000000000        0x0 src/game/stage/spawn_positions.o
 .bss           0x0000000000000000        0x0 src/game/stage/spawn_positions.o
 .ARM.attributes
                0x0000000000000000       0x20 src/game/stage/spawn_positions.o
 .text          0x0000000000000000        0x0 src/game/special_stage/data.o
 .data          0x0000000000000000        0x0 src/game/special_stage/data.o
 .bss           0x0000000000000000        0x0 src/game/special_stage/data.o
 .ARM.attributes
                0x0000000000000000       0x20 src/game/special_stage/data.o
 .text          0x0000000000000000        0x0 src/game/special_stage/tables.o
 .data          0x0000000000000000        0x0 src/game/special_stage/tables.o
 .bss           0x0000000000000000        0x0 src/game/special_stage/tables.o
 .ARM.attributes
                0x0000000000000000       0x20 src/game/special_stage/tables.o
 .text          0x0000000000000000        0x0 src/data/tilemap_data_old_logos.o
 .data          0x0000000000000000        0x0 src/data/tilemap_data_old_logos.o
 .bss           0x0000000000000000        0x0 src/data/tilemap_data_old_logos.o
 .ARM.attributes
                0x0000000000000000       0x20 src/data/tilemap_data_old_logos.o
 .text          0x0000000000000000        0x0 src/data/sprite_tables.o
 .data          0x0000000000000000        0x0 src/data/sprite_tables.o
 .bss           0x0000000000000000        0x0 src/data/sprite_tables.o
 .ARM.attributes
                0x0000000000000000       0x20 src/data/sprite_tables.o
 .text          0x0000000000000000        0x0 src/data/animations/animations.o
 .data          0x0000000000000000        0x0 src/data/animations/animations.o
 .bss           0x0000000000000000        0x0 src/data/animations/animations.o
 .ARM.attributes
                0x0000000000000000       0x20 src/data/animations/animations.o
 .text          0x0000000000000000        0x0 src/data/animations/animation_table.o
 .bss           0x0000000000000000        0x0 src/data/animations/animation_table.o
 .ARM.attributes
                0x0000000000000000       0x20 src/data/animations/animation_table.o
 .text          0x0000000000000000        0x0 src/data/sprite_dimensions.o
 .data          0x0000000000000000        0x0 src/data/sprite_dimensions.o
 .bss           0x0000000000000000        0x0 src/data/sprite_dimensions.o
 .ARM.attributes
                0x0000000000000000       0x20 src/data/sprite_dimensions.o
 .text          0x0000000000000000        0x0 src/data/sprite_oam_data.o
 .data          0x0000000000000000        0x0 src/data/sprite_oam_data.o
 .bss           0x0000000000000000        0x0 src/data/sprite_oam_data.o
 .ARM.attributes
                0x0000000000000000       0x20 src/data/sprite_oam_data.o
 .text          0x0000000000000000        0x0 data/sprite_animation_data.o
 .data          0x0000000000000000        0x0 data/sprite_animation_data.o
 .bss           0x0000000000000000        0x0 data/sprite_animation_data.o
 .ARM.attributes
                0x0000000000000000       0x20 data/sprite_animation_data.o
 .text          0x0000000000000000        0x0 src/data/tileset_debug_ascii.o
 .data          0x0000000000000000        0x0 src/data/tileset_debug_ascii.o
 .bss           0x0000000000000000        0x0 src/data/tileset_debug_ascii.o
 .ARM.attributes
                0x0000000000000000       0x20 src/data/tileset_debug_ascii.o
 .text          0x0000000000000000        0x0 src/data/tilemap_data.o
 .data          0x0000000000000000        0x0 src/data/tilemap_data.o
 .bss           0x0000000000000000        0x0 src/data/tilemap_data.o
 .ARM.attributes
                0x0000000000000000       0x20 src/data/tilemap_data.o
 .text          0x0000000000000000        0x0 src/lib/m4a/m4a_tables.o
 .data          0x0000000000000000        0x0 src/lib/m4a/m4a_tables.o
 .bss           0x0000000000000000        0x0 src/lib/m4a/m4a_tables.o
 .ARM.attributes
                0x0000000000000000       0x20 src/lib/m4a/m4a_tables.o
 .text          0x0000000000000000        0x0 sound/songs/midi/mus_intro.o
 .data          0x0000000000000000        0x0 sound/songs/midi/mus_intro.o
 .bss           0x0000000000000000        0x0 sound/songs/midi/mus_intro.o
 .ARM.attributes
                0x0000000000000000       0x20 sound/songs/midi/mus_intro.o
 .text          0x0000000000000000        0x0 sound/songs/midi/mus_title_fanfare.o
 .data          0x0000000000000000        0x0 sound/songs/midi/mus_title_fanfare.o
 .bss           0x0000000000000000        0x0 sound/songs/midi/mus_title_fanfare.o
 .ARM.attributes
                0x0000000000000000       0x20 sound/songs/midi/mus_title_fanfare.o
 .text          0x0000000000000000        0x0 sound/songs/midi/mus_character_selection.o
 .data          0x0000000000000000        0x0 sound/songs/midi/mus_character_selection.o
 .bss           0x0000000000000000        0x0 sound/songs/midi/mus_character_selection.o
 .ARM.attributes
                0x0000000000000000       0x20 sound/songs/midi/mus_character_selection.o
 .text          0x0000000000000000        0x0 sound/songs/midi/mus_ta_course_selection.o
 .data          0x0000000000000000        0x0 sound/songs/midi/mus_ta_course_selection.o
 .bss           0x0000000000000000        0x0 sound/songs/midi/mus_ta_course_selection.o
 .ARM.attributes
                0x0000000000000000       0x20 sound/songs/midi/mus_ta_course_selection.o
 .text          0x0000000000000000        0x0 sound/songs/midi/mus_course_selection_2.o
 .data          0x0000000000000000        0x0 sound/songs/midi/mus_course_selection_2.o
 .bss           0x0000000000000000        0x0 sound/songs/midi/mus_course_selection_2.o
 .ARM.attributes
                0x0000000000000000       0x20 sound/songs/midi/mus_course_selection_2.o
 .text          0x0000000000000000        0x0 sound/songs/midi/mus_course_selection_3.o
 .data          0x0000000000000000        0x0 sound/songs/midi/mus_course_selection_3.o
 .bss           0x0000000000000000        0x0 sound/songs/midi/mus_course_selection_3.o
 .ARM.attributes
                0x0000000000000000       0x20 sound/songs/midi/mus_course_selection_3.o
 .text          0x0000000000000000        0x0 sound/songs/midi/mus_time_attack_menu.o
 .data          0x0000000000000000        0x0 sound/songs/midi/mus_time_attack_menu.o
 .bss           0x0000000000000000        0x0 sound/songs/midi/mus_time_attack_menu.o
 .ARM.attributes
                0x0000000000000000       0x20 sound/songs/midi/mus_time_attack_menu.o
 .text          0x0000000000000000        0x0 sound/songs/midi/mus_options.o
 .data          0x0000000000000000        0x0 sound/songs/midi/mus_options.o
 .bss           0x0000000000000000        0x0 sound/songs/midi/mus_options.o
 .ARM.attributes
                0x0000000000000000       0x20 sound/songs/midi/mus_options.o
 .text          0x0000000000000000        0x0 sound/songs/midi/mus_leaf_forest__act_1.o
 .data          0x0000000000000000        0x0 sound/songs/midi/mus_leaf_forest__act_1.o
 .bss           0x0000000000000000        0x0 sound/songs/midi/mus_leaf_forest__act_1.o
 .ARM.attributes
                0x0000000000000000       0x20 sound/songs/midi/mus_leaf_forest__act_1.o
 .text          0x0000000000000000        0x0 sound/songs/midi/mus_leaf_forest__act_2.o
 .data          0x0000000000000000        0x0 sound/songs/midi/mus_leaf_forest__act_2.o
 .bss           0x0000000000000000        0x0 sound/songs/midi/mus_leaf_forest__act_2.o
 .ARM.attributes
                0x0000000000000000       0x20 sound/songs/midi/mus_leaf_forest__act_2.o
 .text          0x0000000000000000        0x0 sound/songs/midi/mus_hot_crater__act_1.o
 .data          0x0000000000000000        0x0 sound/songs/midi/mus_hot_crater__act_1.o
 .bss           0x0000000000000000        0x0 sound/songs/midi/mus_hot_crater__act_1.o
 .ARM.attributes
                0x0000000000000000       0x20 sound/songs/midi/mus_hot_crater__act_1.o
 .text          0x0000000000000000        0x0 sound/songs/midi/mus_hot_crater__act_2.o
 .data          0x0000000000000000        0x0 sound/songs/midi/mus_hot_crater__act_2.o
 .bss           0x0000000000000000        0x0 sound/songs/midi/mus_hot_crater__act_2.o
 .ARM.attributes
                0x0000000000000000       0x20 sound/songs/midi/mus_hot_crater__act_2.o
 .text          0x0000000000000000        0x0 sound/songs/midi/mus_music_plant__act_1.o
 .data          0x0000000000000000        0x0 sound/songs/midi/mus_music_plant__act_1.o
 .bss           0x0000000000000000        0x0 sound/songs/midi/mus_music_plant__act_1.o
 .ARM.attributes
                0x0000000000000000       0x20 sound/songs/midi/mus_music_plant__act_1.o
 .text          0x0000000000000000        0x0 sound/songs/midi/mus_music_plant__act_2.o
 .data          0x0000000000000000        0x0 sound/songs/midi/mus_music_plant__act_2.o
 .bss           0x0000000000000000        0x0 sound/songs/midi/mus_music_plant__act_2.o
 .ARM.attributes
                0x0000000000000000       0x20 sound/songs/midi/mus_music_plant__act_2.o
 .text          0x0000000000000000        0x0 sound/songs/midi/mus_ice_paradise__act_1.o
 .data          0x0000000000000000        0x0 sound/songs/midi/mus_ice_paradise__act_1.o
 .bss           0x0000000000000000        0x0 sound/songs/midi/mus_ice_paradise__act_1.o
 .ARM.attributes
                0x0000000000000000       0x20 sound/songs/midi/mus_ice_paradise__act_1.o
 .text          0x0000000000000000        0x0 sound/songs/midi/mus_ice_paradise__act_2.o
 .data          0x0000000000000000        0x0 sound/songs/midi/mus_ice_paradise__act_2.o
 .bss           0x0000000000000000        0x0 sound/songs/midi/mus_ice_paradise__act_2.o
 .ARM.attributes
                0x0000000000000000       0x20 sound/songs/midi/mus_ice_paradise__act_2.o
 .text          0x0000000000000000        0x0 sound/songs/midi/mus_sky_canyon__act_1.o
 .data          0x0000000000000000        0x0 sound/songs/midi/mus_sky_canyon__act_1.o
 .bss           0x0000000000000000        0x0 sound/songs/midi/mus_sky_canyon__act_1.o
 .ARM.attributes
                0x0000000000000000       0x20 sound/songs/midi/mus_sky_canyon__act_1.o
 .text          0x0000000000000000        0x0 sound/songs/midi/mus_sky_canyon__act_2.o
 .data          0x0000000000000000        0x0 sound/songs/midi/mus_sky_canyon__act_2.o
 .bss           0x0000000000000000        0x0 sound/songs/midi/mus_sky_canyon__act_2.o
 .ARM.attributes
                0x0000000000000000       0x20 sound/songs/midi/mus_sky_canyon__act_2.o
 .text          0x0000000000000000        0x0 sound/songs/midi/mus_techno_base__act_1.o
 .data          0x0000000000000000        0x0 sound/songs/midi/mus_techno_base__act_1.o
 .bss           0x0000000000000000        0x0 sound/songs/midi/mus_techno_base__act_1.o
 .ARM.attributes
                0x0000000000000000       0x20 sound/songs/midi/mus_techno_base__act_1.o
 .text          0x0000000000000000        0x0 sound/songs/midi/mus_techno_base__act_2.o
 .data          0x0000000000000000        0x0 sound/songs/midi/mus_techno_base__act_2.o
 .bss           0x0000000000000000        0x0 sound/songs/midi/mus_techno_base__act_2.o
 .ARM.attributes
                0x0000000000000000       0x20 sound/songs/midi/mus_techno_base__act_2.o
 .text          0x0000000000000000        0x0 sound/songs/midi/mus_egg_utopia__act_1.o
 .data          0x0000000000000000        0x0 sound/songs/midi/mus_egg_utopia__act_1.o
 .bss           0x0000000000000000        0x0 sound/songs/midi/mus_egg_utopia__act_1.o
 .ARM.attributes
                0x0000000000000000       0x20 sound/songs/midi/mus_egg_utopia__act_1.o
 .text          0x0000000000000000        0x0 sound/songs/midi/mus_egg_utopia__act_2.o
 .data          0x0000000000000000        0x0 sound/songs/midi/mus_egg_utopia__act_2.o
 .bss           0x0000000000000000        0x0 sound/songs/midi/mus_egg_utopia__act_2.o
 .ARM.attributes
                0x0000000000000000       0x20 sound/songs/midi/mus_egg_utopia__act_2.o
 .text          0x0000000000000000        0x0 sound/songs/midi/mus_xx__final_zone.o
 .data          0x0000000000000000        0x0 sound/songs/midi/mus_xx__final_zone.o
 .bss           0x0000000000000000        0x0 sound/songs/midi/mus_xx__final_zone.o
 .ARM.attributes
                0x0000000000000000       0x20 sound/songs/midi/mus_xx__final_zone.o
 .text          0x0000000000000000        0x0 sound/songs/midi/mus_true_area_53.o
 .data          0x0000000000000000        0x0 sound/songs/midi/mus_true_area_53.o
 .bss           0x0000000000000000        0x0 sound/songs/midi/mus_true_area_53.o
 .ARM.attributes
                0x0000000000000000       0x20 sound/songs/midi/mus_true_area_53.o
 .text          0x0000000000000000        0x0 sound/songs/midi/mus_invincibility.o
 .data          0x0000000000000000        0x0 sound/songs/midi/mus_invincibility.o
 .bss           0x0000000000000000        0x0 sound/songs/midi/mus_invincibility.o
 .ARM.attributes
                0x0000000000000000       0x20 sound/songs/midi/mus_invincibility.o
 .text          0x0000000000000000        0x0 sound/songs/midi/mus_drowning.o
 .data          0x0000000000000000        0x0 sound/songs/midi/mus_drowning.o
 .bss           0x0000000000000000        0x0 sound/songs/midi/mus_drowning.o
 .ARM.attributes
                0x0000000000000000       0x20 sound/songs/midi/mus_drowning.o
 .text          0x0000000000000000        0x0 sound/songs/midi/mus_boss.o
 .data          0x0000000000000000        0x0 sound/songs/midi/mus_boss.o
 .bss           0x0000000000000000        0x0 sound/songs/midi/mus_boss.o
 .ARM.attributes
                0x0000000000000000       0x20 sound/songs/midi/mus_boss.o
 .text          0x0000000000000000        0x0 sound/songs/midi/mus_boss_pinch.o
 .data          0x0000000000000000        0x0 sound/songs/midi/mus_boss_pinch.o
 .bss           0x0000000000000000        0x0 sound/songs/midi/mus_boss_pinch.o
 .ARM.attributes
                0x0000000000000000       0x20 sound/songs/midi/mus_boss_pinch.o
 .text          0x0000000000000000        0x0 sound/songs/midi/mus_boss_knuckles.o
 .data          0x0000000000000000        0x0 sound/songs/midi/mus_boss_knuckles.o
 .bss           0x0000000000000000        0x0 sound/songs/midi/mus_boss_knuckles.o
 .ARM.attributes
                0x0000000000000000       0x20 sound/songs/midi/mus_boss_knuckles.o
 .text          0x0000000000000000        0x0 sound/songs/midi/mus_7_boss.o
 .data          0x0000000000000000        0x0 sound/songs/midi/mus_7_boss.o
 .bss           0x0000000000000000        0x0 sound/songs/midi/mus_7_boss.o
 .ARM.attributes
                0x0000000000000000       0x20 sound/songs/midi/mus_7_boss.o
 .text          0x0000000000000000        0x0 sound/songs/midi/mus_7_boss_pinch.o
 .data          0x0000000000000000        0x0 sound/songs/midi/mus_7_boss_pinch.o
 .bss           0x0000000000000000        0x0 sound/songs/midi/mus_7_boss_pinch.o
 .ARM.attributes
                0x0000000000000000       0x20 sound/songs/midi/mus_7_boss_pinch.o
 .text          0x0000000000000000        0x0 sound/songs/midi/mus_final_boss.o
 .data          0x0000000000000000        0x0 sound/songs/midi/mus_final_boss.o
 .bss           0x0000000000000000        0x0 sound/songs/midi/mus_final_boss.o
 .ARM.attributes
                0x0000000000000000       0x20 sound/songs/midi/mus_final_boss.o
 .text          0x0000000000000000        0x0 sound/songs/midi/mus_final_boss_pinch.o
 .data          0x0000000000000000        0x0 sound/songs/midi/mus_final_boss_pinch.o
 .bss           0x0000000000000000        0x0 sound/songs/midi/mus_final_boss_pinch.o
 .ARM.attributes
                0x0000000000000000       0x20 sound/songs/midi/mus_final_boss_pinch.o
 .text          0x0000000000000000        0x0 sound/songs/midi/mus_game_over.o
 .data          0x0000000000000000        0x0 sound/songs/midi/mus_game_over.o
 .bss           0x0000000000000000        0x0 sound/songs/midi/mus_game_over.o
 .ARM.attributes
                0x0000000000000000       0x20 sound/songs/midi/mus_game_over.o
 .text          0x0000000000000000        0x0 sound/songs/midi/mus_final_ending.o
 .data          0x0000000000000000        0x0 sound/songs/midi/mus_final_ending.o
 .bss           0x0000000000000000        0x0 sound/songs/midi/mus_final_ending.o
 .ARM.attributes
                0x0000000000000000       0x20 sound/songs/midi/mus_final_ending.o
 .text          0x0000000000000000        0x0 sound/songs/midi/mus_extra_ending.o
 .data          0x0000000000000000        0x0 sound/songs/midi/mus_extra_ending.o
 .bss           0x0000000000000000        0x0 sound/songs/midi/mus_extra_ending.o
 .ARM.attributes
                0x0000000000000000       0x20 sound/songs/midi/mus_extra_ending.o
 .text          0x0000000000000000        0x0 sound/songs/midi/mus_staff_credits.o
 .data          0x0000000000000000        0x0 sound/songs/midi/mus_staff_credits.o
 .bss           0x0000000000000000        0x0 sound/songs/midi/mus_staff_credits.o
 .ARM.attributes
                0x0000000000000000       0x20 sound/songs/midi/mus_staff_credits.o
 .text          0x0000000000000000        0x0 sound/songs/midi/mus_demo_1.o
 .data          0x0000000000000000        0x0 sound/songs/midi/mus_demo_1.o
 .bss           0x0000000000000000        0x0 sound/songs/midi/mus_demo_1.o
 .ARM.attributes
                0x0000000000000000       0x20 sound/songs/midi/mus_demo_1.o
 .text          0x0000000000000000        0x0 sound/songs/midi/mus_demo_2.o
 .data          0x0000000000000000        0x0 sound/songs/midi/mus_demo_2.o
 .bss           0x0000000000000000        0x0 sound/songs/midi/mus_demo_2.o
 .ARM.attributes
                0x0000000000000000       0x20 sound/songs/midi/mus_demo_2.o
 .text          0x0000000000000000        0x0 sound/songs/midi/mus_extra_demo_1.o
 .data          0x0000000000000000        0x0 sound/songs/midi/mus_extra_demo_1.o
 .bss           0x0000000000000000        0x0 sound/songs/midi/mus_extra_demo_1.o
 .ARM.attributes
                0x0000000000000000       0x20 sound/songs/midi/mus_extra_demo_1.o
 .text          0x0000000000000000        0x0 sound/songs/midi/mus_extra_demo_2.o
 .data          0x0000000000000000        0x0 sound/songs/midi/mus_extra_demo_2.o
 .bss           0x0000000000000000        0x0 sound/songs/midi/mus_extra_demo_2.o
 .ARM.attributes
                0x0000000000000000       0x20 sound/songs/midi/mus_extra_demo_2.o
 .text          0x0000000000000000        0x0 sound/songs/midi/mus_special_stage_intro.o
 .data          0x0000000000000000        0x0 sound/songs/midi/mus_special_stage_intro.o
 .bss           0x0000000000000000        0x0 sound/songs/midi/mus_special_stage_intro.o
 .ARM.attributes
                0x0000000000000000       0x20 sound/songs/midi/mus_special_stage_intro.o
 .text          0x0000000000000000        0x0 sound/songs/midi/mus_special_stage.o
 .data          0x0000000000000000        0x0 sound/songs/midi/mus_special_stage.o
 .bss           0x0000000000000000        0x0 sound/songs/midi/mus_special_stage.o
 .ARM.attributes
                0x0000000000000000       0x20 sound/songs/midi/mus_special_stage.o
 .text          0x0000000000000000        0x0 sound/songs/midi/mus_special_stage_pinch.o
 .data          0x0000000000000000        0x0 sound/songs/midi/mus_special_stage_pinch.o
 .bss           0x0000000000000000        0x0 sound/songs/midi/mus_special_stage_pinch.o
 .ARM.attributes
                0x0000000000000000       0x20 sound/songs/midi/mus_special_stage_pinch.o
 .text          0x0000000000000000        0x0 sound/songs/midi/mus_achievement.o
 .data          0x0000000000000000        0x0 sound/songs/midi/mus_achievement.o
 .bss           0x0000000000000000        0x0 sound/songs/midi/mus_achievement.o
 .ARM.attributes
                0x0000000000000000       0x20 sound/songs/midi/mus_achievement.o
 .text          0x0000000000000000        0x0 sound/songs/midi/mus_special_stage_clear.o
 .data          0x0000000000000000        0x0 sound/songs/midi/mus_special_stage_clear.o
 .bss           0x0000000000000000        0x0 sound/songs/midi/mus_special_stage_clear.o
 .ARM.attributes
                0x0000000000000000       0x20 sound/songs/midi/mus_special_stage_clear.o
 .text          0x0000000000000000        0x0 sound/songs/midi/mus_special_stage_result.o
 .data          0x0000000000000000        0x0 sound/songs/midi/mus_special_stage_result.o
 .bss           0x0000000000000000        0x0 sound/songs/midi/mus_special_stage_result.o
 .ARM.attributes
                0x0000000000000000       0x20 sound/songs/midi/mus_special_stage_result.o
 .text          0x0000000000000000        0x0 sound/songs/midi/mus_chaos_emerald.o
 .data          0x0000000000000000        0x0 sound/songs/midi/mus_chaos_emerald.o
 .bss           0x0000000000000000        0x0 sound/songs/midi/mus_chaos_emerald.o
 .ARM.attributes
                0x0000000000000000       0x20 sound/songs/midi/mus_chaos_emerald.o
 .text          0x0000000000000000        0x0 sound/songs/midi/mus_special_stage_result_lose.o
 .data          0x0000000000000000        0x0 sound/songs/midi/mus_special_stage_result_lose.o
 .bss           0x0000000000000000        0x0 sound/songs/midi/mus_special_stage_result_lose.o
 .ARM.attributes
                0x0000000000000000       0x20 sound/songs/midi/mus_special_stage_result_lose.o
 .text          0x0000000000000000        0x0 sound/songs/midi/mus_vs_2.o
 .data          0x0000000000000000        0x0 sound/songs/midi/mus_vs_2.o
 .bss           0x0000000000000000        0x0 sound/songs/midi/mus_vs_2.o
 .ARM.attributes
                0x0000000000000000       0x20 sound/songs/midi/mus_vs_2.o
 .text          0x0000000000000000        0x0 sound/songs/midi/mus_vs_3.o
 .data          0x0000000000000000        0x0 sound/songs/midi/mus_vs_3.o
 .bss           0x0000000000000000        0x0 sound/songs/midi/mus_vs_3.o
 .ARM.attributes
                0x0000000000000000       0x20 sound/songs/midi/mus_vs_3.o
 .text          0x0000000000000000        0x0 sound/songs/midi/mus_connection_pending.o
 .data          0x0000000000000000        0x0 sound/songs/midi/mus_connection_pending.o
 .bss           0x0000000000000000        0x0 sound/songs/midi/mus_connection_pending.o
 .ARM.attributes
                0x0000000000000000       0x20 sound/songs/midi/mus_connection_pending.o
 .text          0x0000000000000000        0x0 sound/songs/midi/mus_vs_lobby.o
 .data          0x0000000000000000        0x0 sound/songs/midi/mus_vs_lobby.o
 .bss           0x0000000000000000        0x0 sound/songs/midi/mus_vs_lobby.o
 .ARM.attributes
                0x0000000000000000       0x20 sound/songs/midi/mus_vs_lobby.o
 .text          0x0000000000000000        0x0 sound/songs/midi/mus_vs_select_pak_mode.o
 .data          0x0000000000000000        0x0 sound/songs/midi/mus_vs_select_pak_mode.o
 .bss           0x0000000000000000        0x0 sound/songs/midi/mus_vs_select_pak_mode.o
 .ARM.attributes
                0x0000000000000000       0x20 sound/songs/midi/mus_vs_select_pak_mode.o
 .text          0x0000000000000000        0x0 sound/songs/midi/se_ring.o
 .data          0x0000000000000000        0x0 sound/songs/midi/se_ring.o
 .bss           0x0000000000000000        0x0 sound/songs/midi/se_ring.o
 .ARM.attributes
                0x0000000000000000       0x20 sound/songs/midi/se_ring.o
 .text          0x0000000000000000        0x0 sound/songs/midi/se_shift.o
 .data          0x0000000000000000        0x0 sound/songs/midi/se_shift.o
 .bss           0x0000000000000000        0x0 sound/songs/midi/se_shift.o
 .ARM.attributes
                0x0000000000000000       0x20 sound/songs/midi/se_shift.o
 .text          0x0000000000000000        0x0 sound/songs/midi/se_success.o
 .data          0x0000000000000000        0x0 sound/songs/midi/se_success.o
 .bss           0x0000000000000000        0x0 sound/songs/midi/se_success.o
 .ARM.attributes
                0x0000000000000000       0x20 sound/songs/midi/se_success.o
 .text          0x0000000000000000        0x0 sound/songs/midi/se_abort.o
 .data          0x0000000000000000        0x0 sound/songs/midi/se_abort.o
 .bss           0x0000000000000000        0x0 sound/songs/midi/se_abort.o
 .ARM.attributes
                0x0000000000000000       0x20 sound/songs/midi/se_abort.o
 .text          0x0000000000000000        0x0 sound/songs/midi/se_select.o
 .data          0x0000000000000000        0x0 sound/songs/midi/se_select.o
 .bss           0x0000000000000000        0x0 sound/songs/midi/se_select.o
 .ARM.attributes
                0x0000000000000000       0x20 sound/songs/midi/se_select.o
 .text          0x0000000000000000        0x0 sound/songs/midi/se_return.o
 .data          0x0000000000000000        0x0 sound/songs/midi/se_return.o
 .bss           0x0000000000000000        0x0 sound/songs/midi/se_return.o
 .ARM.attributes
                0x0000000000000000       0x20 sound/songs/midi/se_return.o
 .text          0x0000000000000000        0x0 sound/songs/midi/se_menu_cursor_move.o
 .data          0x0000000000000000        0x0 sound/songs/midi/se_menu_cursor_move.o
 .bss           0x0000000000000000        0x0 sound/songs/midi/se_menu_cursor_move.o
 .ARM.attributes
                0x0000000000000000       0x20 sound/songs/midi/se_menu_cursor_move.o
 .text          0x0000000000000000        0x0 sound/songs/midi/se_spin_attack.o
 .data          0x0000000000000000        0x0 sound/songs/midi/se_spin_attack.o
 .bss           0x0000000000000000        0x0 sound/songs/midi/se_spin_attack.o
 .ARM.attributes
                0x0000000000000000       0x20 sound/songs/midi/se_spin_attack.o
 .text          0x0000000000000000        0x0 sound/songs/midi/se_spin_dash_release.o
 .data          0x0000000000000000        0x0 sound/songs/midi/se_spin_dash_release.o
 .bss           0x0000000000000000        0x0 sound/songs/midi/se_spin_dash_release.o
 .ARM.attributes
                0x0000000000000000       0x20 sound/songs/midi/se_spin_dash_release.o
 .text          0x0000000000000000        0x0 sound/songs/midi/se_sonic_skid_attack.o
 .data          0x0000000000000000        0x0 sound/songs/midi/se_sonic_skid_attack.o
 .bss           0x0000000000000000        0x0 sound/songs/midi/se_sonic_skid_attack.o
 .ARM.attributes
                0x0000000000000000       0x20 sound/songs/midi/se_sonic_skid_attack.o
 .text          0x0000000000000000        0x0 sound/songs/midi/se_sonic_midair_somersault.o
 .data          0x0000000000000000        0x0 sound/songs/midi/se_sonic_midair_somersault.o
 .bss           0x0000000000000000        0x0 sound/songs/midi/se_sonic_midair_somersault.o
 .ARM.attributes
                0x0000000000000000       0x20 sound/songs/midi/se_sonic_midair_somersault.o
 .text          0x0000000000000000        0x0 sound/songs/midi/se_sonic_insta_shield.o
 .data          0x0000000000000000        0x0 sound/songs/midi/se_sonic_insta_shield.o
 .bss           0x0000000000000000        0x0 sound/songs/midi/se_sonic_insta_shield.o
 .ARM.attributes
                0x0000000000000000       0x20 sound/songs/midi/se_sonic_insta_shield.o
 .text          0x0000000000000000        0x0 sound/songs/midi/se_114.o
 .data          0x0000000000000000        0x0 sound/songs/midi/se_114.o
 .bss           0x0000000000000000        0x0 sound/songs/midi/se_114.o
 .ARM.attributes
                0x0000000000000000       0x20 sound/songs/midi/se_114.o
 .text          0x0000000000000000        0x0 sound/songs/midi/se_brake.o
 .data          0x0000000000000000        0x0 sound/songs/midi/se_brake.o
 .bss           0x0000000000000000        0x0 sound/songs/midi/se_brake.o
 .ARM.attributes
                0x0000000000000000       0x20 sound/songs/midi/se_brake.o
 .text          0x0000000000000000        0x0 sound/songs/midi/se_jump.o
 .data          0x0000000000000000        0x0 sound/songs/midi/se_jump.o
 .bss           0x0000000000000000        0x0 sound/songs/midi/se_jump.o
 .ARM.attributes
                0x0000000000000000       0x20 sound/songs/midi/se_jump.o
 .text          0x0000000000000000        0x0 sound/songs/midi/se_ring_copy.o
 .data          0x0000000000000000        0x0 sound/songs/midi/se_ring_copy.o
 .bss           0x0000000000000000        0x0 sound/songs/midi/se_ring_copy.o
 .ARM.attributes
                0x0000000000000000       0x20 sound/songs/midi/se_ring_copy.o
 .text          0x0000000000000000        0x0 sound/songs/midi/se_rings_lost.o
 .data          0x0000000000000000        0x0 sound/songs/midi/se_rings_lost.o
 .bss           0x0000000000000000        0x0 sound/songs/midi/se_rings_lost.o
 .ARM.attributes
                0x0000000000000000       0x20 sound/songs/midi/se_rings_lost.o
 .text          0x0000000000000000        0x0 sound/songs/midi/se_life_lost.o
 .data          0x0000000000000000        0x0 sound/songs/midi/se_life_lost.o
 .bss           0x0000000000000000        0x0 sound/songs/midi/se_life_lost.o
 .ARM.attributes
                0x0000000000000000       0x20 sound/songs/midi/se_life_lost.o
 .text          0x0000000000000000        0x0 sound/songs/midi/se_tails_propeller_flying.o
 .data          0x0000000000000000        0x0 sound/songs/midi/se_tails_propeller_flying.o
 .bss           0x0000000000000000        0x0 sound/songs/midi/se_tails_propeller_flying.o
 .ARM.attributes
                0x0000000000000000       0x20 sound/songs/midi/se_tails_propeller_flying.o
 .text          0x0000000000000000        0x0 sound/songs/midi/se_tails_tail_swipe.o
 .data          0x0000000000000000        0x0 sound/songs/midi/se_tails_tail_swipe.o
 .bss           0x0000000000000000        0x0 sound/songs/midi/se_tails_tail_swipe.o
 .ARM.attributes
                0x0000000000000000       0x20 sound/songs/midi/se_tails_tail_swipe.o
 .text          0x0000000000000000        0x0 sound/songs/midi/se_125.o
 .data          0x0000000000000000        0x0 sound/songs/midi/se_125.o
 .bss           0x0000000000000000        0x0 sound/songs/midi/se_125.o
 .ARM.attributes
                0x0000000000000000       0x20 sound/songs/midi/se_125.o
 .text          0x0000000000000000        0x0 sound/songs/midi/se_126.o
 .data          0x0000000000000000        0x0 sound/songs/midi/se_126.o
 .bss           0x0000000000000000        0x0 sound/songs/midi/se_126.o
 .ARM.attributes
                0x0000000000000000       0x20 sound/songs/midi/se_126.o
 .text          0x0000000000000000        0x0 sound/songs/midi/se_127.o
 .data          0x0000000000000000        0x0 sound/songs/midi/se_127.o
 .bss           0x0000000000000000        0x0 sound/songs/midi/se_127.o
 .ARM.attributes
                0x0000000000000000       0x20 sound/songs/midi/se_127.o
 .text          0x0000000000000000        0x0 sound/songs/midi/se_amy_ground_hammer.o
 .data          0x0000000000000000        0x0 sound/songs/midi/se_amy_ground_hammer.o
 .bss           0x0000000000000000        0x0 sound/songs/midi/se_amy_ground_hammer.o
 .ARM.attributes
                0x0000000000000000       0x20 sound/songs/midi/se_amy_ground_hammer.o
 .text          0x0000000000000000        0x0 sound/songs/midi/se_amy_super_hammer_attack.o
 .data          0x0000000000000000        0x0 sound/songs/midi/se_amy_super_hammer_attack.o
 .bss           0x0000000000000000        0x0 sound/songs/midi/se_amy_super_hammer_attack.o
 .ARM.attributes
                0x0000000000000000       0x20 sound/songs/midi/se_amy_super_hammer_attack.o
 .text          0x0000000000000000        0x0 sound/songs/midi/se_amy_hammer_swirl.o
 .data          0x0000000000000000        0x0 sound/songs/midi/se_amy_hammer_swirl.o
 .bss           0x0000000000000000        0x0 sound/songs/midi/se_amy_hammer_swirl.o
 .ARM.attributes
                0x0000000000000000       0x20 sound/songs/midi/se_amy_hammer_swirl.o
 .text          0x0000000000000000        0x0 sound/songs/midi/se_sa1_goal_post.o
 .data          0x0000000000000000        0x0 sound/songs/midi/se_sa1_goal_post.o
 .bss           0x0000000000000000        0x0 sound/songs/midi/se_sa1_goal_post.o
 .ARM.attributes
                0x0000000000000000       0x20 sound/songs/midi/se_sa1_goal_post.o
 .text          0x0000000000000000        0x0 sound/songs/midi/se_item_box.o
 .data          0x0000000000000000        0x0 sound/songs/midi/se_item_box.o
 .bss           0x0000000000000000        0x0 sound/songs/midi/se_item_box.o
 .ARM.attributes
                0x0000000000000000       0x20 sound/songs/midi/se_item_box.o
 .text          0x0000000000000000        0x0 sound/songs/midi/se_timer.o
 .data          0x0000000000000000        0x0 sound/songs/midi/se_timer.o
 .bss           0x0000000000000000        0x0 sound/songs/midi/se_timer.o
 .ARM.attributes
                0x0000000000000000       0x20 sound/songs/midi/se_timer.o
 .text          0x0000000000000000        0x0 sound/songs/midi/se_stage_result_counter.o
 .data          0x0000000000000000        0x0 sound/songs/midi/se_stage_result_counter.o
 .bss           0x0000000000000000        0x0 sound/songs/midi/se_stage_result_counter.o
 .ARM.attributes
                0x0000000000000000       0x20 sound/songs/midi/se_stage_result_counter.o
 .text          0x0000000000000000        0x0 sound/songs/midi/se_stage_result_counter_done.o
 .data          0x0000000000000000        0x0 sound/songs/midi/se_stage_result_counter_done.o
 .bss           0x0000000000000000        0x0 sound/songs/midi/se_stage_result_counter_done.o
 .ARM.attributes
                0x0000000000000000       0x20 sound/songs/midi/se_stage_result_counter_done.o
 .text          0x0000000000000000        0x0 sound/songs/midi/se_pause_screen.o
 .data          0x0000000000000000        0x0 sound/songs/midi/se_pause_screen.o
 .bss           0x0000000000000000        0x0 sound/songs/midi/se_pause_screen.o
 .ARM.attributes
                0x0000000000000000       0x20 sound/songs/midi/se_pause_screen.o
 .text          0x0000000000000000        0x0 sound/songs/midi/se_143.o
 .data          0x0000000000000000        0x0 sound/songs/midi/se_143.o
 .bss           0x0000000000000000        0x0 sound/songs/midi/se_143.o
 .ARM.attributes
                0x0000000000000000       0x20 sound/songs/midi/se_143.o
 .text          0x0000000000000000        0x0 sound/songs/midi/se_144.o
 .data          0x0000000000000000        0x0 sound/songs/midi/se_144.o
 .bss           0x0000000000000000        0x0 sound/songs/midi/se_144.o
 .ARM.attributes
                0x0000000000000000       0x20 sound/songs/midi/se_144.o
 .text          0x0000000000000000        0x0 sound/songs/midi/se_145.o
 .data          0x0000000000000000        0x0 sound/songs/midi/se_145.o
 .bss           0x0000000000000000        0x0 sound/songs/midi/se_145.o
 .ARM.attributes
                0x0000000000000000       0x20 sound/songs/midi/se_145.o
 .text          0x0000000000000000        0x0 sound/songs/midi/se_146.o
 .data          0x0000000000000000        0x0 sound/songs/midi/se_146.o
 .bss           0x0000000000000000        0x0 sound/songs/midi/se_146.o
 .ARM.attributes
                0x0000000000000000       0x20 sound/songs/midi/se_146.o
 .text          0x0000000000000000        0x0 sound/songs/midi/se_spin.o
 .data          0x0000000000000000        0x0 sound/songs/midi/se_spin.o
 .bss           0x0000000000000000        0x0 sound/songs/midi/se_spin.o
 .ARM.attributes
                0x0000000000000000       0x20 sound/songs/midi/se_spin.o
 .text          0x0000000000000000        0x0 sound/songs/midi/se_148.o
 .data          0x0000000000000000        0x0 sound/songs/midi/se_148.o
 .bss           0x0000000000000000        0x0 sound/songs/midi/se_148.o
 .ARM.attributes
                0x0000000000000000       0x20 sound/songs/midi/se_148.o
 .text          0x0000000000000000        0x0 sound/songs/midi/se_time_up.o
 .data          0x0000000000000000        0x0 sound/songs/midi/se_time_up.o
 .bss           0x0000000000000000        0x0 sound/songs/midi/se_time_up.o
 .ARM.attributes
                0x0000000000000000       0x20 sound/songs/midi/se_time_up.o
 .text          0x0000000000000000        0x0 sound/songs/midi/se_item_box_2.o
 .data          0x0000000000000000        0x0 sound/songs/midi/se_item_box_2.o
 .bss           0x0000000000000000        0x0 sound/songs/midi/se_item_box_2.o
 .ARM.attributes
                0x0000000000000000       0x20 sound/songs/midi/se_item_box_2.o
 .text          0x0000000000000000        0x0 sound/songs/midi/se_151.o
 .data          0x0000000000000000        0x0 sound/songs/midi/se_151.o
 .bss           0x0000000000000000        0x0 sound/songs/midi/se_151.o
 .ARM.attributes
                0x0000000000000000       0x20 sound/songs/midi/se_151.o
 .text          0x0000000000000000        0x0 sound/songs/midi/se_checkpoint.o
 .data          0x0000000000000000        0x0 sound/songs/midi/se_checkpoint.o
 .bss           0x0000000000000000        0x0 sound/songs/midi/se_checkpoint.o
 .ARM.attributes
                0x0000000000000000       0x20 sound/songs/midi/se_checkpoint.o
 .text          0x0000000000000000        0x0 sound/songs/midi/se_spring.o
 .data          0x0000000000000000        0x0 sound/songs/midi/se_spring.o
 .bss           0x0000000000000000        0x0 sound/songs/midi/se_spring.o
 .ARM.attributes
                0x0000000000000000       0x20 sound/songs/midi/se_spring.o
 .text          0x0000000000000000        0x0 sound/songs/midi/se_spikes.o
 .data          0x0000000000000000        0x0 sound/songs/midi/se_spikes.o
 .bss           0x0000000000000000        0x0 sound/songs/midi/se_spikes.o
 .ARM.attributes
                0x0000000000000000       0x20 sound/songs/midi/se_spikes.o
 .text          0x0000000000000000        0x0 sound/songs/midi/se_speed_booster.o
 .data          0x0000000000000000        0x0 sound/songs/midi/se_speed_booster.o
 .bss           0x0000000000000000        0x0 sound/songs/midi/se_speed_booster.o
 .ARM.attributes
                0x0000000000000000       0x20 sound/songs/midi/se_speed_booster.o
 .text          0x0000000000000000        0x0 sound/songs/midi/se_156.o
 .data          0x0000000000000000        0x0 sound/songs/midi/se_156.o
 .bss           0x0000000000000000        0x0 sound/songs/midi/se_156.o
 .ARM.attributes
                0x0000000000000000       0x20 sound/songs/midi/se_156.o
 .text          0x0000000000000000        0x0 sound/songs/midi/se_157.o
 .data          0x0000000000000000        0x0 sound/songs/midi/se_157.o
 .bss           0x0000000000000000        0x0 sound/songs/midi/se_157.o
 .ARM.attributes
                0x0000000000000000       0x20 sound/songs/midi/se_157.o
 .text          0x0000000000000000        0x0 sound/songs/midi/se_air_bubble.o
 .data          0x0000000000000000        0x0 sound/songs/midi/se_air_bubble.o
 .bss           0x0000000000000000        0x0 sound/songs/midi/se_air_bubble.o
 .ARM.attributes
                0x0000000000000000       0x20 sound/songs/midi/se_air_bubble.o
 .text          0x0000000000000000        0x0 sound/songs/midi/se_alarm_1.o
 .data          0x0000000000000000        0x0 sound/songs/midi/se_alarm_1.o
 .bss           0x0000000000000000        0x0 sound/songs/midi/se_alarm_1.o
 .ARM.attributes
                0x0000000000000000       0x20 sound/songs/midi/se_alarm_1.o
 .text          0x0000000000000000        0x0 sound/songs/midi/se_alarm_2.o
 .data          0x0000000000000000        0x0 sound/songs/midi/se_alarm_2.o
 .bss           0x0000000000000000        0x0 sound/songs/midi/se_alarm_2.o
 .ARM.attributes
                0x0000000000000000       0x20 sound/songs/midi/se_alarm_2.o
 .text          0x0000000000000000        0x0 sound/songs/midi/se_alarm_3.o
 .data          0x0000000000000000        0x0 sound/songs/midi/se_alarm_3.o
 .bss           0x0000000000000000        0x0 sound/songs/midi/se_alarm_3.o
 .ARM.attributes
                0x0000000000000000       0x20 sound/songs/midi/se_alarm_3.o
 .text          0x0000000000000000        0x0 sound/songs/midi/se_alarm_4.o
 .data          0x0000000000000000        0x0 sound/songs/midi/se_alarm_4.o
 .bss           0x0000000000000000        0x0 sound/songs/midi/se_alarm_4.o
 .ARM.attributes
                0x0000000000000000       0x20 sound/songs/midi/se_alarm_4.o
 .text          0x0000000000000000        0x0 sound/songs/midi/se_alarm_5.o
 .data          0x0000000000000000        0x0 sound/songs/midi/se_alarm_5.o
 .bss           0x0000000000000000        0x0 sound/songs/midi/se_alarm_5.o
 .ARM.attributes
                0x0000000000000000       0x20 sound/songs/midi/se_alarm_5.o
 .text          0x0000000000000000        0x0 sound/songs/midi/se_alarm_6.o
 .data          0x0000000000000000        0x0 sound/songs/midi/se_alarm_6.o
 .bss           0x0000000000000000        0x0 sound/songs/midi/se_alarm_6.o
 .ARM.attributes
                0x0000000000000000       0x20 sound/songs/midi/se_alarm_6.o
 .text          0x0000000000000000        0x0 sound/songs/midi/se_alarm_7.o
 .data          0x0000000000000000        0x0 sound/songs/midi/se_alarm_7.o
 .bss           0x0000000000000000        0x0 sound/songs/midi/se_alarm_7.o
 .ARM.attributes
                0x0000000000000000       0x20 sound/songs/midi/se_alarm_7.o
 .text          0x0000000000000000        0x0 sound/songs/midi/se_alarm_8.o
 .data          0x0000000000000000        0x0 sound/songs/midi/se_alarm_8.o
 .bss           0x0000000000000000        0x0 sound/songs/midi/se_alarm_8.o
 .ARM.attributes
                0x0000000000000000       0x20 sound/songs/midi/se_alarm_8.o
 .text          0x0000000000000000        0x0 sound/songs/midi/se_alarm_9.o
 .data          0x0000000000000000        0x0 sound/songs/midi/se_alarm_9.o
 .bss           0x0000000000000000        0x0 sound/songs/midi/se_alarm_9.o
 .ARM.attributes
                0x0000000000000000       0x20 sound/songs/midi/se_alarm_9.o
 .text          0x0000000000000000        0x0 sound/songs/midi/se_alarm_10.o
 .data          0x0000000000000000        0x0 sound/songs/midi/se_alarm_10.o
 .bss           0x0000000000000000        0x0 sound/songs/midi/se_alarm_10.o
 .ARM.attributes
                0x0000000000000000       0x20 sound/songs/midi/se_alarm_10.o
 .text          0x0000000000000000        0x0 sound/songs/midi/se_springy_pole.o
 .data          0x0000000000000000        0x0 sound/songs/midi/se_springy_pole.o
 .bss           0x0000000000000000        0x0 sound/songs/midi/se_springy_pole.o
 .ARM.attributes
                0x0000000000000000       0x20 sound/songs/midi/se_springy_pole.o
 .text          0x0000000000000000        0x0 sound/songs/midi/se_springy_spring.o
 .data          0x0000000000000000        0x0 sound/songs/midi/se_springy_spring.o
 .bss           0x0000000000000000        0x0 sound/songs/midi/se_springy_spring.o
 .ARM.attributes
                0x0000000000000000       0x20 sound/songs/midi/se_springy_spring.o
 .text          0x0000000000000000        0x0 sound/songs/midi/voice__announcer__sonic_advance_2.o
 .data          0x0000000000000000        0x0 sound/songs/midi/voice__announcer__sonic_advance_2.o
 .bss           0x0000000000000000        0x0 sound/songs/midi/voice__announcer__sonic_advance_2.o
 .ARM.attributes
                0x0000000000000000       0x20 sound/songs/midi/voice__announcer__sonic_advance_2.o
 .text          0x0000000000000000        0x0 sound/songs/midi/voice__announcer__sonic.o
 .data          0x0000000000000000        0x0 sound/songs/midi/voice__announcer__sonic.o
 .bss           0x0000000000000000        0x0 sound/songs/midi/voice__announcer__sonic.o
 .ARM.attributes
                0x0000000000000000       0x20 sound/songs/midi/voice__announcer__sonic.o
 .text          0x0000000000000000        0x0 sound/songs/midi/voice__announcer__tails.o
 .data          0x0000000000000000        0x0 sound/songs/midi/voice__announcer__tails.o
 .bss           0x0000000000000000        0x0 sound/songs/midi/voice__announcer__tails.o
 .ARM.attributes
                0x0000000000000000       0x20 sound/songs/midi/voice__announcer__tails.o
 .text          0x0000000000000000        0x0 sound/songs/midi/voice__announcer__knuckles.o
 .data          0x0000000000000000        0x0 sound/songs/midi/voice__announcer__knuckles.o
 .bss           0x0000000000000000        0x0 sound/songs/midi/voice__announcer__knuckles.o
 .ARM.attributes
                0x0000000000000000       0x20 sound/songs/midi/voice__announcer__knuckles.o
 .text          0x0000000000000000        0x0 sound/songs/midi/voice__announcer__amy.o
 .data          0x0000000000000000        0x0 sound/songs/midi/voice__announcer__amy.o
 .bss           0x0000000000000000        0x0 sound/songs/midi/voice__announcer__amy.o
 .ARM.attributes
                0x0000000000000000       0x20 sound/songs/midi/voice__announcer__amy.o
 .text          0x0000000000000000        0x0 sound/songs/midi/voice__announcer__cream.o
 .data          0x0000000000000000        0x0 sound/songs/midi/voice__announcer__cream.o
 .bss           0x0000000000000000        0x0 sound/songs/midi/voice__announcer__cream.o
 .ARM.attributes
                0x0000000000000000       0x20 sound/songs/midi/voice__announcer__cream.o
 .text          0x0000000000000000        0x0 sound/songs/midi/voice__announcer__3.o
 .data          0x0000000000000000        0x0 sound/songs/midi/voice__announcer__3.o
 .bss           0x0000000000000000        0x0 sound/songs/midi/voice__announcer__3.o
 .ARM.attributes
                0x0000000000000000       0x20 sound/songs/midi/voice__announcer__3.o
 .text          0x0000000000000000        0x0 sound/songs/midi/voice__announcer__2.o
 .data          0x0000000000000000        0x0 sound/songs/midi/voice__announcer__2.o
 .bss           0x0000000000000000        0x0 sound/songs/midi/voice__announcer__2.o
 .ARM.attributes
                0x0000000000000000       0x20 sound/songs/midi/voice__announcer__2.o
 .text          0x0000000000000000        0x0 sound/songs/midi/voice__announcer__1.o
 .data          0x0000000000000000        0x0 sound/songs/midi/voice__announcer__1.o
 .bss           0x0000000000000000        0x0 sound/songs/midi/voice__announcer__1.o
 .ARM.attributes
                0x0000000000000000       0x20 sound/songs/midi/voice__announcer__1.o
 .text          0x0000000000000000        0x0 sound/songs/midi/voice__announcer__go.o
 .data          0x0000000000000000        0x0 sound/songs/midi/voice__announcer__go.o
 .bss           0x0000000000000000        0x0 sound/songs/midi/voice__announcer__go.o
 .ARM.attributes
                0x0000000000000000       0x20 sound/songs/midi/voice__announcer__go.o
 .text          0x0000000000000000        0x0 sound/songs/midi/voice__announcer__congratulations.o
 .data          0x0000000000000000        0x0 sound/songs/midi/voice__announcer__congratulations.o
 .bss           0x0000000000000000        0x0 sound/songs/midi/voice__announcer__congratulations.o
 .ARM.attributes
                0x0000000000000000       0x20 sound/songs/midi/voice__announcer__congratulations.o
 .text          0x0000000000000000        0x0 sound/songs/midi/se_map_move.o
 .data          0x0000000000000000        0x0 sound/songs/midi/se_map_move.o
 .bss           0x0000000000000000        0x0 sound/songs/midi/se_map_move.o
 .ARM.attributes
                0x0000000000000000       0x20 sound/songs/midi/se_map_move.o
 .text          0x0000000000000000        0x0 sound/songs/midi/se_map_214.o
 .data          0x0000000000000000        0x0 sound/songs/midi/se_map_214.o
 .bss           0x0000000000000000        0x0 sound/songs/midi/se_map_214.o
 .ARM.attributes
                0x0000000000000000       0x20 sound/songs/midi/se_map_214.o
 .text          0x0000000000000000        0x0 sound/songs/midi/se_map_move_end.o
 .data          0x0000000000000000        0x0 sound/songs/midi/se_map_move_end.o
 .bss           0x0000000000000000        0x0 sound/songs/midi/se_map_move_end.o
 .ARM.attributes
                0x0000000000000000       0x20 sound/songs/midi/se_map_move_end.o
 .text          0x0000000000000000        0x0 sound/songs/midi/se_216.o
 .data          0x0000000000000000        0x0 sound/songs/midi/se_216.o
 .bss           0x0000000000000000        0x0 sound/songs/midi/se_216.o
 .ARM.attributes
                0x0000000000000000       0x20 sound/songs/midi/se_216.o
 .text          0x0000000000000000        0x0 sound/songs/midi/se_217.o
 .data          0x0000000000000000        0x0 sound/songs/midi/se_217.o
 .bss           0x0000000000000000        0x0 sound/songs/midi/se_217.o
 .ARM.attributes
                0x0000000000000000       0x20 sound/songs/midi/se_217.o
 .text          0x0000000000000000        0x0 sound/songs/midi/se_218.o
 .data          0x0000000000000000        0x0 sound/songs/midi/se_218.o
 .bss           0x0000000000000000        0x0 sound/songs/midi/se_218.o
 .ARM.attributes
                0x0000000000000000       0x20 sound/songs/midi/se_218.o
 .text          0x0000000000000000        0x0 sound/songs/midi/se_219.o
 .data          0x0000000000000000        0x0 sound/songs/midi/se_219.o
 .bss           0x0000000000000000        0x0 sound/songs/midi/se_219.o
 .ARM.attributes
                0x0000000000000000       0x20 sound/songs/midi/se_219.o
 .text          0x0000000000000000        0x0 sound/songs/midi/se_delete_game_data.o
 .data          0x0000000000000000        0x0 sound/songs/midi/se_delete_game_data.o
 .bss           0x0000000000000000        0x0 sound/songs/midi/se_delete_game_data.o
 .ARM.attributes
                0x0000000000000000       0x20 sound/songs/midi/se_delete_game_data.o
 .text          0x0000000000000000        0x0 sound/songs/midi/se_221.o
 .data          0x0000000000000000        0x0 sound/songs/midi/se_221.o
 .bss           0x0000000000000000        0x0 sound/songs/midi/se_221.o
 .ARM.attributes
                0x0000000000000000       0x20 sound/songs/midi/se_221.o
 .text          0x0000000000000000        0x0 sound/songs/midi/se_222.o
 .data          0x0000000000000000        0x0 sound/songs/midi/se_222.o
 .bss           0x0000000000000000        0x0 sound/songs/midi/se_222.o
 .ARM.attributes
                0x0000000000000000       0x20 sound/songs/midi/se_222.o
 .text          0x0000000000000000        0x0 sound/songs/midi/se_223.o
 .data          0x0000000000000000        0x0 sound/songs/midi/se_223.o
 .bss           0x0000000000000000        0x0 sound/songs/midi/se_223.o
 .ARM.attributes
                0x0000000000000000       0x20 sound/songs/midi/se_223.o
 .text          0x0000000000000000        0x0 sound/songs/midi/se_224.o
 .data          0x0000000000000000        0x0 sound/songs/midi/se_224.o
 .bss           0x0000000000000000        0x0 sound/songs/midi/se_224.o
 .ARM.attributes
                0x0000000000000000       0x20 sound/songs/midi/se_224.o
 .text          0x0000000000000000        0x0 sound/songs/midi/se_225.o
 .data          0x0000000000000000        0x0 sound/songs/midi/se_225.o
 .bss           0x0000000000000000        0x0 sound/songs/midi/se_225.o
 .ARM.attributes
                0x0000000000000000       0x20 sound/songs/midi/se_225.o
 .text          0x0000000000000000        0x0 sound/songs/midi/se_226.o
 .data          0x0000000000000000        0x0 sound/songs/midi/se_226.o
 .bss           0x0000000000000000        0x0 sound/songs/midi/se_226.o
 .ARM.attributes
                0x0000000000000000       0x20 sound/songs/midi/se_226.o
 .text          0x0000000000000000        0x0 sound/songs/midi/se_cream_flying.o
 .data          0x0000000000000000        0x0 sound/songs/midi/se_cream_flying.o
 .bss           0x0000000000000000        0x0 sound/songs/midi/se_cream_flying.o
 .ARM.attributes
                0x0000000000000000       0x20 sound/songs/midi/se_cream_flying.o
 .text          0x0000000000000000        0x0 sound/songs/midi/se_228.o
 .data          0x0000000000000000        0x0 sound/songs/midi/se_228.o
 .bss           0x0000000000000000        0x0 sound/songs/midi/se_228.o
 .ARM.attributes
                0x0000000000000000       0x20 sound/songs/midi/se_228.o
 .text          0x0000000000000000        0x0 sound/songs/midi/se_cream_cheese_attack.o
 .data          0x0000000000000000        0x0 sound/songs/midi/se_cream_cheese_attack.o
 .bss           0x0000000000000000        0x0 sound/songs/midi/se_cream_cheese_attack.o
 .ARM.attributes
                0x0000000000000000       0x20 sound/songs/midi/se_cream_cheese_attack.o
 .text          0x0000000000000000        0x0 sound/songs/midi/se_230.o
 .data          0x0000000000000000        0x0 sound/songs/midi/se_230.o
 .bss           0x0000000000000000        0x0 sound/songs/midi/se_230.o
 .ARM.attributes
                0x0000000000000000       0x20 sound/songs/midi/se_230.o
 .text          0x0000000000000000        0x0 sound/songs/midi/se_231.o
 .data          0x0000000000000000        0x0 sound/songs/midi/se_231.o
 .bss           0x0000000000000000        0x0 sound/songs/midi/se_231.o
 .ARM.attributes
                0x0000000000000000       0x20 sound/songs/midi/se_231.o
 .text          0x0000000000000000        0x0 sound/songs/midi/se_long_brake.o
 .data          0x0000000000000000        0x0 sound/songs/midi/se_long_brake.o
 .bss           0x0000000000000000        0x0 sound/songs/midi/se_long_brake.o
 .ARM.attributes
                0x0000000000000000       0x20 sound/songs/midi/se_long_brake.o
 .text          0x0000000000000000        0x0 sound/songs/midi/se_234.o
 .data          0x0000000000000000        0x0 sound/songs/midi/se_234.o
 .bss           0x0000000000000000        0x0 sound/songs/midi/se_234.o
 .ARM.attributes
                0x0000000000000000       0x20 sound/songs/midi/se_234.o
 .text          0x0000000000000000        0x0 sound/songs/midi/se_235.o
 .data          0x0000000000000000        0x0 sound/songs/midi/se_235.o
 .bss           0x0000000000000000        0x0 sound/songs/midi/se_235.o
 .ARM.attributes
                0x0000000000000000       0x20 sound/songs/midi/se_235.o
 .text          0x0000000000000000        0x0 sound/songs/midi/se_236.o
 .data          0x0000000000000000        0x0 sound/songs/midi/se_236.o
 .bss           0x0000000000000000        0x0 sound/songs/midi/se_236.o
 .ARM.attributes
                0x0000000000000000       0x20 sound/songs/midi/se_236.o
 .text          0x0000000000000000        0x0 sound/songs/midi/se_237.o
 .data          0x0000000000000000        0x0 sound/songs/midi/se_237.o
 .bss           0x0000000000000000        0x0 sound/songs/midi/se_237.o
 .ARM.attributes
                0x0000000000000000       0x20 sound/songs/midi/se_237.o
 .text          0x0000000000000000        0x0 sound/songs/midi/se_238.o
 .data          0x0000000000000000        0x0 sound/songs/midi/se_238.o
 .bss           0x0000000000000000        0x0 sound/songs/midi/se_238.o
 .ARM.attributes
                0x0000000000000000       0x20 sound/songs/midi/se_238.o
 .text          0x0000000000000000        0x0 sound/songs/midi/se_239.o
 .data          0x0000000000000000        0x0 sound/songs/midi/se_239.o
 .bss           0x0000000000000000        0x0 sound/songs/midi/se_239.o
 .ARM.attributes
                0x0000000000000000       0x20 sound/songs/midi/se_239.o
 .text          0x0000000000000000        0x0 sound/songs/midi/se_241.o
 .data          0x0000000000000000        0x0 sound/songs/midi/se_241.o
 .bss           0x0000000000000000        0x0 sound/songs/midi/se_241.o
 .ARM.attributes
                0x0000000000000000       0x20 sound/songs/midi/se_241.o
 .text          0x0000000000000000        0x0 sound/songs/midi/se_242.o
 .data          0x0000000000000000        0x0 sound/songs/midi/se_242.o
 .bss           0x0000000000000000        0x0 sound/songs/midi/se_242.o
 .ARM.attributes
                0x0000000000000000       0x20 sound/songs/midi/se_242.o
 .text          0x0000000000000000        0x0 sound/songs/midi/se_243.o
 .data          0x0000000000000000        0x0 sound/songs/midi/se_243.o
 .bss           0x0000000000000000        0x0 sound/songs/midi/se_243.o
 .ARM.attributes
                0x0000000000000000       0x20 sound/songs/midi/se_243.o
 .text          0x0000000000000000        0x0 sound/songs/midi/se_244.o
 .data          0x0000000000000000        0x0 sound/songs/midi/se_244.o
 .bss           0x0000000000000000        0x0 sound/songs/midi/se_244.o
 .ARM.attributes
                0x0000000000000000       0x20 sound/songs/midi/se_244.o
 .text          0x0000000000000000        0x0 sound/songs/midi/se_245.o
 .data          0x0000000000000000        0x0 sound/songs/midi/se_245.o
 .bss           0x0000000000000000        0x0 sound/songs/midi/se_245.o
 .ARM.attributes
                0x0000000000000000       0x20 sound/songs/midi/se_245.o
 .text          0x0000000000000000        0x0 sound/songs/midi/se_246.o
 .data          0x0000000000000000        0x0 sound/songs/midi/se_246.o
 .bss           0x0000000000000000        0x0 sound/songs/midi/se_246.o
 .ARM.attributes
                0x0000000000000000       0x20 sound/songs/midi/se_246.o
 .text          0x0000000000000000        0x0 sound/songs/midi/se_248.o
 .data          0x0000000000000000        0x0 sound/songs/midi/se_248.o
 .bss           0x0000000000000000        0x0 sound/songs/midi/se_248.o
 .ARM.attributes
                0x0000000000000000       0x20 sound/songs/midi/se_248.o
 .text          0x0000000000000000        0x0 sound/songs/midi/se_249.o
 .data          0x0000000000000000        0x0 sound/songs/midi/se_249.o
 .bss           0x0000000000000000        0x0 sound/songs/midi/se_249.o
 .ARM.attributes
                0x0000000000000000       0x20 sound/songs/midi/se_249.o
 .text          0x0000000000000000        0x0 sound/songs/midi/se_250.o
 .data          0x0000000000000000        0x0 sound/songs/midi/se_250.o
 .bss           0x0000000000000000        0x0 sound/songs/midi/se_250.o
 .ARM.attributes
                0x0000000000000000       0x20 sound/songs/midi/se_250.o
 .text          0x0000000000000000        0x0 sound/songs/midi/se_251.o
 .data          0x0000000000000000        0x0 sound/songs/midi/se_251.o
 .bss           0x0000000000000000        0x0 sound/songs/midi/se_251.o
 .ARM.attributes
                0x0000000000000000       0x20 sound/songs/midi/se_251.o
 .text          0x0000000000000000        0x0 sound/songs/midi/se_252.o
 .data          0x0000000000000000        0x0 sound/songs/midi/se_252.o
 .bss           0x0000000000000000        0x0 sound/songs/midi/se_252.o
 .ARM.attributes
                0x0000000000000000       0x20 sound/songs/midi/se_252.o
 .text          0x0000000000000000        0x0 sound/songs/midi/se_253.o
 .data          0x0000000000000000        0x0 sound/songs/midi/se_253.o
 .bss           0x0000000000000000        0x0 sound/songs/midi/se_253.o
 .ARM.attributes
                0x0000000000000000       0x20 sound/songs/midi/se_253.o
 .text          0x0000000000000000        0x0 sound/songs/midi/se_254.o
 .data          0x0000000000000000        0x0 sound/songs/midi/se_254.o
 .bss           0x0000000000000000        0x0 sound/songs/midi/se_254.o
 .ARM.attributes
                0x0000000000000000       0x20 sound/songs/midi/se_254.o
 .text          0x0000000000000000        0x0 sound/songs/midi/se_255.o
 .data          0x0000000000000000        0x0 sound/songs/midi/se_255.o
 .bss           0x0000000000000000        0x0 sound/songs/midi/se_255.o
 .ARM.attributes
                0x0000000000000000       0x20 sound/songs/midi/se_255.o
 .text          0x0000000000000000        0x0 sound/songs/midi/se_256.o
 .data          0x0000000000000000        0x0 sound/songs/midi/se_256.o
 .bss           0x0000000000000000        0x0 sound/songs/midi/se_256.o
 .ARM.attributes
                0x0000000000000000       0x20 sound/songs/midi/se_256.o
 .text          0x0000000000000000        0x0 sound/songs/midi/se_257.o
 .data          0x0000000000000000        0x0 sound/songs/midi/se_257.o
 .bss           0x0000000000000000        0x0 sound/songs/midi/se_257.o
 .ARM.attributes
                0x0000000000000000       0x20 sound/songs/midi/se_257.o
 .text          0x0000000000000000        0x0 sound/songs/midi/se_258.o
 .data          0x0000000000000000        0x0 sound/songs/midi/se_258.o
 .bss           0x0000000000000000        0x0 sound/songs/midi/se_258.o
 .ARM.attributes
                0x0000000000000000       0x20 sound/songs/midi/se_258.o
 .text          0x0000000000000000        0x0 sound/songs/midi/se_259.o
 .data          0x0000000000000000        0x0 sound/songs/midi/se_259.o
 .bss           0x0000000000000000        0x0 sound/songs/midi/se_259.o
 .ARM.attributes
                0x0000000000000000       0x20 sound/songs/midi/se_259.o
 .text          0x0000000000000000        0x0 sound/songs/midi/se_260.o
 .data          0x0000000000000000        0x0 sound/songs/midi/se_260.o
 .bss           0x0000000000000000        0x0 sound/songs/midi/se_260.o
 .ARM.attributes
                0x0000000000000000       0x20 sound/songs/midi/se_260.o
 .text          0x0000000000000000        0x0 sound/songs/midi/se_261.o
 .data          0x0000000000000000        0x0 sound/songs/midi/se_261.o
 .bss           0x0000000000000000        0x0 sound/songs/midi/se_261.o
 .ARM.attributes
                0x0000000000000000       0x20 sound/songs/midi/se_261.o
 .text          0x0000000000000000        0x0 sound/songs/midi/se_262.o
 .data          0x0000000000000000        0x0 sound/songs/midi/se_262.o
 .bss           0x0000000000000000        0x0 sound/songs/midi/se_262.o
 .ARM.attributes
                0x0000000000000000       0x20 sound/songs/midi/se_262.o
 .text          0x0000000000000000        0x0 sound/songs/midi/se_263.o
 .data          0x0000000000000000        0x0 sound/songs/midi/se_263.o
 .bss           0x0000000000000000        0x0 sound/songs/midi/se_263.o
 .ARM.attributes
                0x0000000000000000       0x20 sound/songs/midi/se_263.o
 .text          0x0000000000000000        0x0 sound/songs/midi/se_264.o
 .data          0x0000000000000000        0x0 sound/songs/midi/se_264.o
 .bss           0x0000000000000000        0x0 sound/songs/midi/se_264.o
 .ARM.attributes
                0x0000000000000000       0x20 sound/songs/midi/se_264.o
 .text          0x0000000000000000        0x0 sound/songs/midi/se_265.o
 .data          0x0000000000000000        0x0 sound/songs/midi/se_265.o
 .bss           0x0000000000000000        0x0 sound/songs/midi/se_265.o
 .ARM.attributes
                0x0000000000000000       0x20 sound/songs/midi/se_265.o
 .text          0x0000000000000000        0x0 sound/songs/midi/se_266.o
 .data          0x0000000000000000        0x0 sound/songs/midi/se_266.o
 .bss           0x0000000000000000        0x0 sound/songs/midi/se_266.o
 .ARM.attributes
                0x0000000000000000       0x20 sound/songs/midi/se_266.o
 .text          0x0000000000000000        0x0 sound/songs/midi/se_267.o
 .data          0x0000000000000000        0x0 sound/songs/midi/se_267.o
 .bss           0x0000000000000000        0x0 sound/songs/midi/se_267.o
 .ARM.attributes
                0x0000000000000000       0x20 sound/songs/midi/se_267.o
 .text          0x0000000000000000        0x0 sound/songs/midi/se_268.o
 .data          0x0000000000000000        0x0 sound/songs/midi/se_268.o
 .bss           0x0000000000000000        0x0 sound/songs/midi/se_268.o
 .ARM.attributes
                0x0000000000000000       0x20 sound/songs/midi/se_268.o
 .text          0x0000000000000000        0x0 sound/songs/midi/se_269.o
 .data          0x0000000000000000        0x0 sound/songs/midi/se_269.o
 .bss           0x0000000000000000        0x0 sound/songs/midi/se_269.o
 .ARM.attributes
                0x0000000000000000       0x20 sound/songs/midi/se_269.o
 .text          0x0000000000000000        0x0 sound/songs/midi/se_suction.o
 .data          0x0000000000000000        0x0 sound/songs/midi/se_suction.o
 .bss           0x0000000000000000        0x0 sound/songs/midi/se_suction.o
 .ARM.attributes
                0x0000000000000000       0x20 sound/songs/midi/se_suction.o
 .text          0x0000000000000000        0x0 sound/songs/midi/se_271.o
 .data          0x0000000000000000        0x0 sound/songs/midi/se_271.o
 .bss           0x0000000000000000        0x0 sound/songs/midi/se_271.o
 .ARM.attributes
                0x0000000000000000       0x20 sound/songs/midi/se_271.o
 .text          0x0000000000000000        0x0 sound/songs/midi/se_272.o
 .data          0x0000000000000000        0x0 sound/songs/midi/se_272.o
 .bss           0x0000000000000000        0x0 sound/songs/midi/se_272.o
 .ARM.attributes
                0x0000000000000000       0x20 sound/songs/midi/se_272.o
 .text          0x0000000000000000        0x0 sound/songs/midi/se_273.o
 .data          0x0000000000000000        0x0 sound/songs/midi/se_273.o
 .bss           0x0000000000000000        0x0 sound/songs/midi/se_273.o
 .ARM.attributes
                0x0000000000000000       0x20 sound/songs/midi/se_273.o
 .text          0x0000000000000000        0x0 sound/songs/midi/se_274.o
 .data          0x0000000000000000        0x0 sound/songs/midi/se_274.o
 .bss           0x0000000000000000        0x0 sound/songs/midi/se_274.o
 .ARM.attributes
                0x0000000000000000       0x20 sound/songs/midi/se_274.o
 .text          0x0000000000000000        0x0 sound/songs/midi/se_275.o
 .data          0x0000000000000000        0x0 sound/songs/midi/se_275.o
 .bss           0x0000000000000000        0x0 sound/songs/midi/se_275.o
 .ARM.attributes
                0x0000000000000000       0x20 sound/songs/midi/se_275.o
 .text          0x0000000000000000        0x0 sound/songs/midi/se_276.o
 .data          0x0000000000000000        0x0 sound/songs/midi/se_276.o
 .bss           0x0000000000000000        0x0 sound/songs/midi/se_276.o
 .ARM.attributes
                0x0000000000000000       0x20 sound/songs/midi/se_276.o
 .text          0x0000000000000000        0x0 sound/songs/midi/se_277.o
 .data          0x0000000000000000        0x0 sound/songs/midi/se_277.o
 .bss           0x0000000000000000        0x0 sound/songs/midi/se_277.o
 .ARM.attributes
                0x0000000000000000       0x20 sound/songs/midi/se_277.o
 .text          0x0000000000000000        0x0 sound/songs/midi/se_278.o
 .data          0x0000000000000000        0x0 sound/songs/midi/se_278.o
 .bss           0x0000000000000000        0x0 sound/songs/midi/se_278.o
 .ARM.attributes
                0x0000000000000000       0x20 sound/songs/midi/se_278.o
 .text          0x0000000000000000        0x0 sound/songs/midi/se_279.o
 .data          0x0000000000000000        0x0 sound/songs/midi/se_279.o
 .bss           0x0000000000000000        0x0 sound/songs/midi/se_279.o
 .ARM.attributes
                0x0000000000000000       0x20 sound/songs/midi/se_279.o
 .text          0x0000000000000000        0x0 sound/songs/midi/se_280.o
 .data          0x0000000000000000        0x0 sound/songs/midi/se_280.o
 .bss           0x0000000000000000        0x0 sound/songs/midi/se_280.o
 .ARM.attributes
                0x0000000000000000       0x20 sound/songs/midi/se_280.o
 .text          0x0000000000000000        0x0 sound/songs/midi/se_281.o
 .data          0x0000000000000000        0x0 sound/songs/midi/se_281.o
 .bss           0x0000000000000000        0x0 sound/songs/midi/se_281.o
 .ARM.attributes
                0x0000000000000000       0x20 sound/songs/midi/se_281.o
 .text          0x0000000000000000        0x0 sound/songs/midi/se_282.o
 .data          0x0000000000000000        0x0 sound/songs/midi/se_282.o
 .bss           0x0000000000000000        0x0 sound/songs/midi/se_282.o
 .ARM.attributes
                0x0000000000000000       0x20 sound/songs/midi/se_282.o
 .text          0x0000000000000000        0x0 sound/songs/midi/se_283.o
 .data          0x0000000000000000        0x0 sound/songs/midi/se_283.o
 .bss           0x0000000000000000        0x0 sound/songs/midi/se_283.o
 .ARM.attributes
                0x0000000000000000       0x20 sound/songs/midi/se_283.o
 .text          0x0000000000000000        0x0 sound/songs/midi/se_284.o
 .data          0x0000000000000000        0x0 sound/songs/midi/se_284.o
 .bss           0x0000000000000000        0x0 sound/songs/midi/se_284.o
 .ARM.attributes
                0x0000000000000000       0x20 sound/songs/midi/se_284.o
 .text          0x0000000000000000        0x0 sound/songs/midi/se_285.o
 .data          0x0000000000000000        0x0 sound/songs/midi/se_285.o
 .bss           0x0000000000000000        0x0 sound/songs/midi/se_285.o
 .ARM.attributes
                0x0000000000000000       0x20 sound/songs/midi/se_285.o
 .text          0x0000000000000000        0x0 sound/songs/midi/se_286.o
 .data          0x0000000000000000        0x0 sound/songs/midi/se_286.o
 .bss           0x0000000000000000        0x0 sound/songs/midi/se_286.o
 .ARM.attributes
                0x0000000000000000       0x20 sound/songs/midi/se_286.o
 .text          0x0000000000000000        0x0 sound/songs/midi/se_287.o
 .data          0x0000000000000000        0x0 sound/songs/midi/se_287.o
 .bss           0x0000000000000000        0x0 sound/songs/midi/se_287.o
 .ARM.attributes
                0x0000000000000000       0x20 sound/songs/midi/se_287.o
 .text          0x0000000000000000        0x0 sound/songs/midi/se_288.o
 .data          0x0000000000000000        0x0 sound/songs/midi/se_288.o
 .bss           0x0000000000000000        0x0 sound/songs/midi/se_288.o
 .ARM.attributes
                0x0000000000000000       0x20 sound/songs/midi/se_288.o
 .text          0x0000000000000000        0x0 sound/songs/midi/se_289.o
 .data          0x0000000000000000        0x0 sound/songs/midi/se_289.o
 .bss           0x0000000000000000        0x0 sound/songs/midi/se_289.o
 .ARM.attributes
                0x0000000000000000       0x20 sound/songs/midi/se_289.o
 .text          0x0000000000000000        0x0 sound/songs/midi/se_290.o
 .data          0x0000000000000000        0x0 sound/songs/midi/se_290.o
 .bss           0x0000000000000000        0x0 sound/songs/midi/se_290.o
 .ARM.attributes
                0x0000000000000000       0x20 sound/songs/midi/se_290.o
 .text          0x0000000000000000        0x0 sound/songs/se_291.o
 .data          0x0000000000000000        0x0 sound/songs/se_291.o
 .bss           0x0000000000000000        0x0 sound/songs/se_291.o
 .ARM.attributes
                0x0000000000000000       0x20 sound/songs/se_291.o
 .text          0x0000000000000000        0x0 sound/songs/midi/se_ice_paradise_slide.o
 .data          0x0000000000000000        0x0 sound/songs/midi/se_ice_paradise_slide.o
 .bss           0x0000000000000000        0x0 sound/songs/midi/se_ice_paradise_slide.o
 .ARM.attributes
                0x0000000000000000       0x20 sound/songs/midi/se_ice_paradise_slide.o
 .text          0x0000000000000000        0x0 sound/songs/midi/se_293.o
 .data          0x0000000000000000        0x0 sound/songs/midi/se_293.o
 .bss           0x0000000000000000        0x0 sound/songs/midi/se_293.o
 .ARM.attributes
                0x0000000000000000       0x20 sound/songs/midi/se_293.o
 .text          0x0000000000000000        0x0 sound/songs/midi/se_techno_base_note_block.o
 .data          0x0000000000000000        0x0 sound/songs/midi/se_techno_base_note_block.o
 .bss           0x0000000000000000        0x0 sound/songs/midi/se_techno_base_note_block.o
 .ARM.attributes
                0x0000000000000000       0x20 sound/songs/midi/se_techno_base_note_block.o
 .text          0x0000000000000000        0x0 sound/songs/midi/se_295.o
 .data          0x0000000000000000        0x0 sound/songs/midi/se_295.o
 .bss           0x0000000000000000        0x0 sound/songs/midi/se_295.o
 .ARM.attributes
                0x0000000000000000       0x20 sound/songs/midi/se_295.o
 .text          0x0000000000000000        0x0 sound/songs/midi/se_296.o
 .data          0x0000000000000000        0x0 sound/songs/midi/se_296.o
 .bss           0x0000000000000000        0x0 sound/songs/midi/se_296.o
 .ARM.attributes
                0x0000000000000000       0x20 sound/songs/midi/se_296.o
 .text          0x0000000000000000        0x0 sound/songs/midi/se_297.o
 .data          0x0000000000000000        0x0 sound/songs/midi/se_297.o
 .bss           0x0000000000000000        0x0 sound/songs/midi/se_297.o
 .ARM.attributes
                0x0000000000000000       0x20 sound/songs/midi/se_297.o
 .text          0x0000000000000000        0x0 sound/songs/midi/se_special_ring.o
 .data          0x0000000000000000        0x0 sound/songs/midi/se_special_ring.o
 .bss           0x0000000000000000        0x0 sound/songs/midi/se_special_ring.o
 .ARM.attributes
                0x0000000000000000       0x20 sound/songs/midi/se_special_ring.o
 .text          0x0000000000000000        0x0 sound/songs/midi/se_music_plant_spring_1.o
 .data          0x0000000000000000        0x0 sound/songs/midi/se_music_plant_spring_1.o
 .bss           0x0000000000000000        0x0 sound/songs/midi/se_music_plant_spring_1.o
 .ARM.attributes
                0x0000000000000000       0x20 sound/songs/midi/se_music_plant_spring_1.o
 .text          0x0000000000000000        0x0 sound/songs/midi/se_music_plant_spring_2.o
 .data          0x0000000000000000        0x0 sound/songs/midi/se_music_plant_spring_2.o
 .bss           0x0000000000000000        0x0 sound/songs/midi/se_music_plant_spring_2.o
 .ARM.attributes
                0x0000000000000000       0x20 sound/songs/midi/se_music_plant_spring_2.o
 .text          0x0000000000000000        0x0 sound/songs/midi/se_music_plant_spring_3.o
 .data          0x0000000000000000        0x0 sound/songs/midi/se_music_plant_spring_3.o
 .bss           0x0000000000000000        0x0 sound/songs/midi/se_music_plant_spring_3.o
 .ARM.attributes
                0x0000000000000000       0x20 sound/songs/midi/se_music_plant_spring_3.o
 .text          0x0000000000000000        0x0 sound/songs/midi/se_music_plant_spring_4.o
 .data          0x0000000000000000        0x0 sound/songs/midi/se_music_plant_spring_4.o
 .bss           0x0000000000000000        0x0 sound/songs/midi/se_music_plant_spring_4.o
 .ARM.attributes
                0x0000000000000000       0x20 sound/songs/midi/se_music_plant_spring_4.o
 .text          0x0000000000000000        0x0 sound/songs/midi/se_music_plant_crash_hit.o
 .data          0x0000000000000000        0x0 sound/songs/midi/se_music_plant_crash_hit.o
 .bss           0x0000000000000000        0x0 sound/songs/midi/se_music_plant_crash_hit.o
 .ARM.attributes
                0x0000000000000000       0x20 sound/songs/midi/se_music_plant_crash_hit.o
 .text          0x0000000000000000        0x0 sound/songs/midi/se_music_plant_notes_1.o
 .data          0x0000000000000000        0x0 sound/songs/midi/se_music_plant_notes_1.o
 .bss           0x0000000000000000        0x0 sound/songs/midi/se_music_plant_notes_1.o
 .ARM.attributes
                0x0000000000000000       0x20 sound/songs/midi/se_music_plant_notes_1.o
 .text          0x0000000000000000        0x0 sound/songs/midi/se_music_plant_notes_2.o
 .data          0x0000000000000000        0x0 sound/songs/midi/se_music_plant_notes_2.o
 .bss           0x0000000000000000        0x0 sound/songs/midi/se_music_plant_notes_2.o
 .ARM.attributes
                0x0000000000000000       0x20 sound/songs/midi/se_music_plant_notes_2.o
 .text          0x0000000000000000        0x0 sound/songs/midi/se_music_plant_notes_3.o
 .data          0x0000000000000000        0x0 sound/songs/midi/se_music_plant_notes_3.o
 .bss           0x0000000000000000        0x0 sound/songs/midi/se_music_plant_notes_3.o
 .ARM.attributes
                0x0000000000000000       0x20 sound/songs/midi/se_music_plant_notes_3.o
 .text          0x0000000000000000        0x0 sound/songs/midi/se_music_plant_notes_4.o
 .data          0x0000000000000000        0x0 sound/songs/midi/se_music_plant_notes_4.o
 .bss           0x0000000000000000        0x0 sound/songs/midi/se_music_plant_notes_4.o
 .ARM.attributes
                0x0000000000000000       0x20 sound/songs/midi/se_music_plant_notes_4.o
 .text          0x0000000000000000        0x0 sound/songs/midi/se_music_plant_notes_5.o
 .data          0x0000000000000000        0x0 sound/songs/midi/se_music_plant_notes_5.o
 .bss           0x0000000000000000        0x0 sound/songs/midi/se_music_plant_notes_5.o
 .ARM.attributes
                0x0000000000000000       0x20 sound/songs/midi/se_music_plant_notes_5.o
 .text          0x0000000000000000        0x0 sound/songs/midi/se_music_plant_notes_6.o
 .data          0x0000000000000000        0x0 sound/songs/midi/se_music_plant_notes_6.o
 .bss           0x0000000000000000        0x0 sound/songs/midi/se_music_plant_notes_6.o
 .ARM.attributes
                0x0000000000000000       0x20 sound/songs/midi/se_music_plant_notes_6.o
 .text          0x0000000000000000        0x0 sound/songs/midi/se_music_plant_notes_7.o
 .data          0x0000000000000000        0x0 sound/songs/midi/se_music_plant_notes_7.o
 .bss           0x0000000000000000        0x0 sound/songs/midi/se_music_plant_notes_7.o
 .ARM.attributes
                0x0000000000000000       0x20 sound/songs/midi/se_music_plant_notes_7.o
 .text          0x0000000000000000        0x0 sound/songs/midi/se_music_plant_notes_8.o
 .data          0x0000000000000000        0x0 sound/songs/midi/se_music_plant_notes_8.o
 .bss           0x0000000000000000        0x0 sound/songs/midi/se_music_plant_notes_8.o
 .ARM.attributes
                0x0000000000000000       0x20 sound/songs/midi/se_music_plant_notes_8.o
 .text          0x0000000000000000        0x0 sound/songs/midi/se_music_plant_glockenspiel_1.o
 .data          0x0000000000000000        0x0 sound/songs/midi/se_music_plant_glockenspiel_1.o
 .bss           0x0000000000000000        0x0 sound/songs/midi/se_music_plant_glockenspiel_1.o
 .ARM.attributes
                0x0000000000000000       0x20 sound/songs/midi/se_music_plant_glockenspiel_1.o
 .text          0x0000000000000000        0x0 sound/songs/midi/se_music_plant_glockenspiel_2.o
 .data          0x0000000000000000        0x0 sound/songs/midi/se_music_plant_glockenspiel_2.o
 .bss           0x0000000000000000        0x0 sound/songs/midi/se_music_plant_glockenspiel_2.o
 .ARM.attributes
                0x0000000000000000       0x20 sound/songs/midi/se_music_plant_glockenspiel_2.o
 .text          0x0000000000000000        0x0 sound/songs/midi/se_music_plant_glockenspiel_3.o
 .data          0x0000000000000000        0x0 sound/songs/midi/se_music_plant_glockenspiel_3.o
 .bss           0x0000000000000000        0x0 sound/songs/midi/se_music_plant_glockenspiel_3.o
 .ARM.attributes
                0x0000000000000000       0x20 sound/songs/midi/se_music_plant_glockenspiel_3.o
 .text          0x0000000000000000        0x0 sound/songs/midi/se_music_plant_glockenspiel_4.o
 .data          0x0000000000000000        0x0 sound/songs/midi/se_music_plant_glockenspiel_4.o
 .bss           0x0000000000000000        0x0 sound/songs/midi/se_music_plant_glockenspiel_4.o
 .ARM.attributes
                0x0000000000000000       0x20 sound/songs/midi/se_music_plant_glockenspiel_4.o
 .text          0x0000000000000000        0x0 sound/songs/midi/se_music_plant_glockenspiel_5.o
 .data          0x0000000000000000        0x0 sound/songs/midi/se_music_plant_glockenspiel_5.o
 .bss           0x0000000000000000        0x0 sound/songs/midi/se_music_plant_glockenspiel_5.o
 .ARM.attributes
                0x0000000000000000       0x20 sound/songs/midi/se_music_plant_glockenspiel_5.o
 .text          0x0000000000000000        0x0 sound/songs/midi/se_music_plant_glockenspiel_6.o
 .data          0x0000000000000000        0x0 sound/songs/midi/se_music_plant_glockenspiel_6.o
 .bss           0x0000000000000000        0x0 sound/songs/midi/se_music_plant_glockenspiel_6.o
 .ARM.attributes
                0x0000000000000000       0x20 sound/songs/midi/se_music_plant_glockenspiel_6.o
 .text          0x0000000000000000        0x0 sound/songs/midi/se_music_plant_enter_horn.o
 .data          0x0000000000000000        0x0 sound/songs/midi/se_music_plant_enter_horn.o
 .bss           0x0000000000000000        0x0 sound/songs/midi/se_music_plant_enter_horn.o
 .ARM.attributes
                0x0000000000000000       0x20 sound/songs/midi/se_music_plant_enter_horn.o
 .text          0x0000000000000000        0x0 sound/songs/midi/se_music_plant_exit_horn.o
 .data          0x0000000000000000        0x0 sound/songs/midi/se_music_plant_exit_horn.o
 .bss           0x0000000000000000        0x0 sound/songs/midi/se_music_plant_exit_horn.o
 .ARM.attributes
                0x0000000000000000       0x20 sound/songs/midi/se_music_plant_exit_horn.o
 .text          0x0000000000000000        0x0 sound/songs/midi/se_music_plant_enter_horn2.o
 .data          0x0000000000000000        0x0 sound/songs/midi/se_music_plant_enter_horn2.o
 .bss           0x0000000000000000        0x0 sound/songs/midi/se_music_plant_enter_horn2.o
 .ARM.attributes
                0x0000000000000000       0x20 sound/songs/midi/se_music_plant_enter_horn2.o
 .text          0x0000000000000000        0x0 sound/songs/midi/se_music_plant_exit_horn2.o
 .data          0x0000000000000000        0x0 sound/songs/midi/se_music_plant_exit_horn2.o
 .bss           0x0000000000000000        0x0 sound/songs/midi/se_music_plant_exit_horn2.o
 .ARM.attributes
                0x0000000000000000       0x20 sound/songs/midi/se_music_plant_exit_horn2.o
 .text          0x0000000000000000        0x0 sound/songs/midi/se_music_plant_horn3.o
 .data          0x0000000000000000        0x0 sound/songs/midi/se_music_plant_horn3.o
 .bss           0x0000000000000000        0x0 sound/songs/midi/se_music_plant_horn3.o
 .ARM.attributes
                0x0000000000000000       0x20 sound/songs/midi/se_music_plant_horn3.o
 .text          0x0000000000000000        0x0 sound/songs/midi/se_music_plant_bouncy_chain.o
 .data          0x0000000000000000        0x0 sound/songs/midi/se_music_plant_bouncy_chain.o
 .bss           0x0000000000000000        0x0 sound/songs/midi/se_music_plant_bouncy_chain.o
 .ARM.attributes
                0x0000000000000000       0x20 sound/songs/midi/se_music_plant_bouncy_chain.o
 .text          0x0000000000000000        0x0 sound/songs/midi/se_music_plant_piano.o
 .data          0x0000000000000000        0x0 sound/songs/midi/se_music_plant_piano.o
 .bss           0x0000000000000000        0x0 sound/songs/midi/se_music_plant_piano.o
 .ARM.attributes
                0x0000000000000000       0x20 sound/songs/midi/se_music_plant_piano.o
 .text          0x0000000000000000        0x0 sound/songs/midi/se_music_plant_flute_1.o
 .data          0x0000000000000000        0x0 sound/songs/midi/se_music_plant_flute_1.o
 .bss           0x0000000000000000        0x0 sound/songs/midi/se_music_plant_flute_1.o
 .ARM.attributes
                0x0000000000000000       0x20 sound/songs/midi/se_music_plant_flute_1.o
 .text          0x0000000000000000        0x0 sound/songs/midi/se_music_plant_flute_2.o
 .data          0x0000000000000000        0x0 sound/songs/midi/se_music_plant_flute_2.o
 .bss           0x0000000000000000        0x0 sound/songs/midi/se_music_plant_flute_2.o
 .ARM.attributes
                0x0000000000000000       0x20 sound/songs/midi/se_music_plant_flute_2.o
 .text          0x0000000000000000        0x0 sound/songs/midi/se_music_plant_flute_3.o
 .data          0x0000000000000000        0x0 sound/songs/midi/se_music_plant_flute_3.o
 .bss           0x0000000000000000        0x0 sound/songs/midi/se_music_plant_flute_3.o
 .ARM.attributes
                0x0000000000000000       0x20 sound/songs/midi/se_music_plant_flute_3.o
 .text          0x0000000000000000        0x0 sound/songs/midi/se_music_plant_flute_4.o
 .data          0x0000000000000000        0x0 sound/songs/midi/se_music_plant_flute_4.o
 .bss           0x0000000000000000        0x0 sound/songs/midi/se_music_plant_flute_4.o
 .ARM.attributes
                0x0000000000000000       0x20 sound/songs/midi/se_music_plant_flute_4.o
 .text          0x0000000000000000        0x0 sound/songs/midi/se_331.o
 .data          0x0000000000000000        0x0 sound/songs/midi/se_331.o
 .bss           0x0000000000000000        0x0 sound/songs/midi/se_331.o
 .ARM.attributes
                0x0000000000000000       0x20 sound/songs/midi/se_331.o
 .text          0x0000000000000000        0x0 sound/songs/midi/se_332.o
 .data          0x0000000000000000        0x0 sound/songs/midi/se_332.o
 .bss           0x0000000000000000        0x0 sound/songs/midi/se_332.o
 .ARM.attributes
                0x0000000000000000       0x20 sound/songs/midi/se_332.o
 .text          0x0000000000000000        0x0 sound/songs/midi/se_333.o
 .data          0x0000000000000000        0x0 sound/songs/midi/se_333.o
 .bss           0x0000000000000000        0x0 sound/songs/midi/se_333.o
 .ARM.attributes
                0x0000000000000000       0x20 sound/songs/midi/se_333.o
 .text          0x0000000000000000        0x0 sound/songs/midi/mus_act_clear.o
 .data          0x0000000000000000        0x0 sound/songs/midi/mus_act_clear.o
 .bss           0x0000000000000000        0x0 sound/songs/midi/mus_act_clear.o
 .ARM.attributes
                0x0000000000000000       0x20 sound/songs/midi/mus_act_clear.o
 .text          0x0000000000000000        0x0 sound/songs/midi/mus_boss_clear.o
 .data          0x0000000000000000        0x0 sound/songs/midi/mus_boss_clear.o
 .bss           0x0000000000000000        0x0 sound/songs/midi/mus_boss_clear.o
 .ARM.attributes
                0x0000000000000000       0x20 sound/songs/midi/mus_boss_clear.o
 .text          0x0000000000000000        0x0 sound/songs/midi/mus_final_clear.o
 .data          0x0000000000000000        0x0 sound/songs/midi/mus_final_clear.o
 .bss           0x0000000000000000        0x0 sound/songs/midi/mus_final_clear.o
 .ARM.attributes
                0x0000000000000000       0x20 sound/songs/midi/mus_final_clear.o
 .text          0x0000000000000000        0x0 sound/songs/midi/mus_extra_clear.o
 .data          0x0000000000000000        0x0 sound/songs/midi/mus_extra_clear.o
 .bss           0x0000000000000000        0x0 sound/songs/midi/mus_extra_clear.o
 .ARM.attributes
                0x0000000000000000       0x20 sound/songs/midi/mus_extra_clear.o
 .text          0x0000000000000000        0x0 sound/songs/midi/mus_time_attack_2.o
 .data          0x0000000000000000        0x0 sound/songs/midi/mus_time_attack_2.o
 .bss           0x0000000000000000        0x0 sound/songs/midi/mus_time_attack_2.o
 .ARM.attributes
                0x0000000000000000       0x20 sound/songs/midi/mus_time_attack_2.o
 .text          0x0000000000000000        0x0 sound/songs/midi/mus_time_attack_3.o
 .data          0x0000000000000000        0x0 sound/songs/midi/mus_time_attack_3.o
 .bss           0x0000000000000000        0x0 sound/songs/midi/mus_time_attack_3.o
 .ARM.attributes
                0x0000000000000000       0x20 sound/songs/midi/mus_time_attack_3.o
 .text          0x0000000000000000        0x0 sound/songs/midi/mus_1_up.o
 .data          0x0000000000000000        0x0 sound/songs/midi/mus_1_up.o
 .bss           0x0000000000000000        0x0 sound/songs/midi/mus_1_up.o
 .ARM.attributes
                0x0000000000000000       0x20 sound/songs/midi/mus_1_up.o
 .text          0x0000000000000000        0x0 sound/songs/midi/mus_message_2.o
 .data          0x0000000000000000        0x0 sound/songs/midi/mus_message_2.o
 .bss           0x0000000000000000        0x0 sound/songs/midi/mus_message_2.o
 .ARM.attributes
                0x0000000000000000       0x20 sound/songs/midi/mus_message_2.o
 .text          0x0000000000000000        0x0 sound/songs/midi/mus_got_all_chaos_emeralds.o
 .data          0x0000000000000000        0x0 sound/songs/midi/mus_got_all_chaos_emeralds.o
 .bss           0x0000000000000000        0x0 sound/songs/midi/mus_got_all_chaos_emeralds.o
 .ARM.attributes
                0x0000000000000000       0x20 sound/songs/midi/mus_got_all_chaos_emeralds.o
 .text          0x0000000000000000        0x0 sound/songs/midi/mus_fanfare.o
 .data          0x0000000000000000        0x0 sound/songs/midi/mus_fanfare.o
 .bss           0x0000000000000000        0x0 sound/songs/midi/mus_fanfare.o
 .ARM.attributes
                0x0000000000000000       0x20 sound/songs/midi/mus_fanfare.o
 .text          0x0000000000000000        0x0 sound/songs/midi/mus_vs_exit.o
 .data          0x0000000000000000        0x0 sound/songs/midi/mus_vs_exit.o
 .bss           0x0000000000000000        0x0 sound/songs/midi/mus_vs_exit.o
 .ARM.attributes
                0x0000000000000000       0x20 sound/songs/midi/mus_vs_exit.o
 .text          0x0000000000000000        0x0 sound/songs/midi/mus_vs_success.o
 .data          0x0000000000000000        0x0 sound/songs/midi/mus_vs_success.o
 .bss           0x0000000000000000        0x0 sound/songs/midi/mus_vs_success.o
 .ARM.attributes
                0x0000000000000000       0x20 sound/songs/midi/mus_vs_success.o
 .text          0x0000000000000000        0x0 sound/songs/midi/mus_vs_miss.o
 .data          0x0000000000000000        0x0 sound/songs/midi/mus_vs_miss.o
 .bss           0x0000000000000000        0x0 sound/songs/midi/mus_vs_miss.o
 .ARM.attributes
                0x0000000000000000       0x20 sound/songs/midi/mus_vs_miss.o
 .text          0x0000000000000000        0x0 sound/songs/midi/mus_message.o
 .data          0x0000000000000000        0x0 sound/songs/midi/mus_message.o
 .bss           0x0000000000000000        0x0 sound/songs/midi/mus_message.o
 .ARM.attributes
                0x0000000000000000       0x20 sound/songs/midi/mus_message.o
 .text          0x0000000000000000        0x0 sound/songs/midi/mus_504.o
 .data          0x0000000000000000        0x0 sound/songs/midi/mus_504.o
 .bss           0x0000000000000000        0x0 sound/songs/midi/mus_504.o
 .ARM.attributes
                0x0000000000000000       0x20 sound/songs/midi/mus_504.o
 .text          0x0000000000000000        0x0 sound/songs/midi/mus_505.o
 .data          0x0000000000000000        0x0 sound/songs/midi/mus_505.o
 .bss           0x0000000000000000        0x0 sound/songs/midi/mus_505.o
 .ARM.attributes
                0x0000000000000000       0x20 sound/songs/midi/mus_505.o
 .text          0x0000000000000000        0x0 sound/songs/midi/mus_506.o
 .data          0x0000000000000000        0x0 sound/songs/midi/mus_506.o
 .bss           0x0000000000000000        0x0 sound/songs/midi/mus_506.o
 .ARM.attributes
                0x0000000000000000       0x20 sound/songs/midi/mus_506.o
 .text          0x0000000000000000        0x0 data/special_stage_levels.o
 .data          0x0000000000000000        0x0 data/special_stage_levels.o
 .bss           0x0000000000000000        0x0 data/special_stage_levels.o
 .ARM.attributes
                0x0000000000000000       0x20 data/special_stage_levels.o
 .text          0x0000000000000000        0x0 src/data/handlers_ia_pipe_horn_sequences.o
 .data          0x0000000000000000        0x0 src/data/handlers_ia_pipe_horn_sequences.o
 .bss           0x0000000000000000        0x0 src/data/handlers_ia_pipe_horn_sequences.o
 .ARM.attributes
                0x0000000000000000       0x20 src/data/handlers_ia_pipe_horn_sequences.o
 .text          0x0000000000000000        0x0 src/data/palettes.o
 .data          0x0000000000000000        0x0 src/data/palettes.o
 .bss           0x0000000000000000        0x0 src/data/palettes.o
 .ARM.attributes
                0x0000000000000000       0x20 src/data/palettes.o
 .text          0x0000000000000000        0x0 src/data/recordings.o
 .data          0x0000000000000000        0x0 src/data/recordings.o
 .bss           0x0000000000000000        0x0 src/data/recordings.o
 .ARM.attributes
                0x0000000000000000       0x20 src/data/recordings.o
 .text          0x0000000000000000        0x0 data/multiboot_collect_rings.o
 .data          0x0000000000000000        0x0 data/multiboot_collect_rings.o
 .bss           0x0000000000000000        0x0 data/multiboot_collect_rings.o
 .ARM.attributes
                0x0000000000000000       0x20 data/multiboot_collect_rings.o
 .text          0x0000000000000000        0x0 data/multiboot_subgame_loader.o
 .data          0x0000000000000000        0x0 data/multiboot_subgame_loader.o
 .bss           0x0000000000000000        0x0 data/multiboot_subgame_loader.o
 .ARM.attributes
                0x0000000000000000       0x20 data/multiboot_subgame_loader.o
 .text          0x0000000000000000        0x0 data/build_info.o
 .data          0x0000000000000000        0x0 data/build_info.o
 .bss           0x0000000000000000        0x0 data/build_info.o
 .ARM.attributes
                0x0000000000000000       0x20 data/build_info.o
 .text          0x0000000000000000        0x0 src/game/stage/backgrounds.o
 .data          0x0000000000000000        0x0 src/game/stage/backgrounds.o
 .bss           0x0000000000000000        0x0 src/game/stage/backgrounds.o
 .ARM.attributes
                0x0000000000000000       0x20 src/game/stage/backgrounds.o
 .text          0x0000000000000000        0x0 src/game/decomp_credits.o
 .data          0x0000000000000000        0x0 src/game/decomp_credits.o
 .bss           0x0000000000000000        0x0 src/game/decomp_credits.o
 .ARM.attributes
                0x0000000000000000       0x20 src/game/decomp_credits.o
 .text          0x0000000000000000        0x0 src/data/sprite_animation.o
 .data          0x0000000000000000        0x0 src/data/sprite_animation.o
 .bss           0x0000000000000000        0x0 src/data/sprite_animation.o
 .ARM.attributes
                0x0000000000000000       0x20 src/data/sprite_animation.o
 .data          0x0000000000000000        0x0 /home/runner/work/sa2/sa2/tools/agbcc/lib/libgcc.a(_ashrdi3.o)
 .bss           0x0000000000000000        0x0 /home/runner/work/sa2/sa2/tools/agbcc/lib/libgcc.a(_ashrdi3.o)
 .ARM.attributes
                0x0000000000000000       0x20 /home/runner/work/sa2/sa2/tools/agbcc/lib/libgcc.a(_ashrdi3.o)
 .data          0x0000000000000000        0x0 /home/runner/work/sa2/sa2/tools/agbcc/lib/libgcc.a(_call_via_rX.o)
 .bss           0x0000000000000000        0x0 /home/runner/work/sa2/sa2/tools/agbcc/lib/libgcc.a(_call_via_rX.o)
 .ARM.attributes
                0x0000000000000000       0x20 /home/runner/work/sa2/sa2/tools/agbcc/lib/libgcc.a(_call_via_rX.o)
 .data          0x0000000000000000        0x0 /home/runner/work/sa2/sa2/tools/agbcc/lib/libgcc.a(_divdi3.o)
 .bss           0x0000000000000000        0x0 /home/runner/work/sa2/sa2/tools/agbcc/lib/libgcc.a(_divdi3.o)
 .ARM.attributes
                0x0000000000000000       0x20 /home/runner/work/sa2/sa2/tools/agbcc/lib/libgcc.a(_divdi3.o)
 .data          0x0000000000000000        0x0 /home/runner/work/sa2/sa2/tools/agbcc/lib/libgcc.a(_divsi3.o)
 .bss           0x0000000000000000        0x0 /home/runner/work/sa2/sa2/tools/agbcc/lib/libgcc.a(_divsi3.o)
 .ARM.attributes
                0x0000000000000000       0x20 /home/runner/work/sa2/sa2/tools/agbcc/lib/libgcc.a(_divsi3.o)
 .data          0x0000000000000000        0x0 /home/runner/work/sa2/sa2/tools/agbcc/lib/libgcc.a(_dvmd_tls.o)
 .bss           0x0000000000000000        0x0 /home/runner/work/sa2/sa2/tools/agbcc/lib/libgcc.a(_dvmd_tls.o)
 .ARM.attributes
                0x0000000000000000       0x20 /home/runner/work/sa2/sa2/tools/agbcc/lib/libgcc.a(_dvmd_tls.o)
 .data          0x0000000000000000        0x0 /home/runner/work/sa2/sa2/tools/agbcc/lib/libgcc.a(_modsi3.o)
 .bss           0x0000000000000000        0x0 /home/runner/work/sa2/sa2/tools/agbcc/lib/libgcc.a(_modsi3.o)
 .ARM.attributes
                0x0000000000000000       0x20 /home/runner/work/sa2/sa2/tools/agbcc/lib/libgcc.a(_modsi3.o)
 .data          0x0000000000000000        0x0 /home/runner/work/sa2/sa2/tools/agbcc/lib/libgcc.a(_muldi3.o)
 .bss           0x0000000000000000        0x0 /home/runner/work/sa2/sa2/tools/agbcc/lib/libgcc.a(_muldi3.o)
 .ARM.attributes
                0x0000000000000000       0x20 /home/runner/work/sa2/sa2/tools/agbcc/lib/libgcc.a(_muldi3.o)
 .data          0x0000000000000000        0x0 /home/runner/work/sa2/sa2/tools/agbcc/lib/libgcc.a(_negdi2.o)
 .bss           0x0000000000000000        0x0 /home/runner/work/sa2/sa2/tools/agbcc/lib/libgcc.a(_negdi2.o)
 .ARM.attributes
                0x0000000000000000       0x20 /home/runner/work/sa2/sa2/tools/agbcc/lib/libgcc.a(_negdi2.o)
 .data          0x0000000000000000        0x0 /home/runner/work/sa2/sa2/tools/agbcc/lib/libgcc.a(_udivsi3.o)
 .bss           0x0000000000000000        0x0 /home/runner/work/sa2/sa2/tools/agbcc/lib/libgcc.a(_udivsi3.o)
 .ARM.attributes
                0x0000000000000000       0x20 /home/runner/work/sa2/sa2/tools/agbcc/lib/libgcc.a(_udivsi3.o)
 .data          0x0000000000000000        0x0 /home/runner/work/sa2/sa2/tools/agbcc/lib/libgcc.a(_umodsi3.o)
 .bss           0x0000000000000000        0x0 /home/runner/work/sa2/sa2/tools/agbcc/lib/libgcc.a(_umodsi3.o)
 .ARM.attributes
                0x0000000000000000       0x20 /home/runner/work/sa2/sa2/tools/agbcc/lib/libgcc.a(_umodsi3.o)
 .data          0x0000000000000000        0x0 /home/runner/work/sa2/sa2/tools/agbcc/lib/libc.a(memset.o)
 .bss           0x0000000000000000        0x0 /home/runner/work/sa2/sa2/tools/agbcc/lib/libc.a(memset.o)
 .ARM.attributes
                0x0000000000000000       0x20 /home/runner/work/sa2/sa2/tools/agbcc/lib/libc.a(memset.o)
 .data          0x0000000000000000        0x0 /home/runner/work/sa2/sa2/tools/agbcc/lib/libc.a(memcpy.o)
 .bss           0x0000000000000000        0x0 /home/runner/work/sa2/sa2/tools/agbcc/lib/libc.a(memcpy.o)
 .ARM.attributes
                0x0000000000000000       0x20 /home/runner/work/sa2/sa2/tools/agbcc/lib/libc.a(memcpy.o)
 .data          0x0000000000000000        0x0 /home/runner/work/sa2/sa2/libagbsyscall/libagbsyscall.a(Sqrt.o)
 .bss           0x0000000000000000        0x0 /home/runner/work/sa2/sa2/libagbsyscall/libagbsyscall.a(Sqrt.o)
 .ARM.attributes
                0x0000000000000000       0x20 /home/runner/work/sa2/sa2/libagbsyscall/libagbsyscall.a(Sqrt.o)
 .data          0x0000000000000000        0x0 /home/runner/work/sa2/sa2/libagbsyscall/libagbsyscall.a(Mod.o)
 .bss           0x0000000000000000        0x0 /home/runner/work/sa2/sa2/libagbsyscall/libagbsyscall.a(Mod.o)
 .ARM.attributes
                0x0000000000000000       0x20 /home/runner/work/sa2/sa2/libagbsyscall/libagbsyscall.a(Mod.o)
 .data          0x0000000000000000        0x0 /home/runner/work/sa2/sa2/libagbsyscall/libagbsyscall.a(VBlankIntrWait.o)
 .bss           0x0000000000000000        0x0 /home/runner/work/sa2/sa2/libagbsyscall/libagbsyscall.a(VBlankIntrWait.o)
 .ARM.attributes
                0x0000000000000000       0x20 /home/runner/work/sa2/sa2/libagbsyscall/libagbsyscall.a(VBlankIntrWait.o)
 .data          0x0000000000000000        0x0 /home/runner/work/sa2/sa2/libagbsyscall/libagbsyscall.a(SoftResetExram.o)
 .bss           0x0000000000000000        0x0 /home/runner/work/sa2/sa2/libagbsyscall/libagbsyscall.a(SoftResetExram.o)
 .ARM.attributes
                0x0000000000000000       0x20 /home/runner/work/sa2/sa2/libagbsyscall/libagbsyscall.a(SoftResetExram.o)
 .data          0x0000000000000000        0x0 /home/runner/work/sa2/sa2/libagbsyscall/libagbsyscall.a(LZ77UnCompWram.o)
 .bss           0x0000000000000000        0x0 /home/runner/work/sa2/sa2/libagbsyscall/libagbsyscall.a(LZ77UnCompWram.o)
 .ARM.attributes
                0x0000000000000000       0x20 /home/runner/work/sa2/sa2/libagbsyscall/libagbsyscall.a(LZ77UnCompWram.o)
 .data          0x0000000000000000        0x0 /home/runner/work/sa2/sa2/libagbsyscall/libagbsyscall.a(ArcTan2.o)
 .bss           0x0000000000000000        0x0 /home/runner/work/sa2/sa2/libagbsyscall/libagbsyscall.a(ArcTan2.o)
 .ARM.attributes
                0x0000000000000000       0x20 /home/runner/work/sa2/sa2/libagbsyscall/libagbsyscall.a(ArcTan2.o)
 .data          0x0000000000000000        0x0 /home/runner/work/sa2/sa2/libagbsyscall/libagbsyscall.a(MultiBoot.o)
 .bss           0x0000000000000000        0x0 /home/runner/work/sa2/sa2/libagbsyscall/libagbsyscall.a(MultiBoot.o)
 .ARM.attributes
                0x0000000000000000       0x20 /home/runner/work/sa2/sa2/libagbsyscall/libagbsyscall.a(MultiBoot.o)
 .data          0x0000000000000000        0x0 /home/runner/work/sa2/sa2/libagbsyscall/libagbsyscall.a(Div.o)
 .bss           0x0000000000000000        0x0 /home/runner/work/sa2/sa2/libagbsyscall/libagbsyscall.a(Div.o)
 .ARM.attributes
                0x0000000000000000       0x20 /home/runner/work/sa2/sa2/libagbsyscall/libagbsyscall.a(Div.o)
 .data          0x0000000000000000        0x0 /home/runner/work/sa2/sa2/libagbsyscall/libagbsyscall.a(RLUnCompWram.o)
 .bss           0x0000000000000000        0x0 /home/runner/work/sa2/sa2/libagbsyscall/libagbsyscall.a(RLUnCompWram.o)
 .ARM.attributes
                0x0000000000000000       0x20 /home/runner/work/sa2/sa2/libagbsyscall/libagbsyscall.a(RLUnCompWram.o)
 .data          0x0000000000000000        0x0 /home/runner/work/sa2/sa2/libagbsyscall/libagbsyscall.a(CpuFastSet.o)
 .bss           0x0000000000000000        0x0 /home/runner/work/sa2/sa2/libagbsyscall/libagbsyscall.a(CpuFastSet.o)
 .ARM.attributes
                0x0000000000000000       0x20 /home/runner/work/sa2/sa2/libagbsyscall/libagbsyscall.a(CpuFastSet.o)
 .data          0x0000000000000000        0x0 /home/runner/work/sa2/sa2/libagbsyscall/libagbsyscall.a(CpuSet.o)
 .bss           0x0000000000000000        0x0 /home/runner/work/sa2/sa2/libagbsyscall/libagbsyscall.a(CpuSet.o)
 .ARM.attributes
                0x0000000000000000       0x20 /home/runner/work/sa2/sa2/libagbsyscall/libagbsyscall.a(CpuSet.o)
 .data          0x0000000000000000        0x0 /home/runner/work/sa2/sa2/libagbsyscall/libagbsyscall.a(SoftReset.o)
 .bss           0x0000000000000000        0x0 /home/runner/work/sa2/sa2/libagbsyscall/libagbsyscall.a(SoftReset.o)
 .ARM.attributes
                0x0000000000000000       0x20 /home/runner/work/sa2/sa2/libagbsyscall/libagbsyscall.a(SoftReset.o)

Memory Configuration

Name             Origin             Length             Attributes
*default*        0x0000000000000000 0xffffffffffffffff

Linker script and memory map

                0x0000000000000004                gNumMusicPlayers = 0x4
                0x0000000000000000                gMaxLines = 0x0
                0x0000000002000000                . = 0x2000000

EWRAM           0x0000000002000000    0x226d0
 data/sound_data.o(ewram_data)
 src/lib/m4a/m4a.o(ewram_data)
 ewram_data     0x0000000002000000     0x2650 src/lib/m4a/m4a.o
                0x0000000002000000                gMPlayTrack_BGM
                0x0000000002000500                gMPlayTrack_SE1
                0x0000000002000a00                gMPlayTrack_SE2
                0x0000000002000f00                gMPlayTrack_SE3
                0x0000000002001400                gSoundInfo
                0x00000000020023b0                gMPlayJumpTable
                0x0000000002002440                gCgbChans
                0x0000000002002540                gMPlayInfo_BGM
                0x0000000002002580                gMPlayInfo_SE1
                0x00000000020025c0                gMPlayInfo_SE2
                0x0000000002002600                gMPlayMemAccArea
                0x0000000002002610                gMPlayInfo_SE3
 src/malloc_ewram.o(ewram_data)
 ewram_data     0x0000000002002650    0x20080 src/malloc_ewram.o
                0x0000000002002650                gEwramHeap
                0x00000000020226d0                ewram_end = .
                0x0000000003000000                . = 0x3000000

IWRAM           0x0000000003000000     0x5bb4
 src/lib/m4a/m4a.o(.bss.code)
 .bss.code      0x0000000003000000      0x400 src/lib/m4a/m4a.o
                0x0000000003000000                SoundMainRAM_Buffer
 src/multi_boot.o(.bss)
 .bss           0x0000000003000400        0x6 src/multi_boot.o
                0x0000000000000408                . = 0x408
 *fill*         0x0000000003000406        0x2 
 src/game/stage/background/zone_3.o(.data)
 .data          0x0000000003000408        0x2 src/game/stage/background/zone_3.o
 src/game/stage/background/zone_3.o(.bss)
 .bss           0x000000000300040a        0x0 src/game/stage/background/zone_3.o
 src/game/stage/background/zone_4.o(.data)
 .data          0x000000000300040a        0x2 src/game/stage/background/zone_4.o
 src/game/stage/background/zone_4.o(.bss)
 .bss           0x000000000300040c        0x0 src/game/stage/background/zone_4.o
                0x0000000000000410                . = 0x410
 *fill*         0x000000000300040c        0x4 
 src/game/stage/collision.o(.bss)
 .bss           0x0000000003000410       0x1c src/game/stage/collision.o
 src/lib/agb_flash/agb_flash.o(.bss)
 .bss           0x000000000300042c        0xa src/lib/agb_flash/agb_flash.o
                0x0000000003000440                . = ALIGN (0x10)
 *fill*         0x0000000003000436        0xa 
 src/multi_sio.o(.data)
 .data          0x0000000003000440      0x350 src/multi_sio.o
                0x0000000003000440                gMultiSioIntrFuncBuf
                0x0000000003000560                gMultiSioArea
                0x0000000003000748                gUnusedMultiSioSpace
                0x0000000003000750                gMultiSioRecvFuncBuf
 src/sio32_multi_load.o(COMMON)
 COMMON         0x0000000003000790       0x18 src/sio32_multi_load.o
                0x0000000003000790                gSio32MultiLoadArea
 src/core.o(.data)
 *fill*         0x00000000030007a8        0x8 
 .data          0x00000000030007b0     0x4c0c src/core.o
                0x00000000030007b0                gIntrTable
                0x00000000030007f0                gIntrMainBuf
                0x00000000030009f0                gTasks
                0x00000000030017f0                gUnknown_030017F0
                0x00000000030017f4                gUnknown_030017F4
                0x0000000003001800                gBackgroundsCopyQueue
                0x0000000003001840                gFlags
                0x0000000003001850                gUnknown_03001850
                0x0000000003001870                gVBlankCallbacks
                0x0000000003001880                gPhysicalInput
                0x0000000003001884                gBgOffsetsHBlank
                0x0000000003001888                gVramHeapMaxTileSlots
                0x000000000300188c                gNumHBlankCallbacks
                0x0000000003001890                gMultiSioRecv
                0x00000000030018e0                gNumHBlankIntrs
                0x00000000030018e8                gBldRegs
                0x00000000030018f0                gOamFreeIndex
                0x0000000003001900                gEmptyTask
                0x0000000003001920                gBgAffineRegs
                0x0000000003001940                gVramHeapStartAddr
                0x0000000003001944                gUnknown_03001944
                0x0000000003001948                gNumVBlankIntrs
                0x000000000300194c                gUnknown_0300194C
                0x0000000003001950                gMultiSioStatusFlags
                0x0000000003001954                gMultiSioEnabled
                0x0000000003001960                gTaskPtrs
                0x0000000003001b60                gBgOffsetsBuffer
                0x0000000003002060                gObjPalette
                0x0000000003002260                gTilemapsRef
                0x0000000003002264                gFrameCount
                0x0000000003002270                gWinRegs
                0x000000000300227c                gNumTasks
                0x0000000003002280                gUnknown_03002280
                0x0000000003002290                gInput
                0x00000000030022a0                gRepeatedKeysTestCounter
                0x00000000030022ac                gUnknown_030022AC
                0x00000000030022b0                gBgCntRegs
                0x00000000030022b8                gRepeatedKeys
                0x00000000030022bc                gNextTask
                0x00000000030022c0                gUnknown_030022C0
                0x00000000030022d0                gOamBuffer2
                0x00000000030026d0                gMosaicReg
                0x00000000030026e0                gHBlankCallbacks
                0x00000000030026f0                gCurTask
                0x00000000030026f4                sLastCalledVblankFuncId
                0x0000000003002700                gKeysFirstRepeatIntervals
                0x000000000300270c                gReleasedKeys
                0x0000000003002710                gUnknown_03002710
                0x0000000003002790                gFlagsPreVBlank
                0x0000000003002794                gRefSpriteTables
                0x00000000030027a0                gVramGraphicsCopyQueue
                0x0000000003002820                gUnknown_03002820
                0x0000000003002830                gBgScrollRegs
                0x0000000003002840                gDispCnt
                0x0000000003002850                gKeysContinuedRepeatIntervals
                0x0000000003002860                gMultiSioSend
                0x0000000003002874                gUnknown_03002874
                0x0000000003002878                gUnknown_03002878
                0x000000000300287c                gBackgroundsCopyQueueIndex
                0x0000000003002880                gBgPalette
                0x0000000003002a80                gUnknown_03002A80
                0x0000000003002a84                gVramGraphicsCopyQueueIndex
                0x0000000003002a88                gPrevInput
                0x0000000003002a8c                gUnknown_03002A8C
                0x0000000003002a90                gMultiBootParam
                0x0000000003002adc                gPressedKeys
                0x0000000003002ae0                gOamFirstPausedIndex
                0x0000000003002ae4                gBackgroundsCopyQueueCursor
                0x0000000003002af0                gHBlankIntrs
                0x0000000003002b00                gIwramHeap
                0x0000000003004d10                gUnknown_03004D10
                0x0000000003004d50                gNumVBlankCallbacks
                0x0000000003004d54                gUnknown_03004D54
                0x0000000003004d58                gUnknown_03004D58
                0x0000000003004d5c                gVramGraphicsCopyCursor
                0x0000000003004d60                gUnknown_03004D60
                0x0000000003004d80                gUnknown_03004D80
                0x0000000003004d90                gOamBuffer
                0x0000000003005190                gVramHeapState
                0x0000000003005390                gUnknown_03005390
                0x0000000003005394                gUnknown_03005394
                0x0000000003005398                gUnknown_03005398
                0x00000000030053a0                gVBlankIntrs
                0x00000000030053b0                gInputPlaybackData
                0x00000000030053b4                gExecSoundMain
                0x00000000030053b8                gPseudoRandom
 src/input_recorder.o(.data)
 *fill*         0x00000000030053bc        0x4 
 .data          0x00000000030053c0       0x10 src/input_recorder.o
                0x00000000030053c0                gInputRecorder
                0x00000000030053cc                gInputRecorderTapeBuffer
                0x00000000030053e0                . = ALIGN (0x20)
 *fill*         0x00000000030053d0       0x10 
 src/game/sa1_sa2_shared/globals.o(.data)
 .data          0x00000000030053e0      0x280 src/game/sa1_sa2_shared/globals.o
                0x00000000030053e0                gUnknown_030053E0
                0x00000000030053e4                gCheckpointTime
                0x00000000030053e8                gMultiplayerCharRings
                0x00000000030053ec                gMultiplayerLanguage
                0x00000000030053f0                gRingCount
                0x00000000030053f4                unused53F4
                0x000000000300540c                gActiveCollectRingEffectCount
                0x0000000003005410                gMultiplayerIds
                0x0000000003005420                gRoomEventQueueSendPos
                0x0000000003005424                gStageFlags
                0x0000000003005428                gMPRingCollectWins
                0x000000000300542c                gBossRingsRespawnCount
                0x0000000003005430                gBossRingsShallRespawn
                0x0000000003005434                gMultiplayerPseudoRandom
                0x0000000003005438                gRoomEventQueueWritePos
                0x000000000300543c                gUnknown_0300543C
                0x0000000003005440                gBossCameraClampYLower
                0x0000000003005444                gTrappedAnimalVariant
                0x0000000003005448                gNumLives
                0x000000000300544c                gUnknown_0300544C
                0x0000000003005450                gLevelScore
                0x0000000003005460                gMultiplayerNames
                0x0000000003005490                gCourseTime
                0x0000000003005498                gCheeseTarget
                0x00000000030054a0                gMPStageStartFrameCount
                0x00000000030054a8                gMusicManagerState
                0x00000000030054b0                gUnknown_030054B0
                0x00000000030054b4                gUnknown_030054B4
                0x00000000030054b8                gUnknown_030054B8
                0x00000000030054bc                gBossCameraClampYUpper
                0x00000000030054c0                gHomingTarget
                0x00000000030054c8                gDemoPlayCounter
                0x00000000030054cc                gGameMode
                0x00000000030054d0                gStageGoalX
                0x00000000030054d4                gMultiplayerMissingHeartbeats
                0x00000000030054d8                gMultiplayerUnlockedLevels
                0x00000000030054dc                gEntitiesManagerTask
                0x00000000030054e0                gUnknown_030054E0
                0x00000000030054e4                gDestroySpotlights
                0x00000000030054e8                gRandomItemBox
                0x00000000030054ec                gDifficultyLevel
                0x00000000030054f0                gSelectedCharacter
                0x00000000030054f4                gSpecialRingCount
                0x00000000030054f8                gNumSingleplayerCharacters
                0x00000000030054fc                gUnknown_030054FC
                0x0000000003005500                gMultiplayerCharacters
                0x0000000003005510                gRoomEventQueue
                0x0000000003005590                gStageTime
                0x0000000003005594                gMultiplayerUnlockedCharacters
                0x00000000030055a0                gMultiplayerPlayerTasks
                0x00000000030055b0                gBossIndex
                0x00000000030055b4                gCurrentLevel
                0x00000000030055b8                gMultiplayerConnections
                0x00000000030055bc                gUnknown_030055BC
                0x00000000030055c0                unused_030055C0
                0x00000000030055d0                gUnknown_030055D0
                0x00000000030055d4                gNewInputCountersIndex
                0x00000000030055d8                gUnknown_030055D8
                0x00000000030055e0                gNewInputCounters
 src/game/water_effects.o(.data)
 .data          0x0000000003005660       0x44 src/game/water_effects.o
                0x0000000003005660                gWater
 src/game/cheese.o(.data)
 .data          0x00000000030056a4        0x4 src/game/cheese.o
                0x00000000030056a4                gCheese
 src/game/boost_effect.o(.data)
 *fill*         0x00000000030056a8        0x8 
 .data          0x00000000030056b0      0x185 src/game/boost_effect.o
 src/game/multiplayer/mp_player.o(.data)
 *fill*         0x0000000003005835        0x3 
 .data          0x0000000003005838        0x5 src/game/multiplayer/mp_player.o
                0x0000000003005838                unused_3005838
                0x000000000300583c                gShouldSpawnMPAttack2Effect
 src/game/multiplayer/mp_attack_2_effect.o(.data)
 *fill*         0x000000000300583d        0x3 
 .data          0x0000000003005840        0x4 src/game/multiplayer/mp_attack_2_effect.o
                0x0000000003005840                gMPAttackEffect2Regs
 src/game/dummy_task.o(.data)
 .data          0x0000000003005844        0x4 src/game/dummy_task.o
                0x0000000003005844                gDummyTask
 src/game/stage/stage.o(.data)
 .data          0x0000000003005848        0x4 src/game/stage/stage.o
                0x0000000003005848                gGameStageTask
 src/game/stage/camera.o(.data)
 *fill*         0x000000000300584c        0x4 
 .data          0x0000000003005850      0x17c src/game/stage/camera.o
                0x0000000003005850                gStageBackgroundsRam
                0x0000000003005950                unused_3005950
                0x0000000003005960                gCamera
                0x00000000030059c8                gRefCollision
 src/game/stage/dust_effect_braking.o(.data)
 *fill*         0x00000000030059cc        0x4 
 .data          0x00000000030059d0        0x8 src/game/stage/dust_effect_braking.o
                0x00000000030059d0                gDustEffectBrakingTask
 src/game/stage/rings_scatter.o(.data)
 .data          0x00000000030059d8        0x4 src/game/stage/rings_scatter.o
                0x00000000030059d8                gRingsScatterTask
 src/game/stage/player.o(.data)
 *fill*         0x00000000030059dc        0x4 
 .data          0x00000000030059e0      0x154 src/game/stage/player.o
                0x00000000030059e0                gPlayer
                0x0000000003005aa0                gPlayerLimbsPSI
                0x0000000003005af0                gPlayerBodyPSI
 src/game/stage/underwater_effects.o(.data)
 .data          0x0000000003005b34        0x1 src/game/stage/underwater_effects.o
                0x0000000003005b34                gSmallAirBubbleCount
 src/game/stage/player_controls.o(.data)
 *fill*         0x0000000003005b35        0x3 
 .data          0x0000000003005b38        0x8 src/game/stage/player_controls.o
                0x0000000003005b38                gPlayerControls
 src/game/stage/player_super_sonic.o(.data)
 .data          0x0000000003005b40        0x4 src/game/stage/player_super_sonic.o
                0x0000000003005b40                sSuperSonicTask
 src/game/stage/ui.o(.data)
 .data          0x0000000003005b44        0x4 src/game/stage/ui.o
                0x0000000003005b44                gStageUITask
 src/game/stage/debug_text_printer.o(.data)
 .data          0x0000000003005b48        0x4 src/game/stage/debug_text_printer.o
 src/game/bosses/common.o(.data)
 .data          0x0000000003005b4c        0x4 src/game/bosses/common.o
                0x0000000003005b4c                gActiveBossTask
 src/game/options_screen.o(.data)
 .data          0x0000000003005b50        0x8 src/game/options_screen.o
                0x0000000003005b50                gProfileScreenNextVramAddress
                0x0000000003005b54                gProfileScreenSubMenuNextVramAddress
 src/game/special_stage/utils.o(.data)
 .data          0x0000000003005b58        0x8 src/game/special_stage/utils.o
                0x0000000003005b58                gUnknown_03005B58
                0x0000000003005b5c                gUnknown_03005B5C
 src/game/save.o(.data)
 .data          0x0000000003005b60        0xc src/game/save.o
                0x0000000003005b60                gLastWrittenSaveGame
                0x0000000003005b64                gLoadedSaveGame
                0x0000000003005b68                gSaveSectorDataBuffer
 src/game/multiboot/collect_rings/time_display.o(.data)
 .data          0x0000000003005b6c        0x4 src/game/multiboot/collect_rings/time_display.o
                0x0000000003005b6c                gUnknown_03005B6C
 src/game/math.o(.data)
 .data          0x0000000003005b70        0x8 src/game/math.o
                0x0000000003005b70                gRngPrevValue
                0x0000000003005b74                gRngValue
 src/game/multiplayer/mp_attack_1_effect.o(.data)
 .data          0x0000000003005b78        0x5 src/game/multiplayer/mp_attack_1_effect.o
                0x0000000003005b78                gUnused_03005B78
                0x0000000003005b7c                gShouldSpawnMPAttackEffect
 src/game/bg_palette_effects.o(.data)
 *fill*         0x0000000003005b7d        0x3 
 .data          0x0000000003005b80        0x8 src/game/bg_palette_effects.o
                0x0000000003005b80                gBgPaletteEffects
                0x0000000003005b90                . = ALIGN (0x10)
 *fill*         0x0000000003005b88        0x8 
 src/lib/agb_flash/agb_flash.o(.data)
 .data          0x0000000003005b90       0x24 src/lib/agb_flash/agb_flash.o
                0x0000000003005b90                gFlashTimeoutFlag
                0x0000000003005b94                PollFlashStatus
                0x0000000003005b98                WaitForFlashWrite
                0x0000000003005b9c                ProgramFlashSector
                0x0000000003005ba0                gFlash
                0x0000000003005ba4                gFlashNumRemainingBytes
                0x0000000003005ba8                EraseFlashChip
                0x0000000003005bac                EraseFlashSector
                0x0000000003005bb0                gFlashMaxTime
                0x0000000003005bb4                iwram_end = .
                0x0000000008000000                . = 0x8000000

ROM             0x0000000008000000   0xcd6670
 src/rom_header.o(.text)
 .text          0x0000000008000000       0xc0 src/rom_header.o
                0x0000000008000004                RomHeaderNintendoLogo
 src/crt0.o(.text)
 .text          0x00000000080000c0      0x10c src/crt0.o
                0x00000000080000c0                start_vector
                0x00000000080000fc                IntrMain
 src/multi_sio_asm.o(.text)
 .text          0x00000000080001cc      0x160 src/multi_sio_asm.o
                0x00000000080001cc                MultiSioRecvBufChange
                0x000000000800020c                MultiSioIntr
 src/multi_sio.o(.text)
 .text          0x000000000800032c      0x4b4 src/multi_sio.o
                0x000000000800032c                MultiSioInit
                0x0000000008000420                MultiSioMain
                0x0000000008000538                MultiSioSendDataSet
                0x0000000008000608                MultiSioRecvDataCheck
                0x0000000008000774                MultiSioStart
                0x0000000008000790                MultiSioStop
 src/multi_boot.o(.text)
 .text          0x00000000080007e0      0x8dc src/multi_boot.o
                0x00000000080007e0                MultiBootMain
                0x0000000008000d74                MultiBootStartProbe
                0x0000000008000dc8                MultiBootStartMaster
                0x0000000008001024                MultiBootInit
                0x0000000008001060                MultiBootCheckComplete
 src/sio32_multi_load.o(.text)
 .text          0x00000000080010bc      0x348 src/sio32_multi_load.o
                0x00000000080010bc                Sio32MultiLoadMain
                0x00000000080012a0                Sio32MultiLoadIntr
                0x0000000008001368                Sio32MultiLoadInit
 src/core.o(.text)
 .text          0x0000000008001404     0x10ec src/core.o
                0x0000000008001404                EngineInit
                0x00000000080018bc                EngineMainLoop
                0x000000000800244c                DummyFunc
 src/main.o(.text)
 .text          0x00000000080024f0       0x14 src/main.o
                0x00000000080024f0                AgbMain
 src/task.o(.text)
 .text          0x0000000008002504      0x538 src/task.o
                0x0000000008002504                TasksInit
                0x00000000080025e4                TaskCreate
                0x0000000008002690                TaskDestroy
                0x0000000008002724                TasksExec
                0x00000000080027f8                IwramMalloc
                0x00000000080029d0                TasksDestroyInPriorityRange
 src/background.o(.text)
 .text          0x0000000008002a3c     0x19dc src/background.o
                0x0000000008002a3c                DrawBackground
                0x0000000008002b20                sub_8002B20
                0x0000000008003638                UpdateBgAnimationTiles
                0x00000000080036e0                sub_80036E0
                0x0000000008003914                sub_8003914
                0x00000000080039e4                sub_80039E4
                0x0000000008003ee4                sub_8003EE4
                0x0000000008004010                sub_8004010
                0x0000000008004274                RenderText
 src/sprite.o(.text)
 .text          0x0000000008004418     0x183c src/sprite.o
                0x0000000008004418                sub_8004418
                0x00000000080044d8                numToASCII
                0x0000000008004518                Base10DigitsToHexNibbles
                0x0000000008004558                UpdateSpriteAnimation
                0x00000000080047a0                sub_80047A0
                0x0000000008004860                TransformSprite
                0x0000000008004abc                UnusedTransform
                0x0000000008004e14                sub_8004E14
                0x00000000080051e8                DisplaySprite
                0x000000000800550c                DisplaySprites
                0x00000000080058b4                OamMalloc
                0x000000000800594c                CopyOamBufferToOam
 src/bg_triangles.o(.text)
 .text          0x0000000008005c54     0x1ed8 src/bg_triangles.o
                0x0000000008005c54                sub_8005C54
                0x0000000008005fb4                sub_8005FB4
                0x0000000008006228                sub_8006228
                0x00000000080064a8                sub_80064A8
                0x000000000800672c                sub_800672C
                0x0000000008006db4                sub_8006DB4
                0x000000000800724c                sub_800724C
                0x00000000080075d0                sub_80075D0
                0x0000000008007738                sub_8007738
                0x0000000008007858                sub_8007858
                0x00000000080078d4                sub_80078D4
                0x0000000008007958                sub_8007958
                0x0000000008007a08                sub_8007A08
                0x0000000008007ac0                sub_8007AC0
 src/malloc_ewram.o(.text)
 .text          0x0000000008007b2c       0xe4 src/malloc_ewram.o
                0x0000000008007b2c                EwramInitHeap
                0x0000000008007b40                EwramMalloc
                0x0000000008007ba4                EwramFree
 src/malloc_vram.o(.text)
 .text          0x0000000008007c10      0x110 src/malloc_vram.o
                0x0000000008007c10                VramMalloc
                0x0000000008007cc8                VramResetHeapState
                0x0000000008007cf0                VramFree
 src/input_recorder.o(.text)
 .text          0x0000000008007d20       0xf0 src/input_recorder.o
                0x0000000008007d20                InputRecorderResetRecordHead
                0x0000000008007d2c                InputRecorderResetPlaybackHead
                0x0000000008007d38                InputRecorderLoadTape
                0x0000000008007d8c                InputRecorderRead
                0x0000000008007dbc                InputRecorderWrite
 src/game/sa1_sa2_shared/rings_manager.o(.text)
 .text          0x0000000008007e10      0xa7c src/game/sa1_sa2_shared/rings_manager.o
                0x0000000008007e10                CreateStageRingsManager
                0x0000000008007f1c                Task_RingsMgrMain
                0x0000000008008874                TaskDestructor_RingsMgr
 src/game/sa1_sa2_shared/entities_manager.o(.text)
 .text          0x000000000800888c      0xd9c src/game/sa1_sa2_shared/entities_manager.o
                0x000000000800888c                CreateStageEntitiesManager
                0x00000000080089cc                SpawnMapEntities
                0x0000000008008dcc                Task_8008DCC
                0x0000000008009530                CreateEnemyDefeatScoreAndManageLives
                0x00000000080095e8                TaskDestructor_80095E8
                0x00000000080095fc                sub_80095FC
 src/game/sa1_sa2_shared/palette_loader.o(.text)
 .text          0x0000000008009628       0xb4 src/game/sa1_sa2_shared/palette_loader.o
                0x0000000008009628                CreatePaletteLoaderTask
 src/game/sa1_sa2_shared/unused_level_select.o(.text)
 .text          0x00000000080096dc      0x23c src/game/sa1_sa2_shared/unused_level_select.o
                0x00000000080096dc                CreateUnusedLevelSelect
 src/game/sa1_sa2_shared/spot_light_beam_task.o(.text)
 .text          0x0000000008009918      0x4e8 src/game/sa1_sa2_shared/spot_light_beam_task.o
                0x0000000008009918                CreateSpotlightBeamTask
                0x0000000008009964                Task_SpotlightBeamTask
                0x0000000008009dec                TaskDestructor_SpotlightBeamTask
 src/game/sa1_sa2_shared/enemy_defeat_score.o(.text)
 .text          0x0000000008009e00      0x194 src/game/sa1_sa2_shared/enemy_defeat_score.o
                0x0000000008009e00                CreateEnemyDefeatScore
                0x0000000008009eb0                Task_CreateEnemyDefeatScore_MoveUp
                0x0000000008009f1c                Task_CreateEnemyDefeatScore_Hold
                0x0000000008009f80                TaskDestructor_CreateEnemyDefeatScore
 src/game/sa1_sa2_shared/demo_manager.o(.text)
 .text          0x0000000008009f94      0x4a8 src/game/sa1_sa2_shared/demo_manager.o
                0x0000000008009f94                CreateDemoManager
                0x000000000800a110                Task_DemoManagerMain
                0x000000000800a24c                Task_DemoManagerEndFadeout
                0x000000000800a310                Task_DemoManagerFadeout
                0x000000000800a350                TaskDestructor_DemoManagerMain
                0x000000000800a388                CreateMusicFadeoutTask
                0x000000000800a3d4                Task_DemoManagerMusicFadeout
 src/game/sa1_sa2_shared/unused_flash_task.o(.text)
 .text          0x000000000800a43c      0x108 src/game/sa1_sa2_shared/unused_flash_task.o
                0x000000000800a43c                CreateUnusedFlashTask
                0x000000000800a4cc                Task_UnusedFlashTask
                0x000000000800a510                DestroyUnusedFlashTask
 src/game/sa1_sa2_shared/simple_sprite_particle.o(.text)
 .text          0x000000000800a544      0x164 src/game/sa1_sa2_shared/simple_sprite_particle.o
                0x000000000800a544                CreateSimpleSpriteParticle
                0x000000000800a5f8                Task_SimpleSpriteParticleMain
                0x000000000800a694                TaskDestructor_800A694
 src/game/sa1_sa2_shared/spot_light.o(.text)
 .text          0x000000000800a6a8      0x354 src/game/sa1_sa2_shared/spot_light.o
                0x000000000800a6a8                CreateSpotLightBeams
                0x000000000800a744                Task_SpotLightMain
                0x000000000800a8e0                Task_800A8E0
                0x000000000800a9b8                TaskDestructor_SpotLightMain
 src/game/sa1_sa2_shared/pause_menu.o(.text)
 .text          0x000000000800a9fc      0x4a4 src/game/sa1_sa2_shared/pause_menu.o
                0x000000000800a9fc                CreatePauseMenu
                0x000000000800ab08                Task_PauseMenuUpdate
                0x000000000800adac                Task_PauseMenuInit
                0x000000000800ae44                TaskDestructor_PauseMenu
                0x000000000800ae58                sub_800AE58
 src/game/sa1_sa2_shared/collect_ring_effect.o(.text)
 .text          0x000000000800aea0      0x19c src/game/sa1_sa2_shared/collect_ring_effect.o
                0x000000000800aea0                CreateCollectRingEffect
                0x000000000800afd0                Task_CollectRingEffect
 src/game/sa1_sa2_shared/item_box.o(.text)
 .text          0x000000000800b03c      0x97c src/game/sa1_sa2_shared/item_box.o
                0x000000000800b03c                CreateEntity_ItemBox
                0x000000000800b1ac                BreakItemBox
                0x000000000800b23c                ApplyItemboxEffect
                0x000000000800b580                InitItemBoxGraphics
                0x000000000800b704                Task_ItemBoxMain
                0x000000000800b780                Task_ItemBoxIconMain_Rising
                0x000000000800b7d0                Task_ItemBoxIconMain_Idle
                0x000000000800b80c                TaskDestructor_ItemBox
                0x000000000800b828                MultiplayerItemBoxBreak
                0x000000000800b860                DrawItemBox
                0x000000000800b8ac                CheckItemBoxOutOfBounds
                0x000000000800b8f4                CheckItemBoxPlayerCollision
                0x000000000800b950                Task_ItemBoxIconMain_Rise_MP
                0x000000000800b9a0                FinishItemBoxRise_MP
 src/game/sa1_sa2_shared/dust_cloud.o(.text)
 .text          0x000000000800b9b8       0xf4 src/game/sa1_sa2_shared/dust_cloud.o
                0x000000000800b9b8                CreateDustCloud
 src/game/sa1_sa2_shared/magnetic_ring.o(.text)
 .text          0x000000000800baac      0x264 src/game/sa1_sa2_shared/magnetic_ring.o
                0x000000000800baac                CreateMagneticRing
                0x000000000800bb44                Task_MagneticRing
 src/game/sa1_sa2_shared/music_manager.o(.text)
 .text          0x000000000800bd10      0x29c src/game/sa1_sa2_shared/music_manager.o
                0x000000000800bd10                Task_StageMusicManager
                0x000000000800bef8                CreateStageMusicManager
                0x000000000800bf74                MusManager_Fadeout
 src/game/sa1_sa2_shared/collision.o(.text)
 .text          0x000000000800bfac     0x1fe0 src/game/sa1_sa2_shared/collision.o
                0x000000000800bfac                CheckRectCollision_SpritePlayer
                0x000000000800c060                sub_800C060
                0x000000000800c204                sub_800C204
                0x000000000800c320                sub_800C320
                0x000000000800c418                IsColliding_Cheese
                0x000000000800c4fc                sub_800C4FC
                0x000000000800c84c                sub_800C84C
                0x000000000800c944                sub_800C944
                0x000000000800ca20                sub_800CA20
                0x000000000800cb18                Collision_AdjustPlayerSpeed
                0x000000000800cba4                sub_800CBA4
                0x000000000800ccb8                sub_800CCB8
                0x000000000800cdbc                sub_800CDBC
                0x000000000800ce94                sub_800CE94
                0x000000000800d0a0                sub_800D0A0
                0x000000000800da4c                sub_800DA4C
                0x000000000800dd54                sub_800DD54
                0x000000000800de44                sub_800DE44
                0x000000000800df38                sub_800DF38
 src/game/sa1_sa2_shared/input_buffer.o(.text)
 .text          0x000000000800df8c      0x210 src/game/sa1_sa2_shared/input_buffer.o
                0x000000000800df8c                sub_800DF8C
                0x000000000800e0c0                sub_800E0C0
                0x000000000800e16c                InitNewInputCounters
 src/game/sa1_sa2_shared/interactables/spring.o(.text)
 .text          0x000000000800e19c      0x590 src/game/sa1_sa2_shared/interactables/spring.o
                0x000000000800e574                CreateEntity_Spring_Big_DownLeft
                0x000000000800e5a0                CreateEntity_Spring_Normal_Down
                0x000000000800e5cc                CreateEntity_Spring_Big_DownRight
                0x000000000800e5f8                CreateEntity_Spring_Normal_Left
                0x000000000800e624                CreateEntity_Spring_Normal_Right
                0x000000000800e650                CreateEntity_Spring_Big_UpLeft
                0x000000000800e67c                CreateEntity_Spring_Normal_Up
                0x000000000800e6a8                CreateEntity_Spring_Big_UpRight
                0x000000000800e6d4                CreateEntity_Spring_Small_UpLeft
                0x000000000800e700                CreateEntity_Spring_Small_UpRight
 src/game/sa1_sa2_shared/interactables/platform.o(.text)
 .text          0x000000000800e72c      0xa90 src/game/sa1_sa2_shared/interactables/platform.o
                0x000000000800e72c                CreateEntity_Platform
                0x000000000800eb28                CreateEntity_FallingPlatform
                0x000000000800edf8                Task_FallingPlatformMain_FallDelay
                0x000000000800efd0                Task_FallingPlatformMain_Falling
                0x000000000800f1b0                HandlePlatformOffsetYStorage
 src/game/sa1_sa2_shared/interactables/platform_square.o(.text)
 .text          0x000000000800f1bc      0x81c src/game/sa1_sa2_shared/interactables/platform_square.o
                0x000000000800f1bc                CreateEntity_Platform_Square
 src/game/sa1_sa2_shared/interactables/ramp.o(.text)
 .text          0x000000000800f9d8      0x460 src/game/sa1_sa2_shared/interactables/ramp.o
                0x000000000800f9d8                CreateEntity_Ramp
 src/game/sa1_sa2_shared/interactables/grind_rail.o(.text)
 .text          0x000000000800fe38      0x760 src/game/sa1_sa2_shared/interactables/grind_rail.o
                0x0000000008010498                CreateEntity_GrindRail_StartAir
                0x00000000080104b8                CreateEntity_GrindRail_End_ForcedJump
                0x00000000080104d8                CreateEntity_GrindRail_Start
                0x00000000080104f8                CreateEntity_GrindRail_EndGround
                0x0000000008010518                CreateEntity_GrindRail_EndAir
                0x0000000008010538                CreateEntity_GrindRail_EndAir_Left
                0x0000000008010558                CreateEntity_GrindRail_EndAlternate
                0x0000000008010578                CreateEntity_GrindRail_EndGround_Left
 src/game/sa1_sa2_shared/interactables/ceiling_slope.o(.text)
 .text          0x0000000008010598      0x150 src/game/sa1_sa2_shared/interactables/ceiling_slope.o
                0x0000000008010598                Task_Interactable_CeilingSlope
                0x0000000008010698                CreateEntity_CeilingSlope
 src/game/sa1_sa2_shared/interactables/pipe.o(.text)
 .text          0x00000000080106e8      0x29c src/game/sa1_sa2_shared/interactables/pipe.o
                0x00000000080108ec                CreateEntity_Pipe_Start
                0x0000000008010938                CreateEntity_Pipe_End
 src/game/sa1_sa2_shared/interactables/platform_thin.o(.text)
 .text          0x0000000008010984      0x898 src/game/sa1_sa2_shared/interactables/platform_thin.o
                0x0000000008010984                CreateEntity_PlatformThin
                0x0000000008010d1c                CreatePlatformBreakParticles
 src/game/sa1_sa2_shared/interactables/slidy_ice.o(.text)
 .text          0x000000000801121c      0x10c src/game/sa1_sa2_shared/interactables/slidy_ice.o
                0x000000000801121c                Task_SlidyIce
                0x00000000080112dc                CreateEntity_SlidyIce
 src/game/water_effects.o(.text)
 .text          0x0000000008011328      0x860 src/game/water_effects.o
                0x0000000008011328                InitWaterPalettes
                0x00000000080115d0                CreateStageWaterTask
                0x00000000080117f0                CreateRunOnWaterEffect
                0x00000000080118fc                CreateWaterfallSurfaceHitEffect
                0x0000000008011960                MaskPaletteWithUnderwaterColor
 src/game/player_callbacks.o(.text)
 .text          0x0000000008011b88     0x2424 src/game/player_callbacks.o
                0x0000000008011b88                Player_SonicAmy_InitSkidAttackGfxTask
                0x0000000008011c98                Player_Sonic_Bound
                0x0000000008011d48                Player_SonicAmy_InitSkidAttack
                0x0000000008011dcc                Player_SonicAmy_WindupSkidAttack
                0x0000000008011e88                Player_SonicAmy_SkidAttack
                0x0000000008011f1c                Player_SonicAmy_InitStopNSlam
                0x0000000008011f94                Player_SonicAmy_StopNSlam
                0x0000000008012034                Task_SonicBoundMotionFrames
                0x00000000080120c0                Player_SonicForwardThrust
                0x0000000008012194                Player_Sonic_InitHomingAttack
                0x000000000801225c                Player_InitHomingAttackRecoil
                0x00000000080122dc                Player_UpdateHomingPosition
                0x00000000080123d0                Player_80123D0
                0x00000000080123fc                Player_SonicAmy_WindupStopNSlam
                0x0000000008012460                Player_SonicAmy_StopNSlam_AfterGroundCollision
                0x0000000008012498                Player_SonicAmy_StopNSlam_FallAfterCollision
                0x00000000080124b8                TaskDestructor_SonicBoundMotionFrames
                0x00000000080124d0                Player_Sonic_HomingAttack
                0x000000000801251c                Player_Sonic_TryForwardThrust
                0x0000000008012548                Player_Cream_InitChaoAttack
                0x00000000080125bc                UpdateCreamFlying
                0x0000000008012644                Player_Cream_InitFlying
                0x00000000080126b0                Player_Cream_Flying
                0x00000000080127f0                Player_Cream_ChaoAttack
                0x0000000008012830                Player_Cream_InitStepAttack
                0x0000000008012888                Player_Cream_InitChaoRollingAttack
                0x00000000080128e0                Player_Cream_InitMidAirChaoAttack
                0x0000000008012938                Player_Cream_StepAttack
                0x0000000008012978                Player_Cream_ChaoRollingAttack
                0x00000000080129bc                Player_Cream_WindupMidAirChaoAttack
                0x00000000080129dc                sub_80129DC
                0x0000000008012ad0                Player_Tails_InitUnusedJump
                0x0000000008012b44                sub_8012B44
                0x0000000008012bc0                Player_Tails_InitFlying
                0x0000000008012c2c                Player_Tails_8012C2C
                0x0000000008012d1c                Player_8012D1C
                0x0000000008012d3c                Player_Tails_InitTailSwipe
                0x0000000008012da4                Player_Tails_TailSwipe
                0x0000000008012df8                sub_8012DF8
                0x0000000008012eec                Player_Knuckles_InitPunch
                0x0000000008012f6c                Player_Knuckles_PunchLeft
                0x0000000008013010                Player_Knuckles_PunchRight
                0x0000000008013070                Player_Knuckles_InitSpiralAttack
                0x00000000080130e4                Player_Knuckles_SpiralAttack
                0x0000000008013150                Player_Knuckles_Glide_UpdateFrames
                0x00000000080131b4                Player_Knuckles_Glide_MainUpdate
                0x0000000008013498                Player_Knuckles_GlideSoftFall
                0x000000000801350c                Player_Knuckles_GlideHardLandingUpdateAnim
                0x00000000080135bc                sub_80135BC
                0x0000000008013644                sub_8013644
                0x00000000080136e8                Player_Knuckles_Climb_80136E8
                0x000000000801394c                sub_801394C
                0x00000000080139b0                Knuckles_Glide_UpdateSpeed
                0x0000000008013ad8                Player_Knuckles_InitGlide
                0x0000000008013b6c                Player_8013B6C
                0x0000000008013bb4                Player_Knuckles_Glide
                0x0000000008013bd4                Player_Knuckles_FallAfterGlide
                0x0000000008013bf0                Player_Knuckles_GlideSoftLanding
                0x0000000008013c18                Player_Knuckles_GlideHardLanding
                0x0000000008013c34                Player_Knuckles_Climb
                0x0000000008013c50                Player_Knuckles_InitClimbPullUpEdge
                0x0000000008013ca0                sub_8013CA0
                0x0000000008013cc0                sub_8013CC0
                0x0000000008013cf4                sub_8013CF4
                0x0000000008013d18                Player_Knuckles_InitDrillClaw
                0x0000000008013d7c                sub_8013D7C
                0x0000000008013da8                Player_Knuckles_WindupDrillClaw
                0x0000000008013dfc                Player_Knuckles_DrillClaw
                0x0000000008013e34                Player_8013E34
                0x0000000008013e64                Player_Knuckles_ClimbPullUpEdge
                0x0000000008013ee0                sub_8013EE0
                0x0000000008013f04                Player_Amy_InitHammerAttack
                0x0000000008013f60                Player_Amy_HammerAttack
 src/game/cheese.o(.text)
 .text          0x0000000008013fac     0x1670 src/game/cheese.o
                0x0000000008013fac                CreateCheese
                0x000000000801412c                sub_801412C
                0x000000000801420c                sub_801420C
                0x00000000080142ac                sub_80142AC
                0x0000000008014350                sub_8014350
                0x00000000080144cc                sub_80144CC
                0x00000000080145d8                sub_80145D8
                0x000000000801464c                sub_801464C
                0x0000000008014834                sub_8014834
                0x00000000080148b8                sub_80148B8
                0x00000000080149ec                sub_80149EC
                0x0000000008014a68                sub_8014A68
                0x0000000008014afc                sub_8014AFC
                0x0000000008014bb0                sub_8014BB0
                0x0000000008014c60                sub_8014C60
                0x0000000008014cc8                sub_8014CC8
                0x0000000008014efc                sub_8014EFC
                0x0000000008015118                sub_8015118
                0x00000000080152ec                sub_80152EC
                0x0000000008015360                sub_8015360
                0x0000000008015378                sub_8015378
                0x00000000080153f8                sub_80153F8
                0x0000000008015464                sub_8015464
                0x00000000080154b0                sub_80154B0
                0x0000000008015500                sub_8015500
                0x000000000801555c                sub_801555C
                0x00000000080155d0                sub_80155D0
                0x0000000008015604                sub_8015604
                0x0000000008015618                sub_8015618
 src/game/boost_effect.o(.text)
 .text          0x000000000801561c      0x5b8 src/game/boost_effect.o
                0x000000000801561c                sub_801561C
                0x00000000080156d0                sub_80156D0
                0x0000000008015750                sub_8015750
                0x0000000008015790                sub_8015790
                0x00000000080157c8                GetPreviousPlayerPos
                0x00000000080157f4                GetPreviousFramePlayerState
                0x000000000801583c                CreateBoostEffectTasks
                0x00000000080159c8                Task_80159C8
                0x0000000008015b50                TaskDestructor_8015B50
                0x0000000008015b64                sub_8015B64
 src/game/amy_attack_heart_effect.o(.text)
 .text          0x0000000008015bd4      0x454 src/game/amy_attack_heart_effect.o
                0x0000000008015bd4                CreateAmyAttackHeartEffect
                0x0000000008015ce4                Task_AmyAttackHeartEffect
                0x0000000008015e28                sub_8015E28
                0x0000000008015ff0                TaskDestructor_AmyAttackHeartEffect
 src/game/multiplayer/mp_player.o(.text)
 .text          0x0000000008016028     0x28d4 src/game/multiplayer/mp_player.o
                0x0000000008016028                CreateMultiplayerPlayer
                0x000000000801623c                Task_CreateMultiplayerPlayer
                0x0000000008016d20                sub_8016D20
                0x000000000801707c                sub_801707C
                0x0000000008017670                sub_8017670
                0x0000000008017c28                sub_8017C28
                0x0000000008017f34                sub_8017F34
                0x0000000008018120                sub_8018120
                0x00000000080181e0                sub_80181E0
                0x0000000008018300                sub_8018300
                0x0000000008018760                Task_HandleLaunchPlayer
                0x0000000008018818                sub_8018818
                0x0000000008018878                TaskDestructor_MultiplayerPlayer
                0x00000000080188a4                LaunchPlayer
 src/game/multiplayer/multiplayer_event_mgr.o(.text)
 .text          0x00000000080188fc      0x928 src/game/multiplayer/multiplayer_event_mgr.o
                0x00000000080188fc                Task_MultiplayerEventMgr_Send
                0x0000000008018a28                Task_MultiplayerEventMgr_Receive
                0x0000000008018ad8                ReceiveRoomEvent_ItemEffect
                0x0000000008018e00                ReceiveRoomEvent_ReachedStageGoal
                0x0000000008019120                CreateMultiplayerSendEventMgr
                0x00000000080191a4                CreateMultiplayerReceiveEventMgr
 src/game/multiplayer/multiplayer_event_recv_mgr.o(.text)
 .text          0x0000000008019224      0x1a0 src/game/multiplayer/multiplayer_event_recv_mgr.o
                0x0000000008019224                CreateRoomEvent
                0x0000000008019240                ReceiveRoomEvent_PlatformChange
                0x00000000080192a8                ReceiveRoomEvent_ItemBoxBreak
                0x00000000080192fc                ReceiveRoomEvent_EnemyDestroyed
                0x0000000008019350                ReceiveRoomEvent_PlayerRingLoss
                0x0000000008019368                ReceiveRoomEvent_MysteryItemBoxBreak
                0x00000000080193b8                ReceiveRoomEvent_Unknown
 src/game/multiplayer/indicators.o(.text)
 .text          0x00000000080193c4      0x908 src/game/multiplayer/indicators.o
                0x00000000080193c4                CreateOpponentPositionIndicator
                0x0000000008019498                CreateSelfPositionIndicator
 src/game/multiplayer/finish.o(.text)
 .text          0x0000000008019ccc      0x6b8 src/game/multiplayer/finish.o
                0x0000000008019ccc                sub_8019CCC
                0x0000000008019e70                Task_8019E70
                0x0000000008019ef4                TaskDestructor_8019EF4
                0x0000000008019f08                sub_8019F08
                0x000000000801a04c                Task_801A04C
                0x000000000801a0e0                Task_TransitionToResultsScreen
 src/game/multiplayer/mp_attack_2_effect.o(.text)
 .text          0x000000000801a384      0x198 src/game/multiplayer/mp_attack_2_effect.o
                0x000000000801a384                CreateMPAttack2Effect
                0x000000000801a430                Task_MPAttackEffect2
                0x000000000801a4d8                TaskDestructor_MPAttackEffect2
 src/game/game.o(.text)
 .text          0x000000000801a51c      0x168 src/game/game.o
                0x000000000801a51c                GameInit
 src/game/dummy_task.o(.text)
 .text          0x000000000801a684       0x54 src/game/dummy_task.o
                0x000000000801a684                CreateDummyTask
 src/game/stage/stage.o(.text)
 .text          0x000000000801a6d8     0x1990 src/game/stage/stage.o
                0x000000000801a6d8                ApplyGameStageSettings
                0x000000000801a770                GameStageStart
                0x000000000801a838                CreateGameStage
                0x000000000801ab3c                Task_GameStage
                0x000000000801ae48                HandleLifeLost
                0x000000000801af14                StageInit_Zone1Act1
                0x000000000801afa4                StageInit_Zone3Act1
                0x000000000801b03c                StageInit_Zone3Act2
                0x000000000801b0d4                StageInit_Zone4Act1
                0x000000000801b180                StageInit_Zone4Act2
                0x000000000801b22c                StageInit_Zone6Act1
                0x000000000801b324                StageInit_Zone6Act2
                0x000000000801b41c                StageInit_Zone7Act1
                0x000000000801b4ec                StageInit_Zone7Act2
                0x000000000801b5bc                StageInit_Zone7ActBoss
                0x000000000801b68c                DestroyStageTasks
                0x000000000801b6b4                HandleDeath
                0x000000000801b744                GoToNextLevel
                0x000000000801b7a8                TaskDestructor_GameStage
                0x000000000801b7bc                StageInit_Zone1Act2
                0x000000000801b83c                StageInit_Zone1ActBoss
                0x000000000801b8a8                StageInit_Zone2Act1
                0x000000000801b914                StageInit_Zone2Act2
                0x000000000801b980                StageInit_Zone2ActBoss
                0x000000000801b9ec                StageInit_Zone3ActBoss
                0x000000000801ba58                StageInit_Zone4ActBoss
                0x000000000801bac4                StageInit_Zone5Act1
                0x000000000801bb30                StageInit_Zone5Act2
                0x000000000801bb9c                StageInit_Zone5ActBoss
                0x000000000801bc1c                StageInit_Zone6ActBoss
                0x000000000801bc88                StageInit_ZoneFinalActXX
                0x000000000801bd08                StageInit_ZoneFinalActTA53
                0x000000000801bd74                StageInit_MultiplayerSinglePak
                0x000000000801bde0                StageInit_31
                0x000000000801be4c                StageInit_32
                0x000000000801beb8                StageInit_33
                0x000000000801bf24                StageInit_Dummy
                0x000000000801bf90                StageInit_CollectRings
                0x000000000801bffc                StageInit_SetMusic
 src/game/stage/camera.o(.text)
 .text          0x000000000801c068      0x70c src/game/stage/camera.o
                0x000000000801c068                InitCamera
                0x000000000801c394                UpdateCamera
 src/game/stage/background/zone_1.o(.text)
 .text          0x000000000801c774      0x1d8 src/game/stage/background/zone_1.o
                0x000000000801c774                CreateStageBg_Zone1
                0x000000000801c818                StageBgUpdate_Zone1Acts12
 src/game/stage/background/zone_2.o(.text)
 .text          0x000000000801c94c      0x228 src/game/stage/background/zone_2.o
                0x000000000801c94c                StageBgUpdate_Zone2Acts12
 src/game/stage/background/zone_3.o(.text)
 .text          0x000000000801cb74      0x208 src/game/stage/background/zone_3.o
                0x000000000801cb74                CreateStageBg_Zone3
                0x000000000801cbe8                StageBgUpdate_Zone3Acts12
 src/game/stage/background/zone_4.o(.text)
 .text          0x000000000801cd7c      0x168 src/game/stage/background/zone_4.o
                0x000000000801cd7c                CreateStageBg_Zone4
                0x000000000801cdf0                StageBgUpdate_Zone4Acts12
 src/game/stage/background/zone_5.o(.text)
 .text          0x000000000801cee4      0x220 src/game/stage/background/zone_5.o
                0x000000000801cee4                CreateStageBg_Zone5
                0x000000000801cf60                StageBgUpdate_Zone5Acts12
 src/game/stage/background/zone_6.o(.text)
 .text          0x000000000801d104      0x858 src/game/stage/background/zone_6.o
                0x000000000801d104                CreateStageBg_Zone6_Acts
                0x000000000801d1a8                CreateStageBg_Zone6_Boss
                0x000000000801d24c                sub_801D24C
                0x000000000801d534                StageBgUpdate_Zone6Acts12
 src/game/stage/background/zone_7_1.o(.text)
 .text          0x000000000801d95c      0x5ac src/game/stage/background/zone_7_1.o
                0x000000000801d95c                CreateStageBg_Zone7
                0x000000000801d9d4                Zone7BgUpdate_Inside
                0x000000000801dd7c                Zone7BgUpdate_Outside
 src/game/stage/background/zone_final.o(.text)
 .text          0x000000000801df08      0x120 src/game/stage/background/zone_final.o
                0x000000000801df08                CreateStageBg_ZoneFinal_0
 src/game/stage/camera_destroy.o(.text)
 .text          0x000000000801e028       0xf0 src/game/stage/camera_destroy.o
                0x000000000801e028                DestroyCameraMovementTask
                0x000000000801e040                TaskDestructor_Camera
                0x000000000801e0a8                Task_CallUpdateCamera
 src/game/stage/background/zone_2_init.o(.text)
 .text          0x000000000801e118       0x14 src/game/stage/background/zone_2_init.o
                0x000000000801e118                CreateStageBg_Zone2
 src/game/stage/background/dummy.o(.text)
 .text          0x000000000801e12c        0x8 src/game/stage/background/dummy.o
                0x000000000801e12c                CreateStageBg_Dummy
                0x000000000801e130                StageBgUpdate_Dummy
 src/game/stage/background/zone_1_boss.o(.text)
 .text          0x000000000801e134       0x70 src/game/stage/background/zone_1_boss.o
                0x000000000801e134                StageBgUpdate_Zone1ActBoss
 src/game/stage/background/zone_2_boss.o(.text)
 .text          0x000000000801e1a4       0x2c src/game/stage/background/zone_2_boss.o
                0x000000000801e1a4                StageBgUpdate_Zone2ActBoss
 src/game/stage/background/zone_3_boss.o(.text)
 .text          0x000000000801e1d0       0x14 src/game/stage/background/zone_3_boss.o
                0x000000000801e1d0                StageBgUpdate_Zone3ActBoss
 src/game/stage/background/zone_5_boss.o(.text)
 .text          0x000000000801e1e4       0x50 src/game/stage/background/zone_5_boss.o
                0x000000000801e1e4                StageBgUpdate_Zone5ActBoss
 src/game/stage/background/zone_6_boss.o(.text)
 .text          0x000000000801e234       0x38 src/game/stage/background/zone_6_boss.o
                0x000000000801e234                StageBgUpdate_Zone6ActBoss
 src/game/stage/background/zone_7_2.o(.text)
 .text          0x000000000801e26c       0x74 src/game/stage/background/zone_7_2.o
                0x000000000801e26c                StageBgUpdate_Zone7Acts12
 src/game/stage/background/zone_7_boss.o(.text)
 .text          0x000000000801e2e0       0x30 src/game/stage/background/zone_7_boss.o
                0x000000000801e2e0                StageBgUpdate_Zone7ActBoss
 src/game/stage/background/zone_final_boss.o(.text)
 .text          0x000000000801e310       0x50 src/game/stage/background/zone_final_boss.o
                0x000000000801e310                StageBgUpdate_ZoneFinalActXX
 src/game/stage/background/zone_extra_boss.o(.text)
 .text          0x000000000801e360       0x90 src/game/stage/background/zone_extra_boss.o
                0x000000000801e360                StageBgUpdate_ZoneFinalActTA53
 src/game/stage/background/callbacks.o(.text)
 .text          0x000000000801e3f0       0xf4 src/game/stage/background/callbacks.o
                0x000000000801e3f0                sub_801E3F0
                0x000000000801e434                HBlankCB_801E434
                0x000000000801e454                HBlankCB_801E454
                0x000000000801e494                nullsub_801E494
                0x000000000801e498                HBlankCB_BgUpdateZone5ActBoss
                0x000000000801e4c4                HBlankCB_BgUpdateZoneFinalActXX
 src/game/stage/collision.o(.text)
 .text          0x000000000801e4e4      0xc78 src/game/stage/collision.o
                0x000000000801e4e4                sub_801E4E4
                0x000000000801e6d4                sub_801E6D4
                0x000000000801eb44                sub_801EB44
                0x000000000801ec3c                sub_801EC3C
                0x000000000801ed24                sub_801ED24
                0x000000000801ee64                sub_801EE64
                0x000000000801ef94                sub_801EF94
                0x000000000801f044                sub_801F044
                0x000000000801f07c                sub_801F07C
                0x000000000801f100                sub_801F100
 src/game/stage/mp_sprite_task.o(.text)
 .text          0x000000000801f15c      0x470 src/game/stage/mp_sprite_task.o
                0x000000000801f15c                CreateMultiplayerSpriteTask
                0x000000000801f214                Task_UpdateMpSpriteTaskSprite
                0x000000000801f3a4                CreateStageGoalBonusPointsAnim
                0x000000000801f488                CreateGrindEffect2
                0x000000000801f550                TaskDestructor_MultiplayerSpriteTask
                0x000000000801f568                CreateGrindfEffect2Sprite
 src/game/stage/dust_effect_braking.o(.text)
 .text          0x000000000801f5cc      0x210 src/game/stage/dust_effect_braking.o
                0x000000000801f5cc                CreateBrakingDustEffect
                0x000000000801f6e0                Task_BrakingDustEffect
                0x000000000801f754                CreateBrakingDustEffectRelatedTask
                0x000000000801f78c                DestroyBrakingDustEffectRelatedTask
                0x000000000801f7a8                TaskDestructor_BrakingDustEffectRelated
                0x000000000801f7b4                Task_BrakingDustEffectRelated
                0x000000000801f7b8                TaskDestructor_BrakingDustEffect
 src/game/stage/dust_effect_spindash.o(.text)
 .text          0x000000000801f7dc      0x320 src/game/stage/dust_effect_spindash.o
                0x000000000801f7dc                CreateSpindashDustEffect
                0x000000000801f860                Task_SpindashDustEffect
                0x000000000801f9a4                Task_SpindashDustEffectBig
                0x000000000801fae8                TaskDestructor_SpindashDustEffect
 src/game/stage/grind_effect_1.o(.text)
 .text          0x000000000801fafc      0x130 src/game/stage/grind_effect_1.o
                0x000000000801fafc                CreateGrindEffect
                0x000000000801fb80                Task_GrindEffect
                0x000000000801fc18                TaskDestructor_GrindEffect
 src/game/stage/rings_scatter.o(.text)
 .text          0x000000000801fc2c     0x1794 src/game/stage/rings_scatter.o
                0x000000000801fc2c                InitPlayerHitRingsScatter
                0x000000000801fd34                InitScatteringRings
                0x000000000801fe78                RingsScatterSingleplayer_FlippedGravity
                0x00000000080201b8                RingsScatterSingleplayer_NormalGravity
                0x0000000008020514                RingsScatterMultipak_FlippedGravity
                0x0000000008020998                RingsScatterMultipak_NormalGravity
                0x0000000008020e20                RingsScatterSinglepakMain
                0x0000000008021350                DestroyRingsScatterTask
                0x0000000008021368                Task_RingsScatter_Singleplayer
                0x0000000008021388                Task_RingsScatter_MP_Multipak
                0x00000000080213a8                Task_RingsScatter_MP_Singlepak
                0x00000000080213b4                TaskDestructor_RingsScatter
 src/game/stage/player.o(.text)
 .text          0x00000000080213c0     0x93e8 src/game/stage/player.o
                0x00000000080213c0                sub_80213C0
                0x0000000008021490                AllocateCharacterStageGfx
                0x0000000008021554                AllocateCharacterMidAirGfx
                0x0000000008021604                SetStageSpawnPos
                0x0000000008021694                InitializePlayer
                0x00000000080218e4                Player_TransitionCancelFlyingAndBoost
                0x000000000802195c                sub_802195C
                0x0000000008021a34                sub_8021A34
                0x0000000008021b08                sub_8021B08
                0x0000000008021be0                sub_8021BE0
                0x0000000008021c4c                sub_8021C4C
                0x0000000008021db8                sub_8021DB8
                0x0000000008021ee4                sub_8021EE4
                0x000000000802203c                sub_802203C
                0x0000000008022190                sub_8022190
                0x0000000008022218                sub_8022218
                0x0000000008022284                sub_8022284
                0x0000000008022318                sub_8022318
                0x00000000080223bc                sub_80223BC
                0x00000000080224dc                sub_80224DC
                0x00000000080225e8                sub_80225E8
                0x0000000008022710                sub_8022710
                0x0000000008022838                sub_8022838
                0x00000000080228c0                sub_80228C0
                0x00000000080229ec                sub_80229EC
                0x0000000008022b18                sub_8022B18
                0x0000000008022c44                sub_8022C44
                0x0000000008022d6c                sub_8022D6C
                0x0000000008022f58                sub_8022F58
                0x000000000802302c                sub_802302C
                0x0000000008023128                sub_8023128
                0x00000000080231c0                sub_80231C0
                0x0000000008023260                sub_8023260
                0x00000000080232d0                sub_80232D0
                0x0000000008023610                Player_AirInputControls
                0x00000000080236c8                sub_80236C8
                0x0000000008023708                sub_8023708
                0x0000000008023748                sub_8023748
                0x0000000008023878                sub_8023878
                0x0000000008023b5c                sub_8023B5C
                0x0000000008023c10                Player_Debug_TestRingScatter
                0x0000000008023d08                Task_PlayerHandleDeath
                0x0000000008023e90                Task_PlayerDied
                0x0000000008023fc0                Task_PlayerMain
                0x0000000008024228                CallPlayerTransition
                0x000000000802460c                sub_802460C
                0x00000000080246dc                sub_80246DC
                0x000000000802486c                sub_802486C
                0x0000000008024b10                sub_8024B10
                0x0000000008024f74                sub_8024F74
                0x0000000008025318                Player_TouchGround
                0x00000000080253c4                Player_Idle
                0x0000000008025548                Player_8025548
                0x000000000802569c                Player_Taunt
                0x0000000008025854                Player_Crouch
                0x0000000008025a0c                Player_SpinAttack
                0x0000000008025ab8                Player_Rolling
                0x0000000008025d00                Player_InitJump
                0x0000000008025e18                Player_Jumping
                0x0000000008025f84                Player_8025F84
                0x0000000008026060                Player_8026060
                0x000000000802611c                Player_InitUncurl
                0x00000000080261d8                Player_Uncurl
                0x000000000802631c                Player_InitSpindash
                0x0000000008026378                Player_Spindash
                0x000000000802669c                InitPlayerGrindGraphics
                0x0000000008026764                Player_InitGrinding
                0x0000000008026810                Player_DoGrinding
                0x00000000080269c0                Player_InitGrindRailEndGround
                0x0000000008026a4c                Player_GrindRailEndAir
                0x0000000008026b64                sub_8026B64
                0x0000000008026bcc                Player_8026BCC
                0x0000000008026d2c                Player_8026D2C
                0x0000000008026e24                Player_InitPipeEntry
                0x0000000008026f10                Player_InitPipeExit
                0x0000000008026fc8                Player_InitPropellorSpring
                0x0000000008027040                Player_PropellorSpring
                0x0000000008027114                Player_InitCorkscrew
                0x0000000008027190                Player_Corkscrew
                0x0000000008027250                Player_InitHurt
                0x0000000008027324                Player_Hurt
                0x00000000080273d0                Player_InitReachedGoal
                0x00000000080274b8                Player_GoalSlowdown
                0x0000000008027620                Player_GoalBrake
                0x000000000802785c                Player_InitVictoryPoseTransition
                0x00000000080278d4                Player_VictoryPose
                0x00000000080279f8                Player_80279F8
                0x0000000008027b98                Player_8027B98
                0x0000000008027c5c                Player_8027C5C
                0x0000000008027d3c                Player_8027D3C
                0x0000000008027ef0                Player_HandlePhysicsWithAirInput
                0x000000000802808c                Player_HandlePhysics
                0x0000000008028204                sub_8028204
                0x00000000080282ec                sub_80282EC
                0x00000000080283c4                sub_80283C4
                0x0000000008028478                sub_8028478
                0x0000000008028640                sub_8028640
                0x00000000080286f0                Player_InitDefaultTrick
                0x00000000080287ac                Player_WindupDefaultTrick
                0x000000000802890c                Player_DefaultTrick
                0x0000000008028adc                DoTrickIfButtonPressed
                0x0000000008028d74                Player_8028D74
                0x0000000008028e24                Player_TouchNormalSpring
                0x0000000008029074                Player_8029074
                0x0000000008029158                Player_InitRampOrDashRing
                0x0000000008029314                Player_8029314
                0x000000000802940c                Player_DashRing
                0x00000000080294f4                Player_TryMidAirAction
                0x000000000802966c                Player_HandleGroundMovement
                0x000000000802989c                Player_HandleBoostThreshold
                0x00000000080298dc                sub_80298DC
                0x0000000008029990                Player_HandleWalkAnim
                0x00000000080299f0                CallSetStageSpawnPos
                0x00000000080299fc                DestroyPlayerTasks
                0x0000000008029a28                sub_8029A28
                0x0000000008029a74                sub_8029A74
                0x0000000008029ac0                sub_8029AC0
                0x0000000008029b0c                sub_8029B0C
                0x0000000008029b58                sub_8029B58
                0x0000000008029b88                sub_8029B88
                0x0000000008029bb8                sub_8029BB8
                0x0000000008029c84                sub_8029C84
                0x0000000008029ca0                sub_8029CA0
                0x0000000008029ce0                sub_8029CE0
                0x0000000008029d14                sub_8029D14
                0x0000000008029d64                Player_UpdatePosition
                0x0000000008029dc8                PlayerFn_Cmd_UpdateAirFallSpeed
                0x0000000008029de8                sub_8029DE8
                0x0000000008029e24                DeadPlayerLeftScreen_UnusedCopy
                0x0000000008029e6c                Player_TryJump
                0x0000000008029ed8                sub_8029ED8
                0x0000000008029f20                sub_8029F20
                0x0000000008029f4c                ContinueLevelSongAfterDrowning
                0x0000000008029fa4                sub_8029FA4
                0x0000000008029ff0                Player_SetMovestate_IsInScriptedSequence
                0x000000000802a004                Player_ClearMovestate_IsInScriptedSequence
                0x000000000802a018                Player_DisableInputAndBossTimer
                0x000000000802a050                Player_DisableInputAndBossTimer_FinalBoss
                0x000000000802a07c                TaskDestructor_Player
                0x000000000802a0c8                Player_TryTaunt
                0x000000000802a0fc                Player_TryCrouchOrSpinAttack
                0x000000000802a184                Player_TryInitSpindash
                0x000000000802a1c8                Player_ApplyBoostPhysics
                0x000000000802a228                Player_InitCrouch
                0x000000000802a258                Player_802A258
                0x000000000802a2a8                Player_TryAttack
                0x000000000802a300                Player_InitDashRing
                0x000000000802a360                Player_InitIceSlide
                0x000000000802a3b8                PlayerFn_Cmd_HandlePhysics
                0x000000000802a3c4                Player_802A3C4
                0x000000000802a3f0                Player_CameraShift
                0x000000000802a40c                Player_InitSpecialStageTransition
                0x000000000802a468                Player_InitKilledBoss
                0x000000000802a4b8                Player_InitReachedGoalMultiplayer
                0x000000000802a4fc                Player_Nop
                0x000000000802a500                sub_802A500
                0x000000000802a52c                sub_802A52C
                0x000000000802a558                sub_802A558
                0x000000000802a58c                sub_802A58C
                0x000000000802a5ac                sub_802A5AC
                0x000000000802a5c4                Player_Skidding
                0x000000000802a620                Player_InitTaunt
                0x000000000802a660                sub_802A660
                0x000000000802a6c0                sub_802A6C0
                0x000000000802a714                Player_InitAttack
 src/game/stage/item_tasks.o(.text)
 .text          0x000000000802a7a8      0x6c4 src/game/stage/item_tasks.o
                0x000000000802a7a8                CreateItemTask_Shield_Normal
                0x000000000802a854                CreateItemTask_Invincibility
                0x000000000802a8f8                CreateItemTask_Shield_Magnetic
                0x000000000802a9a4                CreateItemTask_Confusion
                0x000000000802aa48                Task_Item_Shield_Normal
                0x000000000802ab04                Task_Item_Shield_Magnetic
                0x000000000802abc8                Task_802ABC8
                0x000000000802ac60                Task_Item_Invincibility
                0x000000000802ad60                Task_Item_Confusion
                0x000000000802ae58                TaskDestructor_ItemTasks
 src/game/stage/underwater_effects.o(.text)
 .text          0x000000000802ae6c      0x590 src/game/stage/underwater_effects.o
                0x000000000802af60                SpawnDrowningCountdownNum
                0x000000000802b018                SpawnAirBubbles
                0x000000000802b118                RandomlySpawnAirBubbles
                0x000000000802b3bc                SpawnBubblesAfterDrowning
 src/game/stage/screen_shake.o(.text)
 .text          0x000000000802b3fc      0x188 src/game/stage/screen_shake.o
                0x000000000802b3fc                Task_ScreenShake
                0x000000000802b4f8                CreateScreenShake
 src/game/stage/player_controls.o(.text)
 .text          0x000000000802b584       0xa8 src/game/stage/player_controls.o
                0x000000000802b584                sub_802B584
                0x000000000802b61c                SetPlayerControls
 src/game/stage/player_super_sonic.o(.text)
 .text          0x000000000802b62c     0x13b8 src/game/stage/player_super_sonic.o
                0x000000000802b708                SuperSonicInit
                0x000000000802b81c                sub_802B81C
                0x000000000802ba8c                sub_802BA8C
                0x000000000802bb54                sub_802BB54
                0x000000000802bccc                sub_802BCCC
                0x000000000802c668                SuperSonicGetPos
                0x000000000802c6b4                SuperSonicSetPos
                0x000000000802c6e4                SuperSonicGetFlags
                0x000000000802c704                sub_802C704
                0x000000000802c750                SuperSonicGetSprite
                0x000000000802c770                SuperSonicGetRotation
                0x000000000802c798                sub_802C798
                0x000000000802c9e0                sub_802C9E0
 src/game/stage/ui.o(.text)
 .text          0x000000000802c9e4      0x8b4 src/game/stage/ui.o
                0x000000000802c9e4                CreateStageUI
                0x000000000802cce0                Task_StageUIMain
                0x000000000802d170                StageUI_PrintIntegerAt
                0x000000000802d25c                TaskDestructor_CreateStageUI
 src/game/stage/debug_text_printer.o(.text)
 .text          0x000000000802d298      0x234 src/game/stage/debug_text_printer.o
                0x000000000802d298                Debug_CreateAsciiTask
                0x000000000802d348                Debug_PrintIntegerAt
                0x000000000802d434                Debug_PrintTextAt
                0x000000000802d4b4                Task_802D4B4
                0x000000000802d4b8                TaskDestructor_802D4B8
 src/game/stage/screen_fade.o(.text)
 .text          0x000000000802d4cc      0x184 src/game/stage/screen_fade.o
                0x000000000802d4cc                UpdateScreenFade
 src/game/stage/trapped_animals.o(.text)
 .text          0x000000000802d650      0x570 src/game/stage/trapped_animals.o
                0x000000000802db14                CreateTrappedAnimal
 src/game/stage/game_7.o(.text)
 .text          0x000000000802dbc0     0x11d8 src/game/stage/game_7.o
                0x000000000802dbc0                sub_802DBC0
                0x000000000802dcc8                sub_802DCC8
                0x000000000802ddc4                sub_802DDC4
                0x000000000802df18                sub_802DF18
                0x000000000802e044                sub_802E044
                0x000000000802e0d4                sub_802E0D4
                0x000000000802e164                sub_802E164
                0x000000000802e1ec                sub_802E1EC
                0x000000000802e278                sub_802E278
                0x000000000802e384                sub_802E384
                0x000000000802e49c                sub_802E49C
                0x000000000802e784                sub_802E784
 src/game/stage/boss_results_transition.o(.text)
 .text          0x000000000802ed98      0x310 src/game/stage/boss_results_transition.o
                0x000000000802ed98                Task_802ED98
                0x000000000802ee78                Task_802EE78
                0x000000000802ef68                sub_802EF68
                0x000000000802efdc                InitHBlankBgOffsets
                0x000000000802f038                SetBgOffsetsInRange
                0x000000000802f06c                Task_802F06C
 src/game/stage/intro.o(.text)
 .text          0x000000000802f0a8     0x1434 src/game/stage/intro.o
                0x000000000802f0a8                SetupStageIntro
 src/game/stage/results.o(.text)
 .text          0x00000000080304dc      0xf60 src/game/stage/results.o
                0x00000000080304dc                CreateStageResults
                0x00000000080310f0                StageResults_AnimateSeparator
                0x0000000008031314                StageResults_AnimateTitle
 src/game/character_select.o(.text)
 .text          0x000000000803143c     0x328c src/game/character_select.o
                0x000000000803143c                CreateCharacterSelectionScreen
 src/game/course_select.o(.text)
 .text          0x00000000080346c8     0x198c src/game/course_select.o
                0x00000000080346c8                CreateCourseSelectionScreen
 src/game/countdown.o(.text)
 .text          0x0000000008036054      0x61c src/game/countdown.o
                0x0000000008036054                CreateCourseStartCountdown
                0x0000000008036168                sub_8036168
                0x0000000008036398                sub_8036398
                0x0000000008036400                CreateRaceStartMessage
                0x0000000008036524                Task_RaceStartMessageMain
                0x0000000008036638                TaskDestructor_CourseStartCountdown
                0x0000000008036654                TaskDestructor_RaceStartMessage
 src/game/game_over.o(.text)
 .text          0x0000000008036670      0x5e4 src/game/game_over.o
                0x0000000008036670                CreateGameOverScreen
                0x00000000080366f0                Task_FadeoutToOverScreen
                0x0000000008036918                Task_GameOverScreenMain
                0x00000000080369d8                sub_80369D8
                0x0000000008036a44                Task_TimeOverScreenMain
                0x0000000008036b30                sub_8036B30
                0x0000000008036b70                sub_8036B70
                0x0000000008036bd4                DisplayOverScreenTextSprites
                0x0000000008036bec                UpdateTimeOverScreenSprites
                0x0000000008036c38                TaskDestructor_GameOverTimeOverScreen
 src/game/bosses/final_intro.o(.text)
 .text          0x0000000008036c54     0x2f00 src/game/bosses/final_intro.o
                0x0000000008036c54                CreateTrueArea53Intro
                0x0000000008036e08                CreateOrbitingEmeraldsSequence
                0x0000000008036ef8                Task_OrbitingEmeraldsMoveOutwards
                0x0000000008036fe4                Task_OrbitingEmeraldsRotate
                0x00000000080370c0                Task_OrbitingEmeraldsContractAndFadeScreenWhite
                0x0000000008037254                Task_DisplaySonicSonicArtworkAndDestroyTask
                0x00000000080372c8                CreateSuperSonicSpark
                0x00000000080373cc                Task_SuperSonicSpark
                0x0000000008037438                CreateActor
                0x00000000080375b4                Task_ActorSonicRunIn
                0x0000000008037674                Task_ActorSonicSlowDownTilStop
                0x0000000008037744                sub_8037744
                0x0000000008037818                sub_8037818
                0x00000000080378bc                sub_80378BC
                0x000000000803796c                sub_803796C
                0x0000000008037a38                sub_8037A38
                0x0000000008037b04                sub_8037B04
                0x0000000008037bd0                sub_8037BD0
                0x0000000008037cec                sub_8037CEC
                0x0000000008037e08                sub_8037E08
                0x0000000008037f68                sub_8037F68
                0x00000000080380b0                sub_80380B0
                0x0000000008038168                sub_8038168
                0x0000000008038238                sub_8038238
                0x00000000080382f0                sub_80382F0
                0x00000000080383b8                sub_80383B8
                0x000000000803845c                sub_803845C
                0x0000000008038500                sub_8038500
                0x00000000080385a4                sub_80385A4
                0x0000000008038664                sub_8038664
                0x000000000803872c                sub_803872C
                0x00000000080387f4                sub_80387F4
                0x0000000008038898                sub_8038898
                0x000000000803893c                sub_803893C
                0x00000000080389e0                sub_80389E0
                0x0000000008038aa0                sub_8038AA0
                0x0000000008038b6c                sub_8038B6C
                0x0000000008038c34                sub_8038C34
                0x0000000008038cd8                sub_8038CD8
                0x0000000008038d7c                sub_8038D7C
                0x0000000008038e20                sub_8038E20
                0x0000000008038ee4                sub_8038EE4
                0x0000000008038fbc                sub_8038FBC
                0x0000000008039084                sub_8039084
                0x0000000008039144                sub_8039144
                0x0000000008039208                sub_8039208
                0x00000000080392ac                Task_IntroPanIn
                0x00000000080393a4                sub_80393A4
                0x000000000803959c                IntroRenderSprites
                0x000000000803986c                CreateBackgrounds
                0x000000000803997c                sub_803997C
                0x00000000080399a4                sub_80399A4
                0x00000000080399cc                sub_80399CC
                0x0000000008039a10                sub_8039A10
                0x0000000008039a38                sub_8039A38
                0x0000000008039a4c                CreateSkipHandler
                0x0000000008039a6c                Task_SkipHandlerMain
                0x0000000008039ad4                sub_8039AD4
 src/game/bosses/explosion_parts.o(.text)
 .text          0x0000000008039b54      0x350 src/game/bosses/explosion_parts.o
                0x0000000008039b54                CreateBossParticleWithExplosionUpdate
                0x0000000008039c4c                Task_BossParticleWithExplosionUpdate
                0x0000000008039d04                CreateBossParticleStatic
                0x0000000008039dfc                Task_BossParticleStatic
 src/game/bosses/common.o(.text)
 .text          0x0000000008039ea4      0x100 src/game/bosses/common.o
                0x0000000008039ea4                CreateZoneBoss
                0x0000000008039ed4                sub_8039ED4
                0x0000000008039f14                sub_8039F14
                0x0000000008039f50                sub_8039F50
                0x0000000008039f80                Task_DestroyBossParts
 src/game/bosses/eggmobile_escape_sequence.o(.text)
 .text          0x0000000008039fa4      0x2a8 src/game/bosses/eggmobile_escape_sequence.o
                0x0000000008039fa4                CreateEggmobileEscapeSequence
 src/game/bosses/boss_1.o(.text)
 .text          0x000000000803a24c     0x2a5c src/game/bosses/boss_1.o
                0x000000000803a24c                CreateEggHammerTankII
                0x000000000803c80c                EggHammerTankIIMove
 src/game/bosses/boss_2.o(.text)
 .text          0x000000000803cca8     0x1ff0 src/game/bosses/boss_2.o
                0x000000000803cca8                CreateEggBomberTank
                0x000000000803d88c                HandleBossHit
                0x000000000803e3ec                EggBomberTankMove
 src/game/bosses/boss_3.o(.text)
 .text          0x000000000803ec98     0x28d4 src/game/bosses/boss_3.o
                0x000000000803ec98                CreateEggTotem
                0x000000000803fa84                EggTotemMove
                0x000000000803fc14                sub_803FC14
                0x000000000803ff44                sub_803FF44
 src/game/bosses/boss_4.o(.text)
 .text          0x000000000804156c     0x189c src/game/bosses/boss_4.o
                0x000000000804156c                CreateAeroEgg
                0x0000000008041d34                sub_8041D34
                0x0000000008042024                AeroEgg_InitPartsDefeated
                0x00000000080425f0                AeroEggMove
                0x00000000080427fc                CreateAeroEggBomb
 src/game/bosses/boss_5.o(.text)
 .text          0x0000000008042e08     0x2be4 src/game/bosses/boss_5.o
                0x0000000008042e08                CreateEggSaucer
                0x00000000080434ac                Task_EggSaucerIntro
                0x000000000804352c                sub_804352C
                0x00000000080435bc                sub_80435BC
                0x00000000080436e4                sub_80436E4
                0x00000000080438c4                sub_80438C4
                0x0000000008043bec                sub_8043BEC
                0x0000000008043d94                sub_8043D94
                0x0000000008043e2c                sub_8043E2C
                0x0000000008043fd0                EggSaucerMove
                0x0000000008044088                HandleCollision
                0x0000000008044540                sub_8044540
                0x0000000008044784                sub_8044784
                0x00000000080452f8                sub_80452F8
                0x0000000008045368                sub_8045368
                0x00000000080454a4                sub_80454A4
                0x0000000008045564                sub_8045564
                0x0000000008045898                sub_8045898
                0x000000000804598c                sub_804598C
                0x00000000080459a0                sub_80459A0
                0x00000000080459cc                TaskDestructor_EggSaucerMain
 src/game/bosses/boss_6.o(.text)
 .text          0x00000000080459ec     0x207c src/game/bosses/boss_6.o
                0x00000000080459ec                CreateEggGoRound
                0x0000000008047224                EggGoRoundMove
                0x00000000080474c0                HandleHit
 src/game/bosses/boss_7.o(.text)
 .text          0x0000000008047a68     0x1e64 src/game/bosses/boss_7.o
                0x0000000008047a68                CreateEggFrog
                0x0000000008048c7c                sub_8048C7C
                0x0000000008048eb4                EggFrogMove
 src/game/bosses/boss_8.o(.text)
 .text          0x00000000080498cc     0x3484 src/game/bosses/boss_8.o
                0x00000000080498cc                CreateBossRunManager
                0x000000000804a6c8                CreateSuperEggRoboZ
                0x000000000804ab24                Task_804AB24
                0x000000000804ae40                sub_804AE40
                0x000000000804b2ec                sub_804B2EC
                0x000000000804bc44                sub_804BC44
                0x000000000804c240                sub_804C240
 src/game/bosses/boss_9.o(.text)
 .text          0x000000000804cd50     0x40b4 src/game/bosses/boss_9.o
                0x000000000804cd50                SetupEggmanKidnapsVanillaTask
                0x000000000804cec4                CreateTrueArea53Boss
                0x000000000804d594                TrueArea53BossMove
                0x000000000804d6ac                Task_EggmanKidnapsVanilla
                0x000000000804d7a0                Task_TrueArea53BossMain
                0x000000000804d8e0                sub_804D8E0
                0x000000000804d9dc                Task_804D9DC
                0x000000000804db34                Task_804DB34
                0x000000000804dc60                Task_804DC60
                0x000000000804dd9c                sub_804DD9C
                0x000000000804de5c                sub_804DE5C
                0x000000000804deec                sub_804DEEC
                0x000000000804dfb0                sub_804DFB0
                0x000000000804e078                sub_804E078
                0x000000000804e15c                sub_804E15C
                0x000000000804e4cc                sub_804E4CC
                0x000000000804e66c                sub_804E66C
                0x000000000804e74c                sub_804E74C
                0x000000000804e8e8                sub_804E8E8
                0x000000000804e974                sub_804E974
                0x000000000804eb6c                sub_804EB6C
                0x000000000804ec6c                sub_804EC6C
                0x000000000804ecc4                sub_804ECC4
                0x000000000804ed98                sub_804ED98
                0x000000000804ee84                sub_804EE84
                0x000000000804ef68                sub_804EF68
                0x000000000804f010                sub_804F010
                0x000000000804f108                sub_804F108
                0x000000000804f1ec                sub_804F1EC
                0x000000000804f47c                sub_804F47C
                0x000000000804f5bc                sub_804F5BC
                0x000000000804f6ac                sub_804F6AC
                0x000000000804f768                sub_804F768
                0x000000000804f850                sub_804F850
                0x000000000804f9bc                sub_804F9BC
                0x000000000804faa4                sub_804FAA4
                0x000000000804fc10                sub_804FC10
                0x000000000804fd58                sub_804FD58
                0x000000000804fe24                sub_804FE24
                0x000000000804fefc                sub_804FEFC
                0x000000000804ff9c                sub_804FF9C
                0x0000000008050030                sub_8050030
                0x0000000008050104                sub_8050104
                0x00000000080501d4                sub_80501D4
                0x00000000080505b8                sub_80505B8
                0x00000000080508c4                sub_80508C4
                0x0000000008050958                sub_8050958
                0x0000000008050a7c                TaskDestructor_TrueArea53BossGfx
                0x0000000008050b2c                sub_8050B2C
                0x0000000008050bb0                ExtraBossIsDead
                0x0000000008050bd8                sub_8050BD8
                0x0000000008050be4                sub_8050BE4
                0x0000000008050bf0                sub_8050BF0
                0x0000000008050bfc                sub_8050BFC
                0x0000000008050c50                sub_8050C50
                0x0000000008050cbc                sub_8050CBC
                0x0000000008050d24                sub_8050D24
                0x0000000008050d9c                sub_8050D9C
                0x0000000008050dc4                sub_8050DC4
                0x0000000008050dc8                sub_8050DC8
                0x0000000008050df8                sub_8050DF8
 src/game/enemies/projectiles.o(.text)
 .text          0x0000000008050e04      0x410 src/game/enemies/projectiles.o
                0x0000000008050e04                CreateProjectile
                0x0000000008050ed8                CreateSeveralProjectiles
                0x000000000805102c                Task_805102C
                0x00000000080510b0                Task_80510B0
                0x00000000080511d8                Task_DestroyProjectileTask
                0x00000000080511ec                TaskDestructor_80511EC
                0x0000000008051200                TaskDestructor_8051200
 src/game/enemies/mon.o(.text)
 .text          0x0000000008051214      0x574 src/game/enemies/mon.o
                0x0000000008051214                CreateEntity_Mon
 src/game/enemies/gohla.o(.text)
 .text          0x0000000008051788      0x6b4 src/game/enemies/gohla.o
                0x0000000008051788                CreateEntity_Gohla
 src/game/enemies/kura_kura.o(.text)
 .text          0x0000000008051e3c      0x44c src/game/enemies/kura_kura.o
                0x0000000008051e3c                CreateEntity_KuraKura
                0x0000000008052024                Task_8052024
                0x000000000805213c                sub_805213C
                0x0000000008052264                TaskDestructor_8052264
 src/game/enemies/kubinaga.o(.text)
 .text          0x0000000008052288      0xd0c src/game/enemies/kubinaga.o
                0x0000000008052288                CreateEntity_Kubinaga
 src/game/enemies/buzzer.o(.text)
 .text          0x0000000008052f94      0x7f0 src/game/enemies/buzzer.o
                0x0000000008052f94                CreateEntity_Buzzer
 src/game/enemies/kiki.o(.text)
 .text          0x0000000008053784      0x8e4 src/game/enemies/kiki.o
                0x0000000008053784                CreateEntity_Kiki
 src/game/enemies/koura.o(.text)
 .text          0x0000000008054068      0xa88 src/game/enemies/koura.o
                0x0000000008054068                CreateEntity_Koura
 src/game/enemies/bell.o(.text)
 .text          0x0000000008054af0      0x31c src/game/enemies/bell.o
                0x0000000008054af0                CreateEntity_Bell
 src/game/enemies/yado.o(.text)
 .text          0x0000000008054e0c      0x6b4 src/game/enemies/yado.o
                0x0000000008054e0c                CreateEntity_Yado
                0x0000000008054f00                Task_YadoMain
                0x0000000008055084                Task_8055084
                0x0000000008055378                Task_8055378
                0x00000000080554ac                TaskDestructor_Yado
 src/game/enemies/piko_piko.o(.text)
 .text          0x00000000080554c0      0x330 src/game/enemies/piko_piko.o
                0x00000000080554c0                CreateEntity_PikoPiko
 src/game/enemies/circus.o(.text)
 .text          0x00000000080557f0      0x6ec src/game/enemies/circus.o
                0x00000000080557f0                CreateEntity_Circus
                0x0000000008055950                Task_CircusMain
                0x0000000008055ab8                Task_8055AB8
                0x0000000008055c0c                Task_8055C0C
                0x0000000008055d7c                Task_8055D7C
                0x0000000008055ec0                TaskDestructor_Circus
 src/game/enemies/madillo.o(.text)
 .text          0x0000000008055edc      0x7a8 src/game/enemies/madillo.o
                0x0000000008055edc                CreateEntity_Madillo
 src/game/enemies/straw.o(.text)
 .text          0x0000000008056684      0x574 src/game/enemies/straw.o
                0x0000000008056684                CreateEntity_Straw
                0x00000000080567f8                sub_80567F8
                0x0000000008056964                Task_StrawMain
                0x0000000008056af4                sub_8056AF4
 src/game/enemies/hammerhead.o(.text)
 .text          0x0000000008056bf8      0x330 src/game/enemies/hammerhead.o
                0x0000000008056bf8                CreateEntity_Hammerhead
 src/game/enemies/spinner.o(.text)
 .text          0x0000000008056f28      0x28c src/game/enemies/spinner.o
                0x0000000008056f28                CreateEntity_Spinner
                0x0000000008057024                Task_EnemySpinner
 src/game/enemies/mouse.o(.text)
 .text          0x00000000080571b4      0x6a0 src/game/enemies/mouse.o
                0x00000000080571b4                CreateEntity_Mouse
 src/game/enemies/pen.o(.text)
 .text          0x0000000008057854      0x530 src/game/enemies/pen.o
                0x0000000008057854                CreateEntity_Pen
 src/game/enemies/geji_geji.o(.text)
 .text          0x0000000008057d84      0x718 src/game/enemies/geji_geji.o
                0x0000000008057d84                CreateEntity_GejiGeji
 src/game/enemies/balloon.o(.text)
 .text          0x000000000805849c      0x484 src/game/enemies/balloon.o
                0x000000000805849c                CreateEntity_Balloon
                0x00000000080585dc                Task_BalloonMain
                0x000000000805879c                sub_805879C
 src/game/enemies/flickey.o(.text)
 .text          0x0000000008058920      0xa94 src/game/enemies/flickey.o
                0x0000000008058920                CreateEntity_Flickey
 src/game/enemies/kyura.o(.text)
 .text          0x00000000080593b4      0x368 src/game/enemies/kyura.o
                0x00000000080593b4                CreateEntity_Kyura
                0x00000000080594e0                Task_KyuraMain
                0x00000000080596c4                Task_KyuraRecover
 src/game/enemies/bullet_buzzer.o(.text)
 .text          0x000000000805971c      0x580 src/game/enemies/bullet_buzzer.o
                0x000000000805971c                CreateEntity_BulletBuzzer
                0x0000000008059858                Task_BulletBuzzerMain
                0x0000000008059b04                sub_8059B04
 src/game/enemies/star.o(.text)
 .text          0x0000000008059c9c      0x530 src/game/enemies/star.o
                0x0000000008059c9c                CreateEntity_Star
 src/game/multiplayer/mode_select.o(.text)
 .text          0x000000000805a1cc      0x90c src/game/multiplayer/mode_select.o
                0x000000000805a1cc                CreateMultiplayerModeSelectScreen
 src/game/multiplayer/multipak_connection.o(.text)
 .text          0x000000000805aad8      0xf38 src/game/multiplayer/multipak_connection.o
                0x000000000805aad8                StartMultiPakConnect
                0x000000000805b9a4                MultiPakCommunicationError
 src/game/multiplayer/communication_outcome.o(.text)
 .text          0x000000000805ba10      0x3dc src/game/multiplayer/communication_outcome.o
                0x000000000805ba10                CreateMultipackOutcomeScreen
 src/game/multiplayer/results.o(.text)
 .text          0x000000000805bdec      0x9a0 src/game/multiplayer/results.o
                0x000000000805bdec                CreateMultiplayerResultsScreen
 src/game/multiplayer/team_play.o(.text)
 .text          0x000000000805c78c      0xf04 src/game/multiplayer/team_play.o
                0x000000000805c78c                CreateMultiplayerTeamPlayScreen
 src/game/interactables_1/decoration.o(.text)
 .text          0x000000000805d690      0x198 src/game/interactables_1/decoration.o
                0x000000000805d690                CreateEntity_Decoration
                0x000000000805d794                Task_Decoration
                0x000000000805d814                TaskDestructor_Decoration
 src/game/interactables_1/booster.o(.text)
 .text          0x000000000805d828      0x2ec src/game/interactables_1/booster.o
                0x000000000805d828                CreateEntity_Booster
 src/game/interactables_1/incline_ramp.o(.text)
 .text          0x000000000805db14      0x230 src/game/interactables_1/incline_ramp.o
                0x000000000805dcf4                CreateEntity_InclineRamp
 src/game/interactables_1/spring_bouncy.o(.text)
 .text          0x000000000805dd44      0x3dc src/game/interactables_1/spring_bouncy.o
                0x000000000805dd44                CreateEntity_BouncySpring
 src/game/interactables_1/platform_crumbling.o(.text)
 .text          0x000000000805e120      0x770 src/game/interactables_1/platform_crumbling.o
                0x000000000805e120                CreateEntity_PlatformCrumbling
 src/game/interactables_1/toggle_player_layer.o(.text)
 .text          0x000000000805e890      0x108 src/game/interactables_1/toggle_player_layer.o
                0x000000000805e94c                CreateEntity_Toggle_PlayerLayer
 src/game/interactables_1/rotating_handle.o(.text)
 .text          0x000000000805e998      0x700 src/game/interactables_1/rotating_handle.o
                0x000000000805e998                CreateEntity_RotatingHandle
                0x000000000805eca0                Task_Rotating
 src/game/interactables_1/gapped_loop.o(.text)
 .text          0x000000000805f098      0x580 src/game/interactables_1/gapped_loop.o
                0x000000000805f548                CreateEntity_GappedLoop_Start
                0x000000000805f5b0                CreateEntity_GappedLoop_End
 src/game/interactables_1/spikes.o(.text)
 .text          0x000000000805f618     0x171c src/game/interactables_1/spikes.o
                0x000000000805f618                CreateEntity_Spikes_Up
                0x000000000805f714                CreateEntity_Spikes_Down
                0x000000000805fa70                CreateEntity_Spikes_LeftRight
                0x000000000805fe70                CreateEntity_Spikes_HidingUp
                0x0000000008060034                CreateEntity_Spikes_HidingDown
 src/game/interactables_1/corkscrew.o(.text)
 .text          0x0000000008060d34      0x7b8 src/game/interactables_1/corkscrew.o
                0x0000000008060d34                Task_8060D34
                0x0000000008060ed0                sub_8060ED0
                0x0000000008061088                sub_8061088
                0x0000000008061228                sub_8061228
                0x00000000080613e4                CreateEntity_Corkscrew_Start
                0x0000000008061438                CreateEntity_Corkscrew_End
                0x000000000806148c                sub_806148C
 src/game/interactables_1/bouncy_bar.o(.text)
 .text          0x00000000080614ec      0x428 src/game/interactables_1/bouncy_bar.o
                0x00000000080614ec                CreateEntity_BouncyBar
 src/game/interactables_1/corkscrew_3d.o(.text)
 .text          0x0000000008061914      0xdc8 src/game/interactables_1/corkscrew_3d.o
                0x0000000008061914                Task_8061914
                0x0000000008061ab0                sub_8061AB0
                0x0000000008061c70                Task_8061C70
                0x0000000008061da4                Task_8061DA4
                0x0000000008061f60                Task_8061F60
                0x0000000008062100                Task_8062100
                0x00000000080622c8                Task_80622C8
                0x0000000008062414                Task_8062414
                0x00000000080625d4                CreateEntity_Corkscrew3D_Start
                0x0000000008062628                CreateEntity_Corkscrew3D_End
                0x000000000806267c                sub_806267C
 src/game/interactables_1/stage_goal.o(.text)
 .text          0x00000000080626dc      0x7b4 src/game/interactables_1/stage_goal.o
                0x00000000080626dc                CreateEntity_StageGoal
                0x0000000008062e30                CreateEntity_Toggle_StageGoal
 src/game/interactables_1/checkpoint.o(.text)
 .text          0x0000000008062e90      0x568 src/game/interactables_1/checkpoint.o
                0x0000000008062e90                CreateEntity_Checkpoint
                0x00000000080633a0                CreateEntity_Toggle_Checkpoint
 src/game/interactables_1/windmill.o(.text)
 .text          0x00000000080633f8      0x338 src/game/interactables_1/windmill.o
                0x00000000080633f8                CreateEntity_Windmill
 src/game/options_screen.o(.text)
 .text          0x0000000008063730     0x8354 src/game/options_screen.o
                0x0000000008063730                CreateOptionsScreen
                0x00000000080637ec                CreateTimeAttackLevelSelectScreen
                0x0000000008063940                CreateNewProfileScreen
                0x0000000008063a00                CreateNewProfileNameScreen
                0x000000000806a568                sub_806A568
                0x000000000806b854                OptionsInitBackground
 src/game/special_stage/main.o(.text)
 .text          0x000000000806ba84     0x1004 src/game/special_stage/main.o
                0x000000000806ba84                CreateSpecialStage
                0x000000000806bd28                Task_IntroScreenMain
                0x000000000806be40                Task_SpecialStageStartDelay
                0x000000000806be9c                Task_SpecialStageMain
                0x000000000806bfd0                sub_806BFD0
                0x000000000806c050                Task_FadeToResultScreen
                0x000000000806c158                sub_806C158
                0x000000000806c25c                sub_806C25C
                0x000000000806c338                sub_806C338
                0x000000000806c42c                sub_806C42C
                0x000000000806c49c                sub_806C49C
                0x000000000806c560                sub_806C560
                0x000000000806c638                sub_806C638
                0x000000000806c6a4                sub_806C6A4
                0x000000000806c9cc                Task_FadeInSpecialStage
                0x000000000806ca18                sub_806CA18
                0x000000000806ca54                sub_806CA54
 src/game/special_stage/utils.o(.text)
 .text          0x000000000806ca88      0x4f0 src/game/special_stage/utils.o
                0x000000000806ca88                sub_806CA88
                0x000000000806cb84                SpecialStageCalcEntityScreenPosition
                0x000000000806cd68                sub_806CD68
                0x000000000806cea8                InitSpecialStageScreenVram
                0x000000000806cec4                SpecialStageDrawBackground
                0x000000000806cf44                MaxSpriteSize
 src/game/special_stage/player.o(.text)
 .text          0x000000000806cf78      0x918 src/game/special_stage/player.o
                0x000000000806cf78                CreateSpecialStagePlayer
                0x000000000806d2c8                sub_806D2C8
                0x000000000806d388                sub_806D388
                0x000000000806d424                sub_806D424
                0x000000000806d484                sub_806D484
                0x000000000806d4e4                sub_806D4E4
                0x000000000806d548                sub_806D548
                0x000000000806d5cc                sub_806D5CC
                0x000000000806d5d0                sub_806D5D0
                0x000000000806d634                sub_806D634
                0x000000000806d698                sub_806D698
                0x000000000806d6dc                sub_806D6DC
                0x000000000806d740                sub_806D740
                0x000000000806d788                sub_806D788
                0x000000000806d7d0                sub_806D7D0
                0x000000000806d830                sub_806D830
 src/game/special_stage/collectables.o(.text)
 .text          0x000000000806d890      0xe58 src/game/special_stage/collectables.o
                0x000000000806d890                SpecialStageHandleCollectRings
                0x000000000806d924                SpecialStageHandleLoseRings
                0x000000000806d9b4                Task_InitObjects
                0x000000000806db48                sub_806DB48
                0x000000000806dc98                HandleCollectableCollision
                0x000000000806de10                sub_806DE10
                0x000000000806dea4                sub_806DEA4
                0x000000000806e038                sub_806E038
                0x000000000806e1ac                sub_806E1AC
                0x000000000806e4fc                sub_806E4FC
                0x000000000806e584                sub_806E584
                0x000000000806e684                CreateSpecialStageCollectables
 src/game/special_stage/world.o(.text)
 .text          0x000000000806e6e8      0x53c src/game/special_stage/world.o
                0x000000000806e6e8                CreateSpecialStageWorld
                0x000000000806e7c0                sub_806E7C0
                0x000000000806e94c                sub_806E94C
                0x000000000806ea04                sub_806EA04
                0x000000000806eb74                sub_806EB74
                0x000000000806ebf4                sub_806EBF4
 src/game/special_stage/physics.o(.text)
 .text          0x000000000806ec24      0xee0 src/game/special_stage/physics.o
                0x000000000806edb4                HandleMovementControls
                0x000000000806ef44                HandleRotationControls
                0x000000000806efb4                sub_806EFB4
                0x000000000806f034                sub_806F034
                0x000000000806f0c4                sub_806F0C4
                0x000000000806f154                sub_806F154
                0x000000000806f1e8                sub_806F1E8
                0x000000000806f300                sub_806F300
                0x000000000806f36c                sub_806F36C
                0x000000000806f3c4                sub_806F3C4
                0x000000000806f468                sub_806F468
                0x000000000806f604                HandleBoost2
                0x000000000806f84c                CalcRoboCollision
                0x000000000806f910                CreateSpecialStagePhysics
                0x000000000806f944                HandleRoboPlayerCollision
                0x000000000806f9cc                sub_806F9CC
                0x000000000806f9e4                sub_806F9E4
                0x000000000806faa0                sub_806FAA0
                0x000000000806fb00                sub_806FB00
 src/game/special_stage/ui.o(.text)
 .text          0x000000000806fb04     0x13f8 src/game/special_stage/ui.o
                0x000000000806fb04                sub_806FB04
                0x000000000806ffc8                RenderRingCounters
                0x0000000008070078                UpdateRingCounters
                0x0000000008070590                Task_ResultsScreenSequencePart1
                0x000000000807061c                sub_807061C
                0x0000000008070680                sub_8070680
                0x00000000080706d8                sub_80706D8
                0x0000000008070740                sub_8070740
                0x00000000080707a8                sub_80707A8
                0x0000000008070814                Task_ResultsScreenNewEmeraldSequencePart1
                0x0000000008070b90                CreateSpecialStageUI
                0x0000000008070bec                sub_8070BEC
                0x0000000008070bf0                CreateSpecialStageResultsScreen
                0x0000000008070c2c                SpecialStageResultsScreenOnDestroy
                0x0000000008070c30                SpecialStageResultsScreenNewEmeraldSequence
                0x0000000008070c58                RenderTime
                0x0000000008070d14                RenderMultiplier
                0x0000000008070d80                CreateStartText
                0x0000000008070dd0                RenderStartText
                0x0000000008070de0                sub_8070DE0
                0x0000000008070ee4                Task_ResultsScreenNewEmeraldSequencePart2
                0x0000000008070ef0                Task_ResultsScreenSequencePart2
 src/game/special_stage/guard_robo.o(.text)
 .text          0x0000000008070efc      0x694 src/game/special_stage/guard_robo.o
                0x0000000008070fa0                Task_GuardRoboMain
                0x00000000080710b0                sub_80710B0
                0x000000000807120c                sub_807120C
                0x0000000008071380                sub_8071380
                0x0000000008071438                CreateSpecialStageGuardRobo
                0x0000000008071478                sub_8071478
                0x00000000080714c4                sub_80714C4
                0x00000000080714c8                sub_80714C8
                0x00000000080714f4                sub_80714F4
 src/game/save.o(.text)
 .text          0x0000000008071590     0x1024 src/game/save.o
                0x0000000008071590                InsertMultiplayerProfile
                0x00000000080716f0                RecordOwnMultiplayerResult
                0x000000000807174c                RecordMultiplayerResult
                0x00000000080723c4                SaveInit
                0x000000000807241c                SaveGameExists
                0x0000000008072474                LoadSaveGame
                0x0000000008072484                WriteSaveGame
                0x00000000080724b0                NewSaveGame
                0x00000000080724c0                LoadCompletedSaveGame
 src/game/interactables_2/hot_crater/windup_stick.o(.text)
 .text          0x00000000080725b4      0x524 src/game/interactables_2/hot_crater/windup_stick.o
                0x00000000080725b4                CreateEntity_WindUpStick
 src/game/interactables_2/hot_crater/hook_rail.o(.text)
 .text          0x0000000008072ad8      0x89c src/game/interactables_2/hot_crater/hook_rail.o
                0x0000000008072ad8                CreateEntity_HookRail
                0x000000000807329c                CreateEntity_HookRail_Unused
                0x00000000080732c8                CreateEntity_HookRail_Start
                0x00000000080732f4                CreateEntity_HookRail_End
 src/game/interactables_2/hot_crater/turnaround_bar.o(.text)
 .text          0x0000000008073374      0x500 src/game/interactables_2/hot_crater/turnaround_bar.o
                0x0000000008073374                CreateEntity_TurnAroundBar
 src/game/interactables_2/hot_crater/crane.o(.text)
 .text          0x0000000008073874      0xdb8 src/game/interactables_2/hot_crater/crane.o
                0x0000000008073874                CreateEntity_Crane
 src/game/interactables_2/hot_crater/dash_ring.o(.text)
 .text          0x000000000807462c      0x688 src/game/interactables_2/hot_crater/dash_ring.o
                0x000000000807462c                CreateEntity_DashRing
                0x0000000008074c48                DashRing_ShouldDespawn
 src/game/interactables_2/hot_crater/floating_spring.o(.text)
 .text          0x0000000008074cb4      0x6bc src/game/interactables_2/hot_crater/floating_spring.o
                0x0000000008074cb4                CreateEntity_FloatingSpring_Up
 src/game/interactables_2/music_plant/note_sphere.o(.text)
 .text          0x0000000008075370      0x5cc src/game/interactables_2/music_plant/note_sphere.o
                0x0000000008075370                CreateEntity_NoteSphere
 src/game/interactables_2/music_plant/note_block.o(.text)
 .text          0x000000000807593c      0x4c4 src/game/interactables_2/music_plant/note_block.o
                0x000000000807593c                CreateEntity_NoteBlock
 src/game/interactables_2/music_plant/bouncy_chain.o(.text)
 .text          0x0000000008075e00      0x568 src/game/interactables_2/music_plant/bouncy_chain.o
                0x0000000008075e00                CreateEntity_BouncyChain
 src/game/interactables_2/music_plant/keyboard.o(.text)
 .text          0x0000000008076368      0x5c0 src/game/interactables_2/music_plant/keyboard.o
                0x0000000008076368                CreateEntity_Keyboard
                0x00000000080768c8                CreateEntity_Keyboard_Vertical
                0x00000000080768e8                CreateEntity_Keyboard_Horizontal_PushLeft
                0x0000000008076908                CreateEntity_Keyboard_Horizontal_PushRight
 src/game/interactables_2/music_plant/german_flute.o(.text)
 .text          0x0000000008076928      0x5e4 src/game/interactables_2/music_plant/german_flute.o
                0x0000000008076d2c                CreateEntity_GermanFlute
 src/game/interactables_2/music_plant/pipe_horn.o(.text)
 .text          0x0000000008076f0c      0xe98 src/game/interactables_2/music_plant/pipe_horn.o
                0x0000000008076f0c                Handler_MusicPlant_Pipe_0
                0x0000000008076f98                Handler_MusicPlant_Pipe_1
                0x0000000008077058                Handler_MusicPlant_Pipe_2
                0x0000000008077118                Handler_MusicPlant_Pipe_3
                0x00000000080771d8                Handler_MusicPlant_Pipe_4
                0x00000000080772a0                Handler_MusicPlant_Pipe_5
                0x0000000008077364                Handler_MusicPlant_Pipe_6
                0x000000000807742c                Handler_MusicPlant_Pipe_7
                0x00000000080774f4                Handler_MusicPlant_Pipe_8
                0x00000000080775b8                Handler_MusicPlant_Pipe_9
                0x00000000080776b0                Handler_MusicPlant_Pipe_10
                0x0000000008077774                sub_8077774
                0x0000000008077788                sub_8077788
                0x00000000080777c8                sub_80777C8
                0x0000000008077840                sub_8077840
                0x00000000080778ac                sub_80778AC
                0x00000000080778e4                sub_80778E4
                0x000000000807794c                sub_807794C
                0x0000000008077994                sub_8077994
                0x00000000080779b0                CreateEntity_PipeInstrument_Entry
                0x0000000008077a3c                sub_8077A3C
                0x0000000008077aac                sub_8077AAC
                0x0000000008077abc                sub_8077ABC
                0x0000000008077b98                sub_8077B98
                0x0000000008077c04                Task_FrenchHorn_8077C04
                0x0000000008077c3c                sub_8077C3C
                0x0000000008077ca0                sub_8077CA0
                0x0000000008077cb0                sub_8077CB0
                0x0000000008077cf8                FrenchHorn_Despawn
                0x0000000008077d14                CreateEntity_FrenchHorn_Entry
                0x0000000008077da0                TaskDestructor_FrenchHorn
 src/game/interactables_2/ice_paradise/slowing_snow.o(.text)
 .text          0x0000000008077da4      0x1d8 src/game/interactables_2/ice_paradise/slowing_snow.o
                0x0000000008077da4                CreateEntity_SlowingSnow
 src/game/interactables_2/ice_paradise/funnel_sphere.o(.text)
 .text          0x0000000008077f7c      0x710 src/game/interactables_2/ice_paradise/funnel_sphere.o
                0x00000000080785b0                CreateEntity_FunnelSphere
 src/game/interactables_2/ice_paradise/half_pipe.o(.text)
 .text          0x000000000807868c      0x490 src/game/interactables_2/ice_paradise/half_pipe.o
                0x0000000008078adc                CreateEntity_HalfPipe_End
                0x0000000008078afc                CreateEntity_HalfPipe_Start
 src/game/interactables_2/ice_paradise/big_snowball.o(.text)
 .text          0x0000000008078b1c      0xda8 src/game/interactables_2/ice_paradise/big_snowball.o
                0x0000000008078b1c                CreateEntity_BigSnowball
                0x0000000008078e48                sub_8078E48
                0x00000000080791b4                sub_80791B4
                0x00000000080792ac                sub_80792AC
                0x0000000008079510                sub_8079510
                0x0000000008079560                sub_8079560
                0x0000000008079624                sub_8079624
                0x00000000080796a8                sub_80796A8
                0x000000000807974c                Task_Interactable069
                0x0000000008079794                TaskDestructor_Interactable069
                0x00000000080797ac                sub_80797AC
                0x00000000080797e8                sub_80797E8
                0x0000000008079810                sub_8079810
                0x0000000008079888                sub_8079888
 src/game/interactables_2/techno_base/bounce_block.o(.text)
 .text          0x00000000080798c4      0x4f0 src/game/interactables_2/techno_base/bounce_block.o
                0x00000000080798c4                CreateEntity_BounceBlock
 src/game/interactables_2/techno_base/light_bridge.o(.text)
 .text          0x0000000008079db4      0x588 src/game/interactables_2/techno_base/light_bridge.o
                0x0000000008079db4                CreateEntity_LightBridge
 src/game/interactables_2/techno_base/arrow_platform.o(.text)
 .text          0x000000000807a33c      0x8c8 src/game/interactables_2/techno_base/arrow_platform.o
                0x000000000807aba4                CreateEntity_ArrowPlatform_Left
                0x000000000807abc4                CreateEntity_ArrowPlatform_Right
                0x000000000807abe4                CreateEntity_ArrowPlatform_Up
 src/game/interactables_2/techno_base/spike_platform.o(.text)
 .text          0x000000000807ac04      0x484 src/game/interactables_2/techno_base/spike_platform.o
                0x000000000807ac04                CreateEntity_SpikePlatform
 src/game/interactables_2/techno_base/light_globe.o(.text)
 .text          0x000000000807b088      0x35c src/game/interactables_2/techno_base/light_globe.o
                0x000000000807b088                CreateEntity_LightGlobe
 src/game/interactables_2/sky_canyon/propeller.o(.text)
 .text          0x000000000807b3e4      0x734 src/game/interactables_2/sky_canyon/propeller.o
                0x000000000807b828                IsPlayerInteracting
                0x000000000807ba54                sub_807BA54
                0x000000000807ba98                CreateEntity_Propeller
 src/game/interactables_2/sky_canyon/small_windmill.o(.text)
 .text          0x000000000807bb18      0x75c src/game/interactables_2/sky_canyon/small_windmill.o
                0x000000000807bb18                CreateEntity_SmallWindmill
 src/game/interactables_2/sky_canyon/propeller_spring.o(.text)
 .text          0x000000000807c274      0x544 src/game/interactables_2/sky_canyon/propeller_spring.o
                0x000000000807c63c                CreateEntity_PropellerSpring
 src/game/interactables_2/sky_canyon/whirlwind.o(.text)
 .text          0x000000000807c7b8      0xb3c src/game/interactables_2/sky_canyon/whirlwind.o
                0x000000000807c7b8                CreateEntity_Whirlwind
                0x000000000807c9c0                sub_807C9C0
                0x000000000807ca64                sub_807CA64
                0x000000000807cb78                sub_807CB78
                0x000000000807cc28                sub_807CC28
                0x000000000807ccbc                sub_807CCBC
                0x000000000807ce94                sub_807CE94
                0x000000000807cf2c                sub_807CF2C
                0x000000000807cfb4                sub_807CFB4
                0x000000000807d0c4                Task_807D0C4
                0x000000000807d118                TaskDestructor_Interactable086
                0x000000000807d130                sub_807D130
                0x000000000807d16c                sub_807D16C
                0x000000000807d188                sub_807D188
                0x000000000807d1bc                sub_807D1BC
                0x000000000807d228                CreateEntity_Whirlwind_A
                0x000000000807d248                CreateEntity_Whirlwind_B
                0x000000000807d268                Task_807D268
                0x000000000807d2bc                sub_807D2BC
 src/game/interactables_2/sky_canyon/fan.o(.text)
 .text          0x000000000807d2f4      0x6d4 src/game/interactables_2/sky_canyon/fan.o
                0x000000000807d8e0                DestroyTask_Interactable087
                0x000000000807d8f8                CreateEntity_Fan_Left
                0x000000000807d918                CreateEntity_Fan_Right
                0x000000000807d938                CreateEntity_Fan_Left_Periodic
                0x000000000807d958                CreateEntity_Fan_Right_Periodic
                0x000000000807d978                Task_IA_SmallPropeller_UpdateInFanRegion
                0x000000000807d9b4                SetTaskMain_UpdateRegular
 src/game/interactables_2/egg_utopia/launcher.o(.text)
 .text          0x000000000807d9c8      0x858 src/game/interactables_2/egg_utopia/launcher.o
                0x000000000807d9c8                CreateEntity_Launcher
                0x000000000807de98                Task_807DE98
                0x000000000807df38                TaskDestructor_807DF38
                0x000000000807e0ec                CreateEntity_Launcher_Left_GDown
                0x000000000807e10c                CreateEntity_Launcher_Right_GDown
                0x000000000807e12c                CreateEntity_Launcher_Left_GUp
                0x000000000807e14c                CreateEntity_Launcher_Right_GUp
 src/game/interactables_2/egg_utopia/cannon.o(.text)
 .text          0x000000000807e220      0x790 src/game/interactables_2/egg_utopia/cannon.o
                0x000000000807e220                CreateEntity_Cannon
                0x000000000807e66c                IsPlayerTouching
 src/game/interactables_2/egg_utopia/pole.o(.text)
 .text          0x000000000807e9b0      0x488 src/game/interactables_2/egg_utopia/pole.o
                0x000000000807e9b0                CreateEntity_Pole
 src/game/interactables_2/egg_utopia/iron_ball.o(.text)
 .text          0x000000000807ee38      0x394 src/game/interactables_2/egg_utopia/iron_ball.o
                0x000000000807ee38                CreateEntity_IronBall
 src/game/interactables_2/egg_utopia/flying_handle.o(.text)
 .text          0x000000000807f1cc      0x710 src/game/interactables_2/egg_utopia/flying_handle.o
                0x000000000807f1cc                CreateEntity_FlyingHandle
 src/game/interactables_2/egg_utopia/speeding_platform.o(.text)
 .text          0x000000000807f8dc      0x730 src/game/interactables_2/egg_utopia/speeding_platform.o
                0x000000000807f8dc                CreateEntity_SpeedingPlatform
 src/game/interactables_2/egg_utopia/gravity_toggle.o(.text)
 .text          0x000000000808000c      0x35c src/game/interactables_2/egg_utopia/gravity_toggle.o
                0x00000000080800d4                ChangeGravityByKind
                0x00000000080802b8                CreateEntity_Toggle_Gravity__Down
                0x00000000080802d8                CreateEntity_Toggle_Gravity__Up
                0x00000000080802f8                CreateEntity_Toggle_Gravity__Toggle
 src/game/interactables_2/notification_ring_bonus.o(.text)
 .text          0x0000000008080368      0x464 src/game/interactables_2/notification_ring_bonus.o
                0x0000000008080368                CreateEntity_MultiplayerTeleport
                0x00000000080803fc                sub_80803FC
                0x000000000808055c                sub_808055C
                0x00000000080805d0                sub_80805D0
                0x0000000008080664                CreateSprite_Notif_RingBonus
                0x00000000080806f4                Task_80806F4
                0x000000000808073c                sub_808073C
 src/game/interactables_2/sky_canyon_init.o(.text)
 .text          0x00000000080807cc      0x154 src/game/interactables_2/sky_canyon_init.o
                0x00000000080807cc                sub_80807CC
 src/game/interactables_2/105.o(.text)
 .text          0x0000000008080920      0x1dc src/game/interactables_2/105.o
                0x0000000008080920                CreateEntity_Interactable105
 src/game/interactables_2/note_particle.o(.text)
 .text          0x0000000008080afc      0x42c src/game/interactables_2/note_particle.o
                0x0000000008080afc                CreateAngledNoteParticle
                0x0000000008080c78                CreateNoteParticle
 src/game/interactables_2/special_ring.o(.text)
 .text          0x0000000008080f28      0x2d8 src/game/interactables_2/special_ring.o
                0x0000000008080f28                CreateEntity_SpecialRing
 src/game/multiboot/connection.o(.text)
 .text          0x0000000008081200      0xcc0 src/game/multiboot/connection.o
                0x0000000008081200                sub_8081200
                0x000000000808129c                StartSinglePakConnect
                0x0000000008081604                sub_8081604
                0x00000000080818b8                sub_80818B8
                0x0000000008081a5c                sub_8081A5C
                0x0000000008081ad4                sub_8081AD4
                0x0000000008081c0c                ShowSinglePakResults
                0x0000000008081c50                sub_8081C50
                0x0000000008081c8c                sub_8081C8C
                0x0000000008081cc4                sub_8081CC4
                0x0000000008081d04                sub_8081D04
                0x0000000008081d58                sub_8081D58
                0x0000000008081d70                sub_8081D70
                0x0000000008081db4                sub_8081DB4
                0x0000000008081df0                sub_8081DF0
                0x0000000008081e38                sub_8081E38
                0x0000000008081e90                sub_8081E90
 src/game/multiboot/collect_rings/results.o(.text)
 .text          0x0000000008081ec0      0xe84 src/game/multiboot/collect_rings/results.o
                0x0000000008081ec0                CreateMultiplayerSinglePakResultsScreen
                0x0000000008081fb0                sub_8081FB0
                0x0000000008082038                sub_8082038
                0x000000000808207c                Task_MultiplayerSinglePakResultsScreenInit
                0x00000000080823fc                sub_80823FC
                0x0000000008082630                Task_8082630
                0x000000000808267c                sub_808267C
                0x0000000008082788                sub_8082788
                0x0000000008082aa8                sub_8082AA8
                0x0000000008082b1c                InitAndGetResultsScreenObject
                0x0000000008082b80                sub_8082B80
                0x0000000008082bf8                sub_8082BF8
                0x0000000008082c58                sub_8082C58
                0x0000000008082cb4                sub_8082CB4
                0x0000000008082cec                sub_8082CEC
 src/game/multiboot/collect_rings/time_display.o(.text)
 .text          0x0000000008082d44      0x5b8 src/game/multiboot/collect_rings/time_display.o
                0x0000000008082d44                CreateCollectRingsTimeDisplay
                0x0000000008082e9c                sub_8082E9C
                0x0000000008083040                sub_8083040
                0x0000000008083104                sub_8083104
                0x000000000808328c                sub_808328C
                0x00000000080832e0                sub_80832E0
 src/game/math.o(.text)
 .text          0x00000000080832fc     0x2c8c src/game/math.o
                0x00000000080832fc                sub_80832FC
                0x000000000808343c                sub_808343C
                0x0000000008083504                sub_8083504
                0x00000000080835e0                sub_80835E0
                0x00000000080836bc                sub_80836BC
                0x0000000008083798                sub_8083798
                0x0000000008083858                sub_8083858
                0x00000000080838cc                sub_80838CC
                0x000000000808399c                sub_808399C
                0x0000000008083a48                sub_8083A48
                0x0000000008083b10                sub_8083B10
                0x0000000008083b88                sub_8083B88
                0x0000000008083e44                sub_8083E44
                0x0000000008084090                sub_8084090
                0x00000000080842e4                sub_80842E4
                0x000000000808442c                sub_808442C
                0x000000000808458c                sub_808458C
                0x000000000808477c                sub_808477C
                0x0000000008084904                sub_8084904
                0x0000000008084964                sub_8084964
                0x00000000080849c4                sub_80849C4
                0x0000000008084a24                sub_8084A24
                0x0000000008084b54                sub_8084B54
                0x0000000008084c70                sub_8084C70
                0x0000000008084eac                sub_8084EAC
                0x0000000008084ee0                sub_8084EE0
                0x00000000080851e0                sub_80851E0
                0x0000000008085314                sub_8085314
                0x00000000080853f8                sub_80853F8
                0x00000000080854dc                Random
                0x0000000008085500                SeedRng
                0x0000000008085514                AbsMax
                0x0000000008085530                sub_8085530
                0x000000000808558c                sub_808558C
                0x00000000080855c0                sub_80855C0
                0x00000000080855f8                sub_80855F8
                0x0000000008085654                sub_8085654
                0x0000000008085698                sub_8085698
                0x00000000080856dc                sub_80856DC
                0x00000000080856f8                sub_80856F8
                0x0000000008085714                sub_8085714
                0x0000000008085720                sub_8085720
                0x000000000808572c                sub_808572C
                0x0000000008085758                sub_8085758
                0x000000000808575c                sub_808575C
                0x0000000008085798                sub_8085798
                0x00000000080857a4                sub_80857A4
                0x00000000080857e0                sub_80857E0
                0x00000000080857ec                sub_80857EC
                0x00000000080858a4                sub_80858A4
                0x000000000808595c                sub_808595C
                0x0000000008085968                sub_8085968
                0x00000000080859f4                sub_80859F4
                0x0000000008085a88                sub_8085A88
                0x0000000008085a9c                sub_8085A9C
                0x0000000008085b00                sub_8085B00
                0x0000000008085b34                sub_8085B34
                0x0000000008085b90                sub_8085B90
                0x0000000008085ba0                sub_8085BA0
                0x0000000008085bb4                sub_8085BB4
                0x0000000008085bec                sub_8085BEC
                0x0000000008085c24                sub_8085C24
                0x0000000008085c5c                sub_8085C5C
                0x0000000008085ca8                sub_8085CA8
                0x0000000008085cc0                sub_8085CC0
                0x0000000008085ce4                sub_8085CE4
                0x0000000008085d14                sub_8085D14
                0x0000000008085d44                sub_8085D44
                0x0000000008085d50                sub_8085D50
                0x0000000008085d64                sub_8085D64
                0x0000000008085d78                sub_8085D78
                0x0000000008085dd0                sub_8085DD0
                0x0000000008085dec                sub_8085DEC
                0x0000000008085e10                sub_8085E10
                0x0000000008085e24                sub_8085E24
                0x0000000008085e38                sub_8085E38
                0x0000000008085e64                sub_8085E64
                0x0000000008085e94                sub_8085E94
                0x0000000008085ec4                sub_8085EC4
                0x0000000008085f1c                sub_8085F1C
                0x0000000008085f84                sub_8085F84
 src/game/mystery_item_box.o(.text)
 .text          0x0000000008085f88      0xa10 src/game/mystery_item_box.o
                0x0000000008085f88                CreateEntity_MysteryItemBox
 src/game/heart_particles_effect.o(.text)
 .text          0x0000000008086998      0x350 src/game/heart_particles_effect.o
                0x0000000008086998                CreateHeartParticles
 src/game/race_progress.o(.text)
 .text          0x0000000008086ce8      0x340 src/game/race_progress.o
                0x0000000008086ce8                CreateRaceProgressIndicator
 src/game/multiplayer/mp_attack_1_effect.o(.text)
 .text          0x0000000008087028      0x3d8 src/game/multiplayer/mp_attack_1_effect.o
                0x0000000008087028                Task_MPAttackEffect
                0x0000000008087088                sub_8087088
                0x00000000080870e8                sub_80870E8
                0x00000000080871c4                sub_80871C4
                0x0000000008087368                CreateMPAttackEffect
                0x00000000080873a4                InitGraphicsForMPAttackEffect
                0x00000000080873ec                TaskDestructor_MPAttackEffect
 src/game/multiplayer_lobby.o(.text)
 .text          0x0000000008087400      0xbc0 src/game/multiplayer_lobby.o
                0x0000000008087400                CreateMultiplayerLobbyScreen
 src/game/time_attack/mode_select.o(.text)
 .text          0x0000000008087fc0      0x984 src/game/time_attack/mode_select.o
                0x0000000008087fc0                CreateTimeAttackModeSelectionScreen
                0x00000000080882f8                Task_IntroSweepAnim
 src/game/time_attack/lobby.o(.text)
 .text          0x0000000008088944      0x828 src/game/time_attack/lobby.o
                0x0000000008088944                sub_8088944
                0x0000000008088cc4                sub_8088CC4
                0x0000000008088d60                sub_8088D60
                0x0000000008088eb4                sub_8088EB4
                0x00000000080890bc                CreateTimeAttackLobbyScreen
                0x0000000008089104                sub_8089104
 src/game/time_attack/results.o(.text)
 .text          0x000000000808916c      0xab8 src/game/time_attack/results.o
                0x000000000808916c                CreateTimeAttackResults
 src/game/boost_mode_particles.o(.text)
 .text          0x0000000008089c24      0x634 src/game/boost_mode_particles.o
                0x0000000008089c24                CreateBoostModeParticles
                0x0000000008089e54                sub_8089E54
                0x000000000808a0a4                sub_808A0A4
                0x000000000808a234                sub_808A234
 src/game/sound_test.o(.text)
 .text          0x000000000808a258     0x11a4 src/game/sound_test.o
                0x000000000808a258                CreateSoundTestScreen
 src/game/title_screen.o(.text)
 .text          0x000000000808b3fc     0x24a4 src/game/title_screen.o
                0x000000000808b3fc                CreateTitleScreen
                0x000000000808d41c                CreateTitleScreenAndSkipIntro
                0x000000000808d45c                CreateTitleScreenAtPlayModeMenu
                0x000000000808d49c                CreateTitleScreenAtSinglePlayerMenu
                0x000000000808d824                sub_808D824
 src/game/bg_palette_effects.o(.text)
 .text          0x000000000808d8a0      0x304 src/game/bg_palette_effects.o
                0x000000000808d8a0                sub_808D8A0
                0x000000000808d988                sub_808D988
                0x000000000808dac8                sub_808DAC8
                0x000000000808daec                sub_808DAEC
                0x000000000808db2c                BgPaletteEffectGradient
                0x000000000808db78                sub_808DB78
 src/game/cutscenes/level_endings.o(.text)
 .text          0x000000000808dba4      0xd0c src/game/cutscenes/level_endings.o
                0x000000000808dba4                CreateStageResultsCutscene
                0x000000000808e274                sub_808E274
                0x000000000808e35c                sub_808E35C
                0x000000000808e424                sub_808E424
                0x000000000808e4c8                sub_808E4C8
                0x000000000808e63c                sub_808E63C
                0x000000000808e6b0                sub_808E6B0
                0x000000000808e740                CreateCharacterUnlockCutScene
                0x000000000808e79c                CreateCreamUnlockCutScene
                0x000000000808e7e8                CreateTailsUnlockCutScene
                0x000000000808e83c                CreateKnucklesUnlockCutScene
                0x000000000808e890                sub_808E890
 src/game/cutscenes/endings.o(.text)
 .text          0x000000000808e8b0      0x1a0 src/game/cutscenes/endings.o
                0x000000000808e8b0                StartEndingCutscenes
                0x000000000808e8f8                sub_808E8F8
                0x000000000808e95c                sub_808E95C
                0x000000000808e9ac                sub_808E9AC
                0x000000000808e9f8                sub_808E9F8
                0x000000000808e9fc                sub_808E9FC
 src/game/cutscenes/credits.o(.text)
 .text          0x000000000808ea50      0x310 src/game/cutscenes/credits.o
                0x000000000808ea50                CreateCreditsCutScene
 src/game/cutscenes/credits_slides.o(.text)
 .text          0x000000000808ed60      0x3ec src/game/cutscenes/credits_slides.o
                0x000000000808ed60                CreateCreditsSlidesCutScene
                0x000000000808ef38                sub_808EF38
                0x000000000808f004                sub_808F004
                0x000000000808f068                sub_808F068
                0x000000000808f0bc                sub_808F0BC
                0x000000000808f10c                sub_808F10C
                0x000000000808f148                sub_808F148
 src/game/cutscenes/credits_end.o(.text)
 .text          0x000000000808f14c      0xb2c src/game/cutscenes/credits_end.o
                0x000000000808f14c                CreateCreditsEndCutScene
 src/game/cutscenes/extra_ending_fall.o(.text)
 .text          0x000000000808fc78     0x1840 src/game/cutscenes/extra_ending_fall.o
                0x000000000808fc78                CreateExtraEndingFallCutScene
                0x0000000008090480                sub_8090480
                0x0000000008090520                sub_8090520
                0x00000000080905c0                sub_80905C0
                0x000000000809066c                sub_809066C
                0x0000000008090800                sub_8090800
                0x0000000008090904                sub_8090904
                0x0000000008090c24                sub_8090C24
                0x0000000008090ca0                sub_8090CA0
                0x0000000008090d60                sub_8090D60
                0x0000000008090e18                sub_8090E18
                0x0000000008090eb4                sub_8090EB4
                0x0000000008090f6c                sub_8090F6C
                0x0000000008091044                sub_8091044
                0x00000000080913dc                sub_80913DC
                0x0000000008091468                sub_8091468
                0x0000000008091480                sub_8091480
                0x0000000008091484                sub_8091484
 src/game/cutscenes/extra_ending_slides.o(.text)
 .text          0x00000000080914b8      0x1cc src/game/cutscenes/extra_ending_slides.o
                0x00000000080914b8                CreateExtraEndingSlidesCutScene
                0x0000000008091590                sub_8091590
                0x00000000080915cc                sub_80915CC
                0x0000000008091608                sub_8091608
                0x0000000008091638                sub_8091638
                0x0000000008091680                sub_8091680
 src/game/cutscenes/final_ending_fall.o(.text)
 .text          0x0000000008091684     0x1274 src/game/cutscenes/final_ending_fall.o
                0x0000000008091684                CreateFinalEndingFallCutScene
                0x0000000008091cb0                sub_8091CB0
                0x0000000008091e60                sub_8091E60
                0x0000000008091f68                sub_8091F68
                0x000000000809205c                sub_809205C
                0x00000000080920e4                sub_80920E4
                0x00000000080921e8                sub_80921E8
                0x00000000080923ac                sub_80923AC
                0x0000000008092690                sub_8092690
                0x0000000008092714                sub_8092714
                0x0000000008092780                sub_8092780
                0x00000000080927e8                sub_80927E8
                0x0000000008092800                sub_8092800
                0x0000000008092804                sub_8092804
                0x0000000008092850                sub_8092850
                0x000000000809289c                sub_809289C
                0x00000000080928c8                sub_80928C8
 src/game/cutscenes/final_ending_land.o(.text)
 .text          0x00000000080928f8     0x1820 src/game/cutscenes/final_ending_land.o
                0x00000000080928f8                CreateFinalEndingLandingCutScene
                0x00000000080932c8                sub_80932C8
                0x000000000809334c                sub_809334C
                0x00000000080934b8                sub_80934B8
                0x0000000008093638                sub_8093638
                0x0000000008093740                sub_8093740
                0x0000000008093868                sub_8093868
                0x0000000008093edc                sub_8093EDC
                0x0000000008093f54                sub_8093F54
                0x0000000008093f9c                sub_8093F9C
                0x0000000008093fa0                sub_8093FA0
                0x0000000008093ff0                sub_8093FF0
                0x000000000809401c                sub_809401C
                0x0000000008094044                sub_8094044
                0x0000000008094060                sub_8094060
                0x00000000080940bc                sub_80940BC
 src/game/cutscenes/missing_emeralds.o(.text)
 .text          0x0000000008094118      0x4d0 src/game/cutscenes/missing_emeralds.o
                0x0000000008094118                CreateMissingChaosEmaraldsCutScene
                0x0000000008094360                Task_8094360
                0x000000000809449c                sub_809449C
                0x00000000080944ec                sub_80944EC
                0x0000000008094530                sub_8094530
                0x0000000008094570                sub_8094570
                0x00000000080945a0                TaskDestructor_80945A0
                0x00000000080945a4                sub_80945A4
 src/lib/m4a/m4a0.o(.text)
 .text          0x00000000080945e8      0xc1c src/lib/m4a/m4a0.o
                0x00000000080945e8                umul3232H32
                0x00000000080945f8                SoundMain
                0x000000000809467c                SoundMainRAM
                0x0000000008094a20                SoundMainBTM
                0x0000000008094a38                MP2KClearChain
                0x0000000008094a58                MP2K_event_fine
                0x0000000008094a88                MPlayJumpTableCopy
                0x0000000008094abc                ld_r3_tp_adr_i
                0x0000000008094ac8                MP2K_event_goto
                0x0000000008094ae8                MP2K_event_patt
                0x0000000008094b04                MP2K_event_pend
                0x0000000008094b18                MP2K_event_rept
                0x0000000008094b48                MP2K_event_prio
                0x0000000008094b54                MP2K_event_tempo
                0x0000000008094b68                MP2K_event_keysh
                0x0000000008094b7c                MP2K_event_voice
                0x0000000008094bac                MP2K_event_vol
                0x0000000008094bc0                MP2K_event_pan
                0x0000000008094bd4                MP2K_event_bend
                0x0000000008094be8                MP2K_event_bendr
                0x0000000008094bfc                MP2K_event_lfodl
                0x0000000008094c08                MP2K_event_modt
                0x0000000008094c20                MP2K_event_tune
                0x0000000008094c34                MP2K_event_port
                0x0000000008094c4c                m4aSoundVSync
                0x0000000008094c98                MP2KPlayerMain
                0x0000000008094f00                TrackStop
                0x0000000008094f44                ChnVolSetAsm
                0x0000000008094f74                MP2K_event_nxx
                0x0000000008095174                MP2K_event_endtie
                0x00000000080951b4                clear_modM
                0x00000000080951dc                MP2K_event_lfos
                0x00000000080951f0                MP2K_event_mod
 src/lib/m4a/m4a.o(.text)
 .text          0x0000000008095204     0x1598 src/lib/m4a/m4a.o
                0x0000000008095204                MidiKeyToFreq
                0x000000000809526c                MPlayContinue
                0x0000000008095288                MPlayFadeOut
                0x00000000080952a8                m4aSoundInit
                0x0000000008095320                m4aSoundMain
                0x000000000809532c                m4aSongNumStart
                0x0000000008095358                m4aSongNumStartOrChange
                0x00000000080953a4                m4aSongNumStartOrContinue
                0x00000000080953f8                m4aSongNumStop
                0x000000000809542c                m4aSongNumContinue
                0x0000000008095460                m4aMPlayAllStop
                0x000000000809548c                m4aMPlayContinue
                0x0000000008095498                m4aMPlayAllContinue
                0x00000000080954c4                m4aMPlayFadeOut
                0x00000000080954d4                m4aMPlayFadeOutTemporarily
                0x00000000080954f4                m4aMPlayFadeIn
                0x000000000809551c                m4aMPlayImmInit
                0x0000000008095564                MPlayExtender
                0x000000000809567c                MusicPlayerJumpTableCopy
                0x0000000008095680                ClearChain
                0x0000000008095694                Clear64byte
                0x00000000080956a8                SoundInit
                0x00000000080957a0                SampleFreqSet
                0x0000000008095844                m4aSoundMode
                0x00000000080958dc                SoundClear
                0x0000000008095930                m4aSoundVSyncOff
                0x00000000080959ac                m4aSoundVSyncOn
                0x00000000080959e8                MPlayOpen
                0x0000000008095a60                MPlayStart
                0x0000000008095b44                MPlayStop
                0x0000000008095b84                FadeOutBody
                0x0000000008095c4c                TrkVolPitSet
                0x0000000008095d00                MidiKeyToCgbFreq
                0x0000000008095da8                CgbOscOff
                0x0000000008095df8                CgbModVol
                0x0000000008095e60                CgbSound
                0x00000000080962ac                m4aMPlayTempoControl
                0x00000000080962d4                m4aMPlayVolumeControl
                0x000000000809633c                m4aMPlayPitchControl
                0x00000000080963b0                m4aMPlayPanpotControl
                0x0000000008096418                ClearModM
                0x0000000008096438                m4aMPlayModDepthSet
                0x00000000080964ac                m4aMPlayLFOSpeedSet
                0x0000000008096520                MP2K_event_memacc
                0x0000000008096678                MP2K_event_xcmd
                0x0000000008096698                MP2K_event_xxx
                0x00000000080966ac                MP2K_event_xwave
                0x00000000080966f4                MP2K_event_xtype
                0x0000000008096708                MP2K_event_xatta
                0x000000000809671c                MP2K_event_xdeca
                0x0000000008096730                MP2K_event_xsust
                0x0000000008096744                MP2K_event_xrele
                0x0000000008096758                MP2K_event_xiecv
                0x0000000008096764                MP2K_event_xiecl
                0x0000000008096770                MP2K_event_xleng
                0x0000000008096784                MP2K_event_xswee
 src/lib/agb_flash/agb_flash.o(.text)
 .text          0x000000000809679c      0x500 src/lib/agb_flash/agb_flash.o
                0x000000000809679c                SwitchFlashBank
                0x00000000080967c0                ReadFlashId
                0x000000000809685c                FlashTimerIntr
                0x0000000008096884                SetFlashTimerIntr
                0x00000000080968c0                StartFlashTimer
                0x0000000008096968                StopFlashTimer
                0x00000000080969ac                ReadFlash1
                0x00000000080969b0                SetReadFlash1
                0x00000000080969f0                ReadFlash_Core
                0x0000000008096a14                ReadFlash
                0x0000000008096ab0                VerifyFlashSector_Core
                0x0000000008096ae0                VerifyFlashSector
                0x0000000008096b78                VerifyFlashSectorNBytes
                0x0000000008096c10                ProgramFlashSectorAndVerify
                0x0000000008096c54                ProgramFlashSectorAndVerifyNBytes
 src/lib/agb_flash/agb_flash_512k.o(.text)
 .text          0x0000000008096c9c      0x11c src/lib/agb_flash/agb_flash_512k.o
                0x0000000008096c9c                IdentifyFlash
                0x0000000008096d30                WaitForFlashWrite512K_Common
 src/lib/agb_flash/agb_flash_le_512k.o(.text)
 .text          0x0000000008096db8      0x2a8 src/lib/agb_flash/agb_flash_le_512k.o
                0x0000000008096db8                EraseFlashChip_LE
                0x0000000008096e2c                EraseFlashSector_LE
                0x0000000008096ec8                ProgramByte
                0x0000000008096f00                ProgramFlashSector_LE
 src/lib/agb_flash/agb_flash_mx_512k.o(.text)
 .text          0x0000000008097060       0xac src/lib/agb_flash/agb_flash_mx_512k.o
                0x0000000008097060                ProgramFlashSector_MX
 *libagbsyscall.a:ArcTan2.o(.text)
 .text          0x000000000809710c        0x4 /home/runner/work/sa2/sa2/libagbsyscall/libagbsyscall.a(ArcTan2.o)
                0x000000000809710c                ArcTan2
 *libagbsyscall.a:CpuFastSet.o(.text)
 .text          0x0000000008097110        0x4 /home/runner/work/sa2/sa2/libagbsyscall/libagbsyscall.a(CpuFastSet.o)
                0x0000000008097110                CpuFastSet
 *libagbsyscall.a:CpuSet.o(.text)
 .text          0x0000000008097114        0x4 /home/runner/work/sa2/sa2/libagbsyscall/libagbsyscall.a(CpuSet.o)
                0x0000000008097114                CpuSet
 *libagbsyscall.a:Div.o(.text)
 .text          0x0000000008097118        0x4 /home/runner/work/sa2/sa2/libagbsyscall/libagbsyscall.a(Div.o)
                0x0000000008097118                Div
 *libagbsyscall.a:Mod.o(.text)
 .text          0x000000000809711c        0x8 /home/runner/work/sa2/sa2/libagbsyscall/libagbsyscall.a(Mod.o)
                0x000000000809711c                Mod
 *libagbsyscall.a:LZ77UnCompWram.o(.text)
 .text          0x0000000008097124        0x4 /home/runner/work/sa2/sa2/libagbsyscall/libagbsyscall.a(LZ77UnCompWram.o)
                0x0000000008097124                LZ77UnCompWram
 *libagbsyscall.a:MultiBoot.o(.text)
 .text          0x0000000008097128        0x8 /home/runner/work/sa2/sa2/libagbsyscall/libagbsyscall.a(MultiBoot.o)
                0x0000000008097128                MultiBoot
 *libagbsyscall.a:RLUnCompWram.o(.text)
 .text          0x0000000008097130        0x4 /home/runner/work/sa2/sa2/libagbsyscall/libagbsyscall.a(RLUnCompWram.o)
                0x0000000008097130                RLUnCompWram
 *libagbsyscall.a:SoftReset.o(.text)
 .text          0x0000000008097134       0x18 /home/runner/work/sa2/sa2/libagbsyscall/libagbsyscall.a(SoftReset.o)
                0x0000000008097134                SoftReset
 *libagbsyscall.a:Sqrt.o(.text)
 .text          0x000000000809714c        0x4 /home/runner/work/sa2/sa2/libagbsyscall/libagbsyscall.a(Sqrt.o)
                0x000000000809714c                Sqrt
 *libagbsyscall.a:VBlankIntrWait.o(.text)
 .text          0x0000000008097150        0x8 /home/runner/work/sa2/sa2/libagbsyscall/libagbsyscall.a(VBlankIntrWait.o)
                0x0000000008097150                VBlankIntrWait
 *libagbsyscall.a:SoftResetExram.o(.text)
 .text          0x0000000008097158       0x20 /home/runner/work/sa2/sa2/libagbsyscall/libagbsyscall.a(SoftResetExram.o)
                0x0000000008097158                SoftResetExram
 *libgcc.a:_ashrdi3.o(.text)
 .text          0x0000000008097178       0x34 /home/runner/work/sa2/sa2/tools/agbcc/lib/libgcc.a(_ashrdi3.o)
                0x0000000008097178                __ashrdi3
 *libgcc.a:_call_via_rX.o(.text)
 .text          0x00000000080971ac       0x3c /home/runner/work/sa2/sa2/tools/agbcc/lib/libgcc.a(_call_via_rX.o)
                0x00000000080971ac                _call_via_r0
                0x00000000080971b0                _call_via_r1
                0x00000000080971b4                _call_via_r2
                0x00000000080971b8                _call_via_r3
                0x00000000080971bc                _call_via_r4
                0x00000000080971c0                _call_via_r5
                0x00000000080971c4                _call_via_r6
                0x00000000080971c8                _call_via_r7
                0x00000000080971cc                _call_via_r8
                0x00000000080971d0                _call_via_r9
                0x00000000080971d4                _call_via_sl
                0x00000000080971d8                _call_via_fp
                0x00000000080971dc                _call_via_ip
                0x00000000080971e0                _call_via_sp
                0x00000000080971e4                _call_via_lr
 *libgcc.a:_divdi3.o(.text)
 .text          0x00000000080971e8      0x434 /home/runner/work/sa2/sa2/tools/agbcc/lib/libgcc.a(_divdi3.o)
                0x00000000080971e8                __divdi3
 *libgcc.a:_divsi3.o(.text)
 .text          0x000000000809761c       0x94 /home/runner/work/sa2/sa2/tools/agbcc/lib/libgcc.a(_divsi3.o)
                0x000000000809761c                __divsi3
 *libgcc.a:_dvmd_tls.o(.text)
 .text          0x00000000080976b0        0x4 /home/runner/work/sa2/sa2/tools/agbcc/lib/libgcc.a(_dvmd_tls.o)
                0x00000000080976b0                __div0
 *libgcc.a:_modsi3.o(.text)
 .text          0x00000000080976b4       0xd0 /home/runner/work/sa2/sa2/tools/agbcc/lib/libgcc.a(_modsi3.o)
                0x00000000080976b4                __modsi3
 *libgcc.a:_muldi3.o(.text)
 .text          0x0000000008097784       0x70 /home/runner/work/sa2/sa2/tools/agbcc/lib/libgcc.a(_muldi3.o)
                0x0000000008097784                __muldi3
 *libgcc.a:_negdi2.o(.text)
 .text          0x00000000080977f4       0x18 /home/runner/work/sa2/sa2/tools/agbcc/lib/libgcc.a(_negdi2.o)
                0x00000000080977f4                __negdi2
 *libgcc.a:_udivsi3.o(.text)
 .text          0x000000000809780c       0x78 /home/runner/work/sa2/sa2/tools/agbcc/lib/libgcc.a(_udivsi3.o)
                0x000000000809780c                __udivsi3
 *libgcc.a:_umodsi3.o(.text)
 .text          0x0000000008097884       0xc0 /home/runner/work/sa2/sa2/tools/agbcc/lib/libgcc.a(_umodsi3.o)
                0x0000000008097884                __umodsi3
 *libc.a:memcpy.o(.text)
 .text          0x0000000008097944       0x60 /home/runner/work/sa2/sa2/tools/agbcc/lib/libc.a(memcpy.o)
                0x0000000008097944                memcpy
 *libc.a:memset.o(.text)
 .text          0x00000000080979a4       0x54 /home/runner/work/sa2/sa2/tools/agbcc/lib/libc.a(memset.o)
                0x00000000080979a4                memset
 src/multi_sio.o(.rodata)
 .rodata        0x00000000080979f8       0x19 src/multi_sio.o
 src/sio32_multi_load.o(.rodata)
 *fill*         0x0000000008097a11        0x3 00000000
 .rodata        0x0000000008097a14       0x15 src/sio32_multi_load.o
 src/core.o(.rodata)
 *fill*         0x0000000008097a29        0x3 00000000
 .rodata        0x0000000008097a2c       0x48 src/core.o
                0x0000000008097a2c                gIntrTableTemplate
 src/background.o(.rodata)
 .rodata        0x0000000008097a74       0x30 src/background.o
                0x0000000008097a74                animCmdTable_BG
 src/trig.o(.rodata)
 .rodata        0x0000000008097aa4      0xa00 src/trig.o
                0x0000000008097aa4                gSineTable
 src/sprite.o(.rodata)
 .rodata        0x00000000080984a4       0x50 src/sprite.o
                0x00000000080984dc                gOamShapesSizes
 src/bg_triangles.o(.rodata)
 .rodata        0x00000000080984f4       0x44 src/bg_triangles.o
                0x00000000080984f4                gUnknown_080984F4
 src/malloc_ewram.o(.rodata)
 src/malloc_vram.o(.rodata)
 src/input_recorder.o(.rodata)
 src/game/assets/compressed/entities.o(.rodata)
 .rodata        0x0000000008098538    0x16838 src/game/assets/compressed/entities.o
                0x0000000008098538                zone1_act1_rings
                0x00000000080989c8                zone1_act1_enemies
                0x0000000008098ac0                zone1_act1_itemboxes
                0x0000000008098b54                zone1_act1_interactables
                0x000000000809943c                zone1_act2_rings
                0x0000000008099804                zone1_act2_enemies
                0x00000000080998e8                zone1_act2_itemboxes
                0x0000000008099968                zone1_act2_interactables
                0x000000000809a04c                zone1_boss_rings
                0x000000000809a090                zone1_boss_enemies
                0x000000000809a0a4                zone1_boss_itemboxes
                0x000000000809a0b8                zone1_boss_interactables
                0x000000000809a0cc                zone2_act1_rings
                0x000000000809aaa8                zone2_act1_enemies
                0x000000000809ac94                zone2_act1_itemboxes
                0x000000000809ada4                zone2_act1_interactables
                0x000000000809b8f4                zone2_act2_rings
                0x000000000809c134                zone2_act2_enemies
                0x000000000809c37c                zone2_act2_itemboxes
                0x000000000809c4a4                zone2_act2_interactables
                0x000000000809cf10                zone2_boss_rings
                0x000000000809cf5c                zone2_boss_enemies
                0x000000000809cf70                zone2_boss_itemboxes
                0x000000000809cf84                zone2_boss_interactables
                0x000000000809cf98                zone3_act1_rings
                0x000000000809d674                zone3_act1_enemies
                0x000000000809d818                zone3_act1_itemboxes
                0x000000000809d930                zone3_act1_interactables
                0x000000000809e7a4                zone3_act2_rings
                0x000000000809f1a4                zone3_act2_enemies
                0x000000000809f300                zone3_act2_itemboxes
                0x000000000809f408                zone3_act2_interactables
                0x00000000080a059c                zone3_boss_rings
                0x00000000080a05e0                zone3_boss_enemies
                0x00000000080a05f0                zone3_boss_itemboxes
                0x00000000080a0600                zone3_boss_interactables
                0x00000000080a0610                zone4_act1_rings
                0x00000000080a0f9c                zone4_act1_enemies
                0x00000000080a116c                zone4_act1_itemboxes
                0x00000000080a1268                zone4_act1_interactables
                0x00000000080a21c4                zone4_act2_rings
                0x00000000080a2790                zone4_act2_enemies
                0x00000000080a2918                zone4_act2_itemboxes
                0x00000000080a29e4                zone4_act2_interactables
                0x00000000080a34c0                zone4_boss_rings
                0x00000000080a3500                zone4_boss_enemies
                0x00000000080a3514                zone4_boss_itemboxes
                0x00000000080a3528                zone4_boss_interactables
                0x00000000080a353c                zone5_act1_rings
                0x00000000080a3ba8                zone5_act1_enemies
                0x00000000080a3cbc                zone5_act1_itemboxes
                0x00000000080a3d90                zone5_act1_interactables
                0x00000000080a4ce0                zone5_act2_rings
                0x00000000080a5274                zone5_act2_enemies
                0x00000000080a5398                zone5_act2_itemboxes
                0x00000000080a5478                zone5_act2_interactables
                0x00000000080a61f0                zone5_boss_rings
                0x00000000080a6238                zone5_boss_enemies
                0x00000000080a624c                zone5_boss_itemboxes
                0x00000000080a6260                zone5_boss_interactables
                0x00000000080a6274                zone6_act1_rings
                0x00000000080a6c60                zone6_act1_enemies
                0x00000000080a6e14                zone6_act1_itemboxes
                0x00000000080a6f10                zone6_act1_interactables
                0x00000000080a814c                zone6_act2_rings
                0x00000000080a88e0                zone6_act2_enemies
                0x00000000080a8a44                zone6_act2_itemboxes
                0x00000000080a8af8                zone6_act2_interactables
                0x00000000080a9850                zone6_boss_rings
                0x00000000080a98a0                zone6_boss_enemies
                0x00000000080a98b4                zone6_boss_itemboxes
                0x00000000080a98c8                zone6_boss_interactables
                0x00000000080a98dc                zone7_act1_rings
                0x00000000080aa2d4                zone7_act1_enemies
                0x00000000080aa620                zone7_act1_itemboxes
                0x00000000080aa7f0                zone7_act1_interactables
                0x00000000080abf5c                zone7_act2_rings
                0x00000000080acbd4                zone7_act2_enemies
                0x00000000080aced0                zone7_act2_itemboxes
                0x00000000080ad088                zone7_act2_interactables
                0x00000000080ae6c0                zone7_boss_rings
                0x00000000080ae714                zone7_boss_enemies
                0x00000000080ae728                zone7_boss_itemboxes
                0x00000000080ae73c                zone7_boss_interactables
                0x00000000080ae750                zone8_act1_rings
                0x00000000080ae8d0                zone8_act1_enemies
                0x00000000080ae8f4                zone8_act1_itemboxes
                0x00000000080ae918                zone8_act1_interactables
                0x00000000080ae93c                zone8_act2_rings
                0x00000000080aea28                zone8_act2_enemies
                0x00000000080aea3c                zone8_act2_itemboxes
                0x00000000080aea50                zone8_act2_interactables
                0x00000000080aea64                zone8_boss_rings
                0x00000000080aebcc                zone8_boss_enemies
                0x00000000080aebe0                zone8_boss_itemboxes
                0x00000000080aebf4                zone8_boss_interactables
 src/game/assets/compressed/roms.o(.rodata)
 .rodata        0x00000000080aed70    0x25e8c src/game/assets/compressed/roms.o
                0x00000000080aed70                gMultiBootProgram_TinyChaoGarden
 src/game/sa1_sa2_shared/rings_manager.o(.rodata)
 .rodata        0x00000000080d4bfc       0x88 src/game/sa1_sa2_shared/rings_manager.o
                0x00000000080d4bfc                gSpritePosData_rings
 src/game/sa1_sa2_shared/entities_manager.o(.rodata)
 .rodata        0x00000000080d4c84      0x4a4 src/game/sa1_sa2_shared/entities_manager.o
                0x00000000080d4c84                gSpritePosData_interactables
                0x00000000080d4d0c                gSpritePosData_itemboxes
                0x00000000080d4d94                gSpritePosData_enemies
                0x00000000080d4e1c                gSpriteInits_Interactables
                0x00000000080d4fc4                gSpriteInits_Enemies
                0x00000000080d5020                enemyDefeatScores
                0x00000000080d502c                gSpriteInits_InteractablesMultiplayer
                0x00000000080d50a0                gSpriteTileInits_PreStageEntry
 src/game/sa1_sa2_shared/unused_level_select.o(.rodata)
 .rodata        0x00000000080d5128        0x6 src/game/sa1_sa2_shared/unused_level_select.o
 src/game/sa1_sa2_shared/unused_flash_task.o(.rodata)
 *fill*         0x00000000080d512e        0x2 00000000
 .rodata        0x00000000080d5130       0x15 src/game/sa1_sa2_shared/unused_flash_task.o
 src/game/sa1_sa2_shared/pause_menu.o(.rodata)
 *fill*         0x00000000080d5145        0x3 00000000
 .rodata        0x00000000080d5148       0x30 src/game/sa1_sa2_shared/pause_menu.o
                0x00000000080d5148                sAnimInfoPauseMenu
 src/game/sa1_sa2_shared/item_box.o(.rodata)
 .rodata        0x00000000080d5178       0x89 src/game/sa1_sa2_shared/item_box.o
                0x00000000080d5178                ItemBox_MysteryIcons
                0x00000000080d51c6                ItemBox_1UpIcons
                0x00000000080d51e4                ItemBox_randTypeTable
                0x00000000080d51f4                ItemBox_subRandTypeTable
                0x00000000080d51fc                ItemBox_ringAmountTable
 src/game/sa1_sa2_shared/music_manager.o(.rodata)
 *fill*         0x00000000080d5201        0x3 00000000
 .rodata        0x00000000080d5204       0x5e src/game/sa1_sa2_shared/music_manager.o
                0x00000000080d5204                gLevelSongs
                0x00000000080d5254                gUnkMusicMgrData
 src/game/sa1_sa2_shared/input_buffer.o(.rodata)
 .rodata        0x00000000080d5262       0x7e src/game/sa1_sa2_shared/input_buffer.o
                0x00000000080d5262                gUnknown_080D5262
                0x00000000080d5270                gUnknown_080D5270
                0x00000000080d527e                gUnknown_080D527E
                0x00000000080d528c                gUnknown_080D528C
                0x00000000080d529a                gUnknown_080D529A
                0x00000000080d52a8                gUnknown_080D52A8
                0x00000000080d52b6                gUnknown_080D52B6
                0x00000000080d52c4                gUnknown_080D52C4
                0x00000000080d52d2                gUnknown_080D52D2
 src/game/sa1_sa2_shared/interactables/spring.o(.rodata)
 .rodata        0x00000000080d52e0      0x104 src/game/sa1_sa2_shared/interactables/spring.o
 src/game/sa1_sa2_shared/interactables/platform.o(.rodata)
 .rodata        0x00000000080d53e4       0x4c src/game/sa1_sa2_shared/interactables/platform.o
                0x00000000080d53e4                sPlatformLevelAnims
 src/game/sa1_sa2_shared/interactables/platform_square.o(.rodata)
 .rodata        0x00000000080d5430       0x36 src/game/sa1_sa2_shared/interactables/platform_square.o
 src/game/sa1_sa2_shared/interactables/ramp.o(.rodata)
 src/game/sa1_sa2_shared/interactables/grind_rail.o(.rodata)
 src/game/sa1_sa2_shared/interactables/ceiling_slope.o(.rodata)
 src/game/sa1_sa2_shared/interactables/pipe.o(.rodata)
 src/game/sa1_sa2_shared/interactables/platform_thin.o(.rodata)
 *fill*         0x00000000080d5466        0x2 00000000
 .rodata        0x00000000080d5468       0xa4 src/game/sa1_sa2_shared/interactables/platform_thin.o
 src/game/sa1_sa2_shared/interactables/slidy_ice.o(.rodata)
 src/game/water_effects.o(.rodata)
 .rodata        0x00000000080d550c        0xa src/game/water_effects.o
 src/game/player_callbacks.o(.rodata)
 *fill*         0x00000000080d5516        0x2 00000000
 .rodata        0x00000000080d5518       0x30 src/game/player_callbacks.o
                0x00000000080d5518                gUnknown_080D5518
                0x00000000080d552c                creamBoostMinFlySpeedTable
 src/game/cheese.o(.rodata)
 .rodata        0x00000000080d5548      0x12c src/game/cheese.o
                0x00000000080d5548                gUnknown_080D5548
                0x00000000080d5590                gUnknown_080D5590
                0x00000000080d5628                gUnknown_080D5628
 src/game/boost_effect.o(.rodata)
 .rodata        0x00000000080d5674        0xe src/game/boost_effect.o
                0x00000000080d5674                gUnknown_080D5674
                0x00000000080d5678                sCharacterPalettesBoostEffect
 src/game/amy_attack_heart_effect.o(.rodata)
 *fill*         0x00000000080d5682        0x2 00000000
 .rodata        0x00000000080d5684       0xc0 src/game/amy_attack_heart_effect.o
                0x00000000080d5684                sHeartOffsets
 src/game/multiplayer/multiplayer_event_mgr.o(.rodata)
 .rodata        0x00000000080d5744       0x24 src/game/multiplayer/multiplayer_event_mgr.o
                0x00000000080d5744                gRoomEventHandlers
 src/game/multiplayer/finish.o(.rodata)
 .rodata        0x00000000080d5768       0x74 src/game/multiplayer/finish.o
                0x00000000080d5768                gUnknown_080D5768
 src/game/stage/stage.o(.rodata)
 .rodata        0x00000000080d57dc       0x88 src/game/stage/stage.o
                0x00000000080d57dc                sStageInitProcs
 src/game/stage/camera.o(.rodata)
 .rodata        0x00000000080d5864      0x2bc src/game/stage/camera.o
                0x00000000080d5864                gStageCameraBgTemplates
                0x00000000080d5964                gBossCameraYClamps
 src/game/stage/background/zone_1.o(.rodata)
 src/game/stage/background/zone_2.o(.rodata)
 src/game/stage/background/zone_3.o(.rodata)
 .rodata        0x00000000080d5b20       0xd0 src/game/stage/background/zone_3.o
                0x00000000080d5b20                gUnknown_080D5B20
                0x00000000080d5b50                gUnknown_080D5B50
 src/game/stage/background/zone_4.o(.rodata)
 src/game/stage/background/zone_5.o(.rodata)
 src/game/stage/background/zone_6.o(.rodata)
 .rodata        0x00000000080d5bf0       0x72 src/game/stage/background/zone_6.o
                0x00000000080d5bf0                gUnknown_080D5BF0
                0x00000000080d5c02                gUnknown_080D5C02
 src/game/stage/background/zone_7_1.o(.rodata)
 .rodata        0x00000000080d5c62       0x40 src/game/stage/background/zone_7_1.o
                0x00000000080d5c62                gUnknown_080D5C62
 src/game/stage/background/zone_7_2.o(.rodata)
 .rodata        0x00000000080d5ca2       0x20 src/game/stage/background/zone_7_2.o
                0x00000000080d5ca2                sZone7BgTransitionRegions
 src/game/stage/background/zone_final.o(.rodata)
 .rodata        0x00000000080d5cc2       0x20 src/game/stage/background/zone_final.o
                0x00000000080d5cc2                gUnknown_080D5CC2
 src/game/stage/tilemap_table.o(.rodata)
 *fill*         0x00000000080d5ce2        0x2 00000000
 .rodata        0x00000000080d5ce4      0x5f4 src/game/stage/tilemap_table.o
                0x00000000080d5ce4                gTilemaps
 src/game/stage/collision.o(.rodata)
 .rodata        0x00000000080d62d8       0x7c src/game/stage/collision.o
                0x00000000080d62d8                gCollisionTable
 src/game/stage/mp_sprite_task.o(.rodata)
 .rodata        0x00000000080d6354       0x1e src/game/stage/mp_sprite_task.o
                0x00000000080d6354                sAnimData_StageGoalScoreBonus
 src/game/stage/spawn_positions.o(.rodata)
 *fill*         0x00000000080d6372        0x2 00000000
 .rodata        0x00000000080d6374      0x3b8 src/game/stage/spawn_positions.o
                0x00000000080d6374                gSpawnPositions
                0x00000000080d63fc                gCheckpointPositions
                0x00000000080d650c                gUnknown_080D650C
                0x00000000080d661c                gUnknown_080D661C
 src/game/stage/rings_scatter.o(.rodata)
 src/game/stage/player.o(.rodata)
 .rodata        0x00000000080d672c      0x29a src/game/stage/player.o
                0x00000000080d672c                gPlayerCharacterIdleAnims
                0x00000000080d6736                sCharStateAnimInfo
 src/game/stage/player_super_sonic.o(.rodata)
 *fill*         0x00000000080d69c6        0x2 00000000
 .rodata        0x00000000080d69c8       0xb8 src/game/stage/player_super_sonic.o
                0x00000000080d69c8                gAnims_SuperSonic_080D69C8
 src/game/stage/ui.o(.rodata)
 .rodata        0x00000000080d6a80      0x208 src/game/stage/ui.o
                0x00000000080d6a80                sAnimsAsciiDigits
                0x00000000080d6ab0                sAnims1UpIcons
                0x00000000080d6ace                sPalette_080D6ACE
                0x00000000080d6af0                sOrdersOfMagnitude
                0x00000000080d6b08                gSecondsTable
                0x00000000080d6b80                gMillisUnpackTable
                0x00000000080d6bf8                sZoneTimeSecondsTable
                0x00000000080d6c72                sZoneTimeMinutesTable
 src/game/stage/trapped_animals.o(.rodata)
 .rodata        0x00000000080d6c88      0x15c src/game/stage/trapped_animals.o
 src/game/stage/boss_results_transition.o(.rodata)
 .rodata        0x00000000080d6de4       0x1c src/game/stage/boss_results_transition.o
                0x00000000080d6de4                gUnknown_080D6DE4
 src/game/stage/intro.o(.rodata)
 .rodata        0x00000000080d6e00      0x33c src/game/stage/intro.o
                0x00000000080d6fc8                sColoredTriangle
                0x00000000080d7116                sZoneLoadingCharacterColors
                0x00000000080d7120                sScreenPositions_ZoneLoadingActLetters
                0x00000000080d7130                gUnknown_080D7130
 src/game/stage/results.o(.rodata)
 .rodata        0x00000000080d713c       0x96 src/game/stage/results.o
                0x00000000080d713c                gAnimsGotThroughCharacterNames
                0x00000000080d715a                gStageResultsHeadlineTexts
                0x00000000080d7178                gAnimsGotThroughZoneAndActNames
 src/game/character_select.o(.rodata)
 *fill*         0x00000000080d71d2        0x2 00000000
 .rodata        0x00000000080d71d4       0xe3 src/game/character_select.o
 src/game/course_select.o(.rodata)
 *fill*         0x00000000080d72b7        0x1 00000000
 .rodata        0x00000000080d72b8      0x260 src/game/course_select.o
 src/game/countdown.o(.rodata)
 .rodata        0x00000000080d7518       0x28 src/game/countdown.o
                0x00000000080d7518                gUnknown_080D7518
 src/game/bosses/final_intro.o(.rodata)
 .rodata        0x00000000080d7540      0x44c src/game/bosses/final_intro.o
 src/game/bosses/common.o(.rodata)
 .rodata        0x00000000080d798c       0x8c src/game/bosses/common.o
                0x00000000080d798c                sBossCreationFuncs
                0x00000000080d79b0                MoveBossPositionFuncs
                0x00000000080d79d0                gTileInfoBossScrews
 src/game/bosses/boss_1.o(.rodata)
 .rodata        0x00000000080d7a18       0xf8 src/game/bosses/boss_1.o
 src/game/bosses/boss_2.o(.rodata)
 .rodata        0x00000000080d7b10       0xa0 src/game/bosses/boss_2.o
 src/game/bosses/boss_3.o(.rodata)
 .rodata        0x00000000080d7bb0      0x3a4 src/game/bosses/boss_3.o
                0x00000000080d7bb0                sTileInfoWheels
                0x00000000080d7bc8                sTileInfoBulletLauncher
                0x00000000080d7bd8                sWheelsOamOrderIds
                0x00000000080d7bdc                gUnknown_080D7BDC
                0x00000000080d7be2                sTotemDiscYs
                0x00000000080d7be8                gUnknown_080D7BE8
                0x00000000080d7e78                gUnknown_080D7E78
                0x00000000080d7ea0                gUnknown_080D7EA0
                0x00000000080d7ed4                gUnknown_080D7ED4
                0x00000000080d7f10                gUnknown_080D7F10
                0x00000000080d7f14                gUnknown_080D7F14
 src/game/bosses/boss_4.o(.rodata)
 .rodata        0x00000000080d7f54       0x40 src/game/bosses/boss_4.o
 src/game/bosses/boss_5.o(.rodata)
 .rodata        0x00000000080d7f94       0x9c src/game/bosses/boss_5.o
                0x00000000080d7f94                gUnknown_080D7F94
 src/game/bosses/boss_6.o(.rodata)
 .rodata        0x00000000080d8030       0xd6 src/game/bosses/boss_6.o
 src/game/bosses/boss_7.o(.rodata)
 *fill*         0x00000000080d8106        0x2 00000000
 .rodata        0x00000000080d8108      0x6ce src/game/bosses/boss_7.o
                0x00000000080d814a                gUnknown_080D814A
                0x00000000080d814c                gUnknown_080D814C
                0x00000000080d859c                gUnknown_080D859C
                0x00000000080d86d4                gUnknown_080D86D4
                0x00000000080d8710                gUnknown_080D8710
                0x00000000080d874c                gUnknown_080D874C
                0x00000000080d8788                gUnknown_080D8788
                0x00000000080d8796                gUnknown_080D8796
 src/game/bosses/boss_8.o(.rodata)
 *fill*         0x00000000080d87d6        0x2 00000000
 .rodata        0x00000000080d87d8      0x118 src/game/bosses/boss_8.o
                0x00000000080d87d8                sBossRunCameraYTriggers
                0x00000000080d87e6                gUnknown_080D87E6
                0x00000000080d8808                gUnknown_080D8808
                0x00000000080d8840                gUnknown_080D8840
                0x00000000080d8858                gUnknown_080D8858
                0x00000000080d8864                sTowerPiecesTileInfo
                0x00000000080d8874                sTowerStateCallbacks
                0x00000000080d8888                gUnknown_080D8888
                0x00000000080d88b0                sArmPalettes
 src/game/bosses/boss_9.o(.rodata)
 .rodata        0x00000000080d88f0      0x640 src/game/bosses/boss_9.o
                0x00000000080d88f0                gUnknown_080D88F0
                0x00000000080d8918                gUnknown_080D8918
                0x00000000080d89a0                gUnknown_080D89A0
                0x00000000080d89a5                gUnknown_080D89A5
                0x00000000080d89ac                gUnknown_080D89AC
                0x00000000080d89c8                gUnknown_080D89C8
                0x00000000080d8a1c                gUnknown_080D8A1C
                0x00000000080d8a34                gUnknown_080D8A34
                0x00000000080d8a4c                gUnknown_080D8A4C
                0x00000000080d8a64                gUnknown_080D8A64
                0x00000000080d8a7c                gUnknown_080D8A7C
                0x00000000080d8a94                gUnknown_080D8A94
                0x00000000080d8aac                gUnknown_080D8AAC
                0x00000000080d8ac4                gUnknown_080D8AC4
                0x00000000080d8adc                gUnknown_080D8ADC
                0x00000000080d8af4                gUnknown_080D8AF4
                0x00000000080d8b0c                gUnknown_080D8B0C
                0x00000000080d8b24                gUnknown_080D8B24
                0x00000000080d8b3c                gUnknown_080D8B3C
                0x00000000080d8b54                gUnknown_080D8B54
                0x00000000080d8b6c                gUnknown_080D8B6C
                0x00000000080d8b84                gUnknown_080D8B84
                0x00000000080d8b9c                gUnknown_080D8B9C
                0x00000000080d8bb4                gUnknown_080D8BB4
                0x00000000080d8bcc                gUnknown_080D8BCC
                0x00000000080d8be4                gUnknown_080D8BE4
                0x00000000080d8bfc                gUnknown_080D8BFC
                0x00000000080d8c10                gUnknown_080D8C10
                0x00000000080d8c24                gUnknown_080D8C24
                0x00000000080d8c38                gUnknown_080D8C38
                0x00000000080d8c4c                gUnknown_080D8C4C
                0x00000000080d8c54                gUnknown_080D8C54
                0x00000000080d8c5c                gUnknown_080D8C5C
                0x00000000080d8c64                gUnknown_080D8C64
                0x00000000080d8c6c                gUnknown_080D8C6C
                0x00000000080d8c74                gUnknown_080D8C74
                0x00000000080d8c7c                gUnknown_080D8C7C
                0x00000000080d8c84                gUnknown_080D8C84
                0x00000000080d8c8c                gUnknown_080D8C8C
                0x00000000080d8c94                gUnknown_080D8C94
                0x00000000080d8c9c                gUnknown_080D8C9C
                0x00000000080d8ca4                gUnknown_080D8CA4
                0x00000000080d8cac                gUnknown_080D8CAC
                0x00000000080d8cb4                gUnknown_080D8CB4
                0x00000000080d8cbc                gUnknown_080D8CBC
                0x00000000080d8cc4                gUnknown_080D8CC4
                0x00000000080d8ccc                gUnknown_080D8CCC
                0x00000000080d8cd4                gUnknown_080D8CD4
                0x00000000080d8cdc                gUnknown_080D8CDC
                0x00000000080d8ce4                gUnknown_080D8CE4
                0x00000000080d8cec                gUnknown_080D8CEC
                0x00000000080d8cf4                gUnknown_080D8CF4
                0x00000000080d8cfc                gUnknown_080D8CFC
                0x00000000080d8d04                gUnknown_080D8D04
                0x00000000080d8d0c                gUnknown_080D8D0C
                0x00000000080d8d14                gUnknown_080D8D14
                0x00000000080d8d1c                gUnknown_080D8D1C
                0x00000000080d8d24                gUnknown_080D8D24
                0x00000000080d8d2c                gUnknown_080D8D2C
                0x00000000080d8d34                gUnknown_080D8D34
                0x00000000080d8d3c                gUnknown_080D8D3C
                0x00000000080d8d44                gUnknown_080D8D44
                0x00000000080d8d4c                gUnknown_080D8D4C
                0x00000000080d8d54                gUnknown_080D8D54
                0x00000000080d8d5c                gUnknown_080D8D5C
                0x00000000080d8d64                gUnknown_080D8D64
                0x00000000080d8d6c                gUnknown_080D8D6C
                0x00000000080d8dcc                gUnknown_080D8DCC
                0x00000000080d8e14                gUnknown_080D8E14
                0x00000000080d8e20                sRGB_080D8E20
                0x00000000080d8ee0                gUnknown_080D8EE0
                0x00000000080d8ef0                gUnknown_080D8EF0
 src/game/enemies/kubinaga.o(.rodata)
 .rodata        0x00000000080d8f30        0x8 src/game/enemies/kubinaga.o
 src/game/enemies/koura.o(.rodata)
 .rodata        0x00000000080d8f38       0x18 src/game/enemies/koura.o
 src/game/enemies/geji_geji.o(.rodata)
 .rodata        0x00000000080d8f50       0x20 src/game/enemies/geji_geji.o
 src/game/multiplayer/mode_select.o(.rodata)
 .rodata        0x00000000080d8f70       0xe0 src/game/multiplayer/mode_select.o
 src/game/multiplayer/multipak_connection.o(.rodata)
 .rodata        0x00000000080d9050       0x38 src/game/multiplayer/multipak_connection.o
 src/game/multiplayer/communication_outcome.o(.rodata)
 .rodata        0x00000000080d9088       0x78 src/game/multiplayer/communication_outcome.o
 src/game/multiplayer/results.o(.rodata)
 .rodata        0x00000000080d9100      0x1b6 src/game/multiplayer/results.o
 src/game/multiplayer/team_play.o(.rodata)
 *fill*         0x00000000080d92b6        0x2 00000000
 .rodata        0x00000000080d92b8      0x13c src/game/multiplayer/team_play.o
 src/game/interactables_1/decoration.o(.rodata)
 .rodata        0x00000000080d93f4       0x38 src/game/interactables_1/decoration.o
 src/game/interactables_1/booster.o(.rodata)
 .rodata        0x00000000080d942c       0x60 src/game/interactables_1/booster.o
                0x00000000080d942c                sBoosterAnimationData
 src/game/interactables_1/spring_bouncy.o(.rodata)
 .rodata        0x00000000080d948c       0x48 src/game/interactables_1/spring_bouncy.o
 src/game/interactables_1/platform_crumbling.o(.rodata)
 .rodata        0x00000000080d94d4        0x4 src/game/interactables_1/platform_crumbling.o
 src/game/interactables_1/spikes.o(.rodata)
 .rodata        0x00000000080d94d8       0x10 src/game/interactables_1/spikes.o
                0x00000000080d94d8                sSpikesOfZone
 src/game/interactables_1/bouncy_bar.o(.rodata)
 .rodata        0x00000000080d94e8       0x10 src/game/interactables_1/bouncy_bar.o
 src/game/interactables_1/checkpoint.o(.rodata)
 .rodata        0x00000000080d94f8       0x20 src/game/interactables_1/checkpoint.o
 src/game/interactables_1/windmill.o(.rodata)
 .rodata        0x00000000080d9518       0x28 src/game/interactables_1/windmill.o
 src/game/options_screen.o(.rodata)
 .rodata        0x00000000080d9540      0xd30 src/game/options_screen.o
                0x00000000080d95a4                gUnknown_080D95A4
                0x00000000080d95c4                gUnknown_080D95C4
                0x00000000080d95c8                gUnknown_080D95C8
                0x00000000080d95d2                gUnknown_080D95D2
                0x00000000080d95d6                gUnknown_080D95D6
                0x00000000080d95e8                sOptionsScreenTitleText
                0x00000000080d9618                sOptionsScreenMenuItemsText
                0x00000000080d9798                sDifficultyLevelSwitchText
                0x00000000080d97f8                sTimeLimitMenuSwitchText
                0x00000000080d9858                sOptionsScreenSelectedLanguageText
                0x00000000080d9888                sDifficultyMenuTitleText
                0x00000000080d98b8                sDifficultyMenuControlsText
                0x00000000080d98e8                sTimeLimitMenuTitleText
                0x00000000080d9918                sTimeLimitMenuControlsText
                0x00000000080d9948                sButtonConfigTitleAndControlsText
                0x00000000080d99d8                sButtonConfigButtonIcons
                0x00000000080d99f0                sButtonConfigActionsText
                0x00000000080d9a80                sLanguageScreenTitles
                0x00000000080d9ab0                sLanguageScreenEditControlsText
                0x00000000080d9ae0                sLanguageScreenNewControlsText
                0x00000000080d9b10                sLanguageScreenOptionsText
                0x00000000080d9b40                sDeleteScreenConfirmTitleText
                0x00000000080d9b70                sDeleteScreenAbsoluteConfirmTitleText
                0x00000000080d9ba0                sDeleteScreenControlsText
                0x00000000080d9bd0                sDeleteScreenOptionsText
                0x00000000080d9c30                sPlayerDataMenuTitleText
                0x00000000080d9c60                sPlayerDataMenuControlsText
                0x00000000080d9c90                sPlayerDataMenuItemsText
                0x00000000080d9d50                sProfileNameScreenNewTitleText
                0x00000000080d9d80                sProfileNameScreenEditTitleText
                0x00000000080d9db0                sProfileNameScreenArrowTiles
                0x00000000080d9dc0                sProfileNameScreenEndButtonText
                0x00000000080d9df0                sProfileNameScreenScrollArrowTiles
                0x00000000080d9e00                sMultiplayerRecordsTitleAndColumnHeadersText
                0x00000000080d9e60                sMultiplayerScoreDigitTiles
                0x00000000080d9eb0                sTimeRecordsChoiceViewTitles
                0x00000000080d9ee0                sTimeRecordsScreenChoices
                0x00000000080d9f40                sTimeRecordsZoneActTitleDigits
                0x00000000080d9f78                sTimeRecordDigitTiles
                0x00000000080d9fd0                sZoneNameTitles
                0x00000000080da120                sZoneBossTitles
 src/game/special_stage/data.o(.rodata)
 .rodata        0x00000000080da270     0x53f8 src/game/special_stage/data.o
                0x00000000080da270                gUnknown_080DA270
                0x00000000080df040                gUnknown_080DF040
                0x00000000080df2f8                gUnknown_080DF2F8
 src/game/special_stage/player.o(.rodata)
 .rodata        0x00000000080df668       0x64 src/game/special_stage/player.o
 src/game/special_stage/collectables.o(.rodata)
 .rodata        0x00000000080df6cc        0xe src/game/special_stage/collectables.o
                0x00000000080df6cc                gUnknown_080DF6CC
 src/game/special_stage/world.o(.rodata)
 *fill*         0x00000000080df6da        0x2 00000000
 .rodata        0x00000000080df6dc       0xb8 src/game/special_stage/world.o
                0x00000000080df6ec                gUnknown_080DF6EC
 src/game/special_stage/physics.o(.rodata)
 .rodata        0x00000000080df794       0x54 src/game/special_stage/physics.o
 src/game/special_stage/ui.o(.rodata)
 .rodata        0x00000000080df7e8      0x12c src/game/special_stage/ui.o
 src/game/special_stage/guard_robo.o(.rodata)
 .rodata        0x00000000080df914       0x54 src/game/special_stage/guard_robo.o
 src/game/special_stage/tables.o(.rodata)
 .rodata        0x00000000080df968       0xa8 src/game/special_stage/tables.o
                0x00000000080df968                gUnknown_080DF968
                0x00000000080df9a0                gSpecialStageGuardRoboStartPositions
                0x00000000080df9d8                gUnknown_080DF9D8
                0x00000000080dfa02                gSpecialStageScoreTargets
 src/game/interactables_2/hot_crater/dash_ring.o(.rodata)
 .rodata        0x00000000080dfa10      0x1e0 src/game/interactables_2/hot_crater/dash_ring.o
 src/game/interactables_2/music_plant/note_sphere.o(.rodata)
 .rodata        0x00000000080dfbf0       0x50 src/game/interactables_2/music_plant/note_sphere.o
 src/game/interactables_2/music_plant/note_block.o(.rodata)
 .rodata        0x00000000080dfc40       0x48 src/game/interactables_2/music_plant/note_block.o
                0x00000000080dfc78                sSfxGlockenspiel
 src/game/interactables_2/music_plant/keyboard.o(.rodata)
 .rodata        0x00000000080dfc88       0x18 src/game/interactables_2/music_plant/keyboard.o
                0x00000000080dfc88                sKeyboardAccelMusicPlant
                0x00000000080dfc94                sKeyboardAccelTechnoBase
 src/game/interactables_2/music_plant/german_flute.o(.rodata)
 .rodata        0x00000000080dfca0       0x10 src/game/interactables_2/music_plant/german_flute.o
 src/game/interactables_2/music_plant/pipe_horn.o(.rodata)
 .rodata        0x00000000080dfcb0      0x358 src/game/interactables_2/music_plant/pipe_horn.o
                0x00000000080dfcb0                gPipeHandlers
                0x00000000080dfcf0                gUnknown_080DFCF0
                0x00000000080dfd40                gUnknown_080DFD40
                0x00000000080dfd98                gUnknown_080DFD98
                0x00000000080dfdd8                gUnknown_080DFDD8
                0x00000000080dfe30                gUnknown_080DFE30
                0x00000000080dfe90                gUnknown_080DFE90
                0x00000000080dfeb4                gUnknown_080DFEB4
                0x00000000080dfed0                gUnknown_080DFED0
                0x00000000080dfee4                gUnknown_080DFEE4
                0x00000000080dff3c                gUnknown_080DFF3C
                0x00000000080dff9c                gUnknown_080DFF9C
 src/game/interactables_2/techno_base/bounce_block.o(.rodata)
 .rodata        0x00000000080e0008       0x30 src/game/interactables_2/techno_base/bounce_block.o
 src/game/interactables_2/techno_base/light_bridge.o(.rodata)
 .rodata        0x00000000080e0038       0x7c src/game/interactables_2/techno_base/light_bridge.o
 src/game/interactables_2/techno_base/spike_platform.o(.rodata)
 .rodata        0x00000000080e00b4       0x70 src/game/interactables_2/techno_base/spike_platform.o
 src/game/interactables_2/sky_canyon/whirlwind.o(.rodata)
 .rodata        0x00000000080e0124       0x1a src/game/interactables_2/sky_canyon/whirlwind.o
 src/game/interactables_2/note_particle.o(.rodata)
 *fill*         0x00000000080e013e        0x2 00000000
 .rodata        0x00000000080e0140       0x28 src/game/interactables_2/note_particle.o
 src/game/multiboot/connection.o(.rodata)
 .rodata        0x00000000080e0168       0xcc src/game/multiboot/connection.o
                0x00000000080e0168                gCollectRingsSegments
 src/game/multiboot/collect_rings/time_display.o(.rodata)
 .rodata        0x00000000080e0234       0x5c src/game/multiboot/collect_rings/time_display.o
                0x00000000080e0234                gUnknown_080E0234
                0x00000000080e0270                gUnknown_080E0270
 src/game/math.o(.rodata)
 .rodata        0x00000000080e0290        0x4 src/game/math.o
                0x00000000080e0290                gUnknown_080E0290
 src/game/mystery_item_box.o(.rodata)
 .rodata        0x00000000080e0294       0x24 src/game/mystery_item_box.o
 src/game/race_progress.o(.rodata)
 .rodata        0x00000000080e02b8       0x22 src/game/race_progress.o
 src/game/multiplayer/mp_attack_1_effect.o(.rodata)
 *fill*         0x00000000080e02da        0x2 00000000
 .rodata        0x00000000080e02dc       0x10 src/game/multiplayer/mp_attack_1_effect.o
 src/game/multiplayer_lobby.o(.rodata)
 .rodata        0x00000000080e02ec       0x98 src/game/multiplayer_lobby.o
 src/game/time_attack/mode_select.o(.rodata)
 .rodata        0x00000000080e0384       0xf0 src/game/time_attack/mode_select.o
                0x00000000080e0384                gUnknown_080E0384
 src/game/time_attack/lobby.o(.rodata)
 .rodata        0x00000000080e0474      0x150 src/game/time_attack/lobby.o
                0x00000000080e0474                gUnknown_080E0474
                0x00000000080e04c4                gUnknown_080E04C4
                0x00000000080e04d4                gUnknown_080E04D4
 src/game/time_attack/results.o(.rodata)
 .rodata        0x00000000080e05c4       0x20 src/game/time_attack/results.o
 src/game/sound_test.o(.rodata)
 .rodata        0x00000000080e05e4      0x780 src/game/sound_test.o
 src/game/title_screen.o(.rodata)
 .rodata        0x00000000080e0d64      0x3b2 src/game/title_screen.o
                0x00000000080e0d64                gPressStartTiles
 src/game/cutscenes/level_endings.o(.rodata)
 *fill*         0x00000000080e1116        0x2 00000000
 .rodata        0x00000000080e1118      0x12c src/game/cutscenes/level_endings.o
 src/game/cutscenes/credits.o(.rodata)
 .rodata        0x00000000080e1244       0x34 src/game/cutscenes/credits.o
 src/game/cutscenes/credits_slides.o(.rodata)
 .rodata        0x00000000080e1278       0x38 src/game/cutscenes/credits_slides.o
 src/game/cutscenes/credits_end.o(.rodata)
 .rodata        0x00000000080e12b0       0x4c src/game/cutscenes/credits_end.o
 src/game/cutscenes/extra_ending_fall.o(.rodata)
 .rodata        0x00000000080e12fc      0x34c src/game/cutscenes/extra_ending_fall.o
 src/game/cutscenes/final_ending_fall.o(.rodata)
 .rodata        0x00000000080e1648      0x152 src/game/cutscenes/final_ending_fall.o
 src/game/cutscenes/final_ending_land.o(.rodata)
 *fill*         0x00000000080e179a        0x2 00000000
 .rodata        0x00000000080e179c      0x4c0 src/game/cutscenes/final_ending_land.o
 src/game/cutscenes/missing_emeralds.o(.rodata)
 .rodata        0x00000000080e1c5c       0x5c src/game/cutscenes/missing_emeralds.o
 src/data/tilemap_data_old_logos.o(.rodata)
 .rodata        0x00000000080e1cb8    0x1241c src/data/tilemap_data_old_logos.o
                0x00000000080e1cb8                Palette_sa1_title_logo_jp
                0x00000000080e1eb8                Tiles_sa1_title_logo_jp
                0x00000000080e5278                Tilemap_sa1_title_logo_jp
                0x00000000080e5368                sa1_title_logo_jp
                0x00000000080e5384                Palette_sa1_title_logo
                0x00000000080e5584                Tiles_sa1_title_logo
                0x00000000080e8d04                Tilemap_sa1_title_logo
                0x00000000080e8df4                sa1_title_logo
                0x00000000080e8e10                Palette_sa1_title_bg
                0x00000000080e9010                Tiles_sa1_title_bg
                0x00000000080f1350                Tilemap_sa1_title_bg
                0x00000000080f1800                sa1_title_bg
                0x00000000080f181c                Palette_intro_presented_by_sega
                0x00000000080f1a1c                Tiles_intro_presented_by_sega
                0x00000000080f29fc                Tilemap_intro_presented_by_sega
                0x00000000080f2eac                intro_presented_by_sega
                0x00000000080f2ec8                Palette_intro_created_by_sonic_team
                0x00000000080f30c8                Tiles_intro_created_by_sonic_team
                0x00000000080f3c08                Tilemap_intro_created_by_sonic_team
                0x00000000080f40b8                intro_created_by_sonic_team
 src/data/sprite_tables.o(.rodata)
 .rodata        0x00000000080f40d4       0x18 src/data/sprite_tables.o
                0x00000000080f40d4                gSpriteTables
 src/data/animations/animations.o(.rodata)
 .rodata        0x00000000080f40ec    0x41dd8 src/data/animations/animations.o
                0x00000000080f40ec                anim_0000__v0_l0
                0x00000000080f43c8                anim_0000
                0x00000000080f43cc                anim_0001__v0_l0
                0x00000000080f4810                anim_0001__v1_l0
                0x00000000080f48b8                anim_0001
                0x00000000080f48c0                anim_0002__v0_l0
                0x00000000080f4930                anim_0002__v1_l0
                0x00000000080f4974                anim_0002
                0x00000000080f497c                anim_0003__v0_l0
                0x00000000080f49f8                anim_0003__v1_l0
                0x00000000080f4a70                anim_0003
                0x00000000080f4a78                anim_0004__v0_l0
                0x00000000080f4bc4                anim_0004
                0x00000000080f4bc8                anim_0005__v0_l0
                0x00000000080f4c0c                anim_0005
                0x00000000080f4c10                anim_0006__v0_l0
                0x00000000080f4c7c                anim_0006
                0x00000000080f4c80                anim_0007__v0_l0
                0x00000000080f4ce8                anim_0007__v1_l0
                0x00000000080f4d18                anim_0007
                0x00000000080f4d20                anim_0008__v0_l0
                0x00000000080f4d90                anim_0008__v1_l0
                0x00000000080f4de8                anim_0008
                0x00000000080f4df0                anim_0009__v0_l0
                0x00000000080f4eb0                anim_0009__v1_l0
                0x00000000080f4f70                anim_0009__v2_l0
                0x00000000080f5030                anim_0009__v3_l0
                0x00000000080f50f0                anim_0009__v4_l0
                0x00000000080f51b0                anim_0009__v5_l0
                0x00000000080f5270                anim_0009
                0x00000000080f5288                anim_0010__v0_l0
                0x00000000080f52d8                anim_0010__v1_l0
                0x00000000080f53a4                anim_0010__v2_l0
                0x00000000080f5420                anim_0010
                0x00000000080f542c                anim_0011__v0_l0
                0x00000000080f5494                anim_0011__v1_l0
                0x00000000080f5560                anim_0011__v2_l0
                0x00000000080f55dc                anim_0011
                0x00000000080f55e8                anim_0012__v0_l0
                0x00000000080f5660                anim_0012
                0x00000000080f5664                anim_0013__v0_l0
                0x00000000080f56e8                anim_0013
                0x00000000080f56ec                anim_0014__v0_l0
                0x00000000080f57fc                anim_0014__v1_l0
                0x00000000080f5864                anim_0014__v2_l0
                0x00000000080f58bc                anim_0014
                0x00000000080f58c8                anim_0015__v0_l0
                0x00000000080f5a08                anim_0015__v1_l0
                0x00000000080f5ab4                anim_0015__v2_l0
                0x00000000080f5af0                anim_0015
                0x00000000080f5afc                anim_0016__v0_l0
                0x00000000080f5c0c                anim_0016__v1_l0
                0x00000000080f5c74                anim_0016__v2_l0
                0x00000000080f5ccc                anim_0016__v3_l0
                0x00000000080f5d58                anim_0016
                0x00000000080f5d68                anim_0017__v0_l0
                0x00000000080f5e90                anim_0017__v1_l0
                0x00000000080f5f40                anim_0017
                0x00000000080f5f48                anim_0018__v0_l0
                0x00000000080f6064                anim_0018
                0x00000000080f6068                anim_0019__v0_l0
                0x00000000080f6120                anim_0019__v1_l0
                0x00000000080f6168                anim_0019__v2_l0
                0x00000000080f6198                anim_0019
                0x00000000080f61a4                anim_0028__v0_l0
                0x00000000080f6228                anim_0028__v1_l0
                0x00000000080f62a8                anim_0028__v2_l0
                0x00000000080f6308                anim_0028
                0x00000000080f6314                anim_0029__v0_l0
                0x00000000080f63a0                anim_0029
                0x00000000080f63a4                anim_0030__v0_l0
                0x00000000080f66d4                anim_0030__v1_l0
                0x00000000080f6734                anim_0030
                0x00000000080f673c                anim_0031__v0_l0
                0x00000000080f6794                anim_0031__v1_l0
                0x00000000080f6804                anim_0031__v2_l0
                0x00000000080f685c                anim_0031
                0x00000000080f6868                anim_0032__v0_l0
                0x00000000080f6990                anim_0032
                0x00000000080f6994                anim_0033__v0_l0
                0x00000000080f6b34                anim_0033
                0x00000000080f6b38                anim_0034__v0_l0
                0x00000000080f6c9c                anim_0034
                0x00000000080f6ca0                anim_0035__v0_l0
                0x00000000080f6df4                anim_0035
                0x00000000080f6df8                anim_0036__v0_l0
                0x00000000080f6e1c                anim_0036__v1_l0
                0x00000000080f6e40                anim_0036__v2_l0
                0x00000000080f6e64                anim_0036__v3_l0
                0x00000000080f6e88                anim_0036
                0x00000000080f6e98                anim_0037__v0_l0
                0x00000000080f6f4c                anim_0037__v1_l0
                0x00000000080f7000                anim_0037
                0x00000000080f7008                anim_0048__v0_l0
                0x00000000080f7060                anim_0048__v1_l0
                0x00000000080f70e4                anim_0048__v2_l0
                0x00000000080f717c                anim_0048
                0x00000000080f7188                anim_0049__v0_l0
                0x00000000080f71e0                anim_0049__v1_l0
                0x00000000080f72ac                anim_0049__v2_l0
                0x00000000080f7360                anim_0049
                0x00000000080f736c                anim_0050__v0_l0
                0x00000000080f739c                anim_0050__v1_l0
                0x00000000080f7498                anim_0050
                0x00000000080f74a0                anim_0051__v0_l0
                0x00000000080f7574                anim_0051__v1_l0
                0x00000000080f75f0                anim_0051__v2_l0
                0x00000000080f769c                anim_0051__v3_l0
                0x00000000080f76d8                anim_0051
                0x00000000080f76e8                anim_0052__v0_l0
                0x00000000080f7758                anim_0052__v1_l0
                0x00000000080f77ec                anim_0052__v2_l0
                0x00000000080f7848                anim_0052
                0x00000000080f7854                anim_0053__v0_l0
                0x00000000080f798c                anim_0053
                0x00000000080f7990                anim_0054__v0_l0
                0x00000000080f7a0c                anim_0054__v1_l0
                0x00000000080f7acc                anim_0054
                0x00000000080f7ad4                anim_0055__v0_l0
                0x00000000080f7b1c                anim_0055
                0x00000000080f7b20                anim_0056__v0_l0
                0x00000000080f7d70                anim_0056
                0x00000000080f7d74                anim_0057__v0_l0
                0x00000000080f7da4                anim_0057__v1_l0
                0x00000000080f7dd4                anim_0057__v2_l0
                0x00000000080f7e04                anim_0057__v3_l0
                0x00000000080f7e34                anim_0057__v4_l0
                0x00000000080f7e64                anim_0057__v5_l0
                0x00000000080f7e94                anim_0057__v6_l0
                0x00000000080f7ec4                anim_0057__v7_l0
                0x00000000080f7ef4                anim_0057
                0x00000000080f7f14                anim_0058__v0_l0
                0x00000000080f7fd4                anim_0058
                0x00000000080f7fd8                anim_0059__v0_l0
                0x00000000080f8008                anim_0059__v1_l0
                0x00000000080f8038                anim_0059__v2_l0
                0x00000000080f8068                anim_0059__v3_l0
                0x00000000080f8098                anim_0059__v4_l0
                0x00000000080f80c8                anim_0059__v5_l0
                0x00000000080f80f8                anim_0059__v6_l0
                0x00000000080f8128                anim_0059__v7_l0
                0x00000000080f8158                anim_0059__v8_l0
                0x00000000080f8188                anim_0059__v9_l0
                0x00000000080f81b8                anim_0059__v10_l0
                0x00000000080f81e8                anim_0059__v11_l0
                0x00000000080f8218                anim_0059
                0x00000000080f8248                anim_0060__v0_l0
                0x00000000080f8278                anim_0060__v1_l0
                0x00000000080f82a8                anim_0060__v2_l0
                0x00000000080f82d8                anim_0060__v3_l0
                0x00000000080f8308                anim_0060__v4_l0
                0x00000000080f8338                anim_0060__v5_l0
                0x00000000080f8368                anim_0060__v6_l0
                0x00000000080f8398                anim_0060__v7_l0
                0x00000000080f83c8                anim_0060__v8_l0
                0x00000000080f83f8                anim_0060__v9_l0
                0x00000000080f8428                anim_0060__v10_l0
                0x00000000080f8458                anim_0060__v11_l0
                0x00000000080f8488                anim_0060
                0x00000000080f84b8                anim_0061__v0_l0
                0x00000000080f8528                anim_0061
                0x00000000080f852c                anim_0062__v0_l0
                0x00000000080f86dc                anim_0062__v1_l0
                0x00000000080f888c                anim_0062
                0x00000000080f8894                anim_0063__v0_l0
                0x00000000080f89c4                anim_0063__v1_l0
                0x00000000080f8af4                anim_0063
                0x00000000080f8afc                anim_0064__v0_l0
                0x00000000080f8cac                anim_0064
                0x00000000080f8cb0                anim_0065__v0_l0
                0x00000000080f8d70                anim_0065__v1_l0
                0x00000000080f8ddc                anim_0065__v2_l0
                0x00000000080f8e38                anim_0065
                0x00000000080f8e44                anim_0066__v0_l0
                0x00000000080f8ea0                anim_0066__v1_l0
                0x00000000080f8f20                anim_0066__v2_l0
                0x00000000080f8f7c                anim_0066
                0x00000000080f8f88                anim_0067__v0_l0
                0x00000000080f9048                anim_0067
                0x00000000080f904c                anim_0068__v0_l0
                0x00000000080f907c                anim_0068__v1_l0
                0x00000000080f90ac                anim_0068__v2_l0
                0x00000000080f90dc                anim_0068__v3_l0
                0x00000000080f910c                anim_0068__v4_l0
                0x00000000080f913c                anim_0068__v5_l0
                0x00000000080f916c                anim_0068__v6_l0
                0x00000000080f919c                anim_0068__v7_l0
                0x00000000080f91cc                anim_0068__v8_l0
                0x00000000080f91fc                anim_0068__v9_l0
                0x00000000080f922c                anim_0068__v10_l0
                0x00000000080f925c                anim_0068
                0x00000000080f9288                anim_0069__v0_l0
                0x00000000080f9348                anim_0069__v1_l0
                0x00000000080f9408                anim_0069
                0x00000000080f9410                anim_0070__v0_l0
                0x00000000080f94dc                anim_0070
                0x00000000080f94e0                anim_0071__v0_l0
                0x00000000080f95a0                anim_0071__v1_l0
                0x00000000080f9638                anim_0071
                0x00000000080f9640                anim_0072__v0_l0
                0x00000000080f9754                anim_0072
                0x00000000080f9758                anim_0073__v0_l0
                0x00000000080f9818                anim_0073__v1_l0
                0x00000000080f98d8                anim_0073__v2_l0
                0x00000000080f9998                anim_0073
                0x00000000080f99a4                anim_0074__v0_l0
                0x00000000080f99bc                anim_0074
                0x00000000080f99c0                anim_0075__v0_l0
                0x00000000080f9a1c                anim_0075
                0x00000000080f9a20                anim_0085__v0_l0
                0x00000000080f9a50                anim_0085__v1_l0
                0x00000000080f9a80                anim_0085
                0x00000000080f9a88                anim_0086__v0_l0
                0x00000000080f9b20                anim_0086__v1_l0
                0x00000000080f9bb8                anim_0086__v2_l0
                0x00000000080f9c50                anim_0086__v3_l0
                0x00000000080f9ce8                anim_0086
                0x00000000080f9cf8                anim_0087__v0_l0
                0x00000000080f9d40                anim_0087__v1_l0
                0x00000000080f9d70                anim_0087__v2_l0
                0x00000000080f9db8                anim_0087__v3_l0
                0x00000000080f9de8                anim_0087
                0x00000000080f9df8                anim_0088__v0_l0
                0x00000000080f9e44                anim_0088__v1_l0
                0x00000000080f9e90                anim_0088
                0x00000000080f9e98                anim_0089__v0_l0
                0x00000000080f9f30                anim_0089
                0x00000000080f9f34                anim_0090__v0_l0
                0x00000000080fa02c                anim_0090
                0x00000000080fa030                anim_0091__v0_l0
                0x00000000080fa190                anim_0091
                0x00000000080fa194                anim_0092__v0_l0
                0x00000000080fa680                anim_0092__v1_l0
                0x00000000080fa6d8                anim_0092
                0x00000000080fa6e0                anim_0093__v0_l0
                0x00000000080fa74c                anim_0093__v1_l0
                0x00000000080fa790                anim_0093
                0x00000000080fa798                anim_0094__v0_l0
                0x00000000080fa864                anim_0094__v1_l0
                0x00000000080fa930                anim_0094
                0x00000000080fa938                anim_0095__v0_l0
                0x00000000080fa9b4                anim_0095__v1_l0
                0x00000000080faa68                anim_0095
                0x00000000080faa70                anim_0096__v0_l0
                0x00000000080faab4                anim_0096
                0x00000000080faab8                anim_0097__v0_l0
                0x00000000080fab38                anim_0097
                0x00000000080fab3c                anim_0098__v0_l0
                0x00000000080fab98                anim_0098__v1_l0
                0x00000000080fabdc                anim_0098
                0x00000000080fabe4                anim_0099__v0_l0
                0x00000000080fad58                anim_0099__v1_l0
                0x00000000080fadb0                anim_0099
                0x00000000080fadb8                anim_0100__v0_l0
                0x00000000080faf18                anim_0100__v1_l0
                0x00000000080fb078                anim_0100__v2_l0
                0x00000000080fb1d8                anim_0100__v3_l0
                0x00000000080fb338                anim_0100__v4_l0
                0x00000000080fb498                anim_0100__v5_l0
                0x00000000080fb5f8                anim_0100
                0x00000000080fb610                anim_0101__v0_l0
                0x00000000080fb660                anim_0101__v1_l0
                0x00000000080fb72c                anim_0101__v2_l0
                0x00000000080fb7a8                anim_0101
                0x00000000080fb7b4                anim_0102__v0_l0
                0x00000000080fb804                anim_0102__v1_l0
                0x00000000080fb8d0                anim_0102__v2_l0
                0x00000000080fb94c                anim_0102
                0x00000000080fb958                anim_0103__v0_l0
                0x00000000080fba04                anim_0103
                0x00000000080fba08                anim_0104__v0_l0
                0x00000000080fba8c                anim_0104
                0x00000000080fba90                anim_0105__v0_l0
                0x00000000080fbbd8                anim_0105
                0x00000000080fbbdc                anim_0107__v0_l0
                0x00000000080fbdd0                anim_0107
                0x00000000080fbdd4                anim_0108__v0_l0
                0x00000000080fbedc                anim_0108__v1_l0
                0x00000000080fbf9c                anim_0108
                0x00000000080fbfa4                anim_0109__v0_l0
                0x00000000080fc12c                anim_0109
                0x00000000080fc130                anim_0110__v0_l0
                0x00000000080fc290                anim_0110__v1_l0
                0x00000000080fc2d4                anim_0110
                0x00000000080fc2dc                anim_0111__v0_l0
                0x00000000080fc378                anim_0111
                0x00000000080fc37c                anim_0112__v0_l0
                0x00000000080fc464                anim_0112
                0x00000000080fc468                anim_0113__v0_l0
                0x00000000080fc5c4                anim_0113
                0x00000000080fc5c8                anim_0119__v0_l0
                0x00000000080fc648                anim_0119__v1_l0
                0x00000000080fc6c8                anim_0119__v2_l0
                0x00000000080fc73c                anim_0119
                0x00000000080fc748                anim_0120__v0_l0
                0x00000000080fc7c0                anim_0120
                0x00000000080fc7c4                anim_0121__v0_l0
                0x00000000080fcaa4                anim_0121__v1_l0
                0x00000000080fcb04                anim_0121
                0x00000000080fcb0c                anim_0122__v0_l0
                0x00000000080fcca4                anim_0122__v1_l0
                0x00000000080fcd08                anim_0122__v2_l0
                0x00000000080fcd90                anim_0122
                0x00000000080fcd9c                anim_0123__v0_l0
                0x00000000080fcfa4                anim_0123
                0x00000000080fcfa8                anim_0124__v0_l0
                0x00000000080fd05c                anim_0124__v1_l0
                0x00000000080fd224                anim_0124
                0x00000000080fd22c                anim_0125__v0_l0
                0x00000000080fd390                anim_0125
                0x00000000080fd394                anim_0126__v0_l0
                0x00000000080fd560                anim_0126
                0x00000000080fd564                anim_0127__v0_l0
                0x00000000080fd588                anim_0127__v1_l0
                0x00000000080fd5ac                anim_0127__v2_l0
                0x00000000080fd5d0                anim_0127__v3_l0
                0x00000000080fd5f4                anim_0127__v4_l0
                0x00000000080fd618                anim_0127__v5_l0
                0x00000000080fd68c                anim_0127
                0x00000000080fd6a4                anim_0129__v0_l0
                0x00000000080fd708                anim_0129
                0x00000000080fd70c                anim_0130__v0_l0
                0x00000000080fd7c0                anim_0130
                0x00000000080fd7c4                anim_0135__v0_l0
                0x00000000080fd850                anim_0135
                0x00000000080fd854                anim_0139__v0_l0
                0x00000000080fd8d4                anim_0139__v1_l0
                0x00000000080fd96c                anim_0139__v2_l0
                0x00000000080fda2c                anim_0139
                0x00000000080fda38                anim_0140__v0_l0
                0x00000000080fdaa4                anim_0140__v1_l0
                0x00000000080fdb64                anim_0140
                0x00000000080fdb6c                anim_0141__v0_l0
                0x00000000080fdbec                anim_0141__v1_l0
                0x00000000080fdc70                anim_0141__v2_l0
                0x00000000080fdd08                anim_0141
                0x00000000080fdd14                anim_0142__v0_l0
                0x00000000080fdd94                anim_0142__v1_l0
                0x00000000080fde44                anim_0142
                0x00000000080fde4c                anim_0143__v0_l0
                0x00000000080fdebc                anim_0143__v1_l0
                0x00000000080fdf50                anim_0143__v2_l0
                0x00000000080fdfac                anim_0143
                0x00000000080fdfb8                anim_0144__v0_l0
                0x00000000080fe104                anim_0144
                0x00000000080fe108                anim_0145__v0_l0
                0x00000000080fe184                anim_0145__v1_l0
                0x00000000080fe244                anim_0145
                0x00000000080fe24c                anim_0146__v0_l0
                0x00000000080fe35c                anim_0146
                0x00000000080fe360                anim_0148__v0_l0
                0x00000000080fe390                anim_0148__v1_l0
                0x00000000080fe3c0                anim_0148__v2_l0
                0x00000000080fe3f0                anim_0148__v3_l0
                0x00000000080fe420                anim_0148__v4_l0
                0x00000000080fe450                anim_0148__v5_l0
                0x00000000080fe480                anim_0148__v6_l0
                0x00000000080fe4b0                anim_0148__v7_l0
                0x00000000080fe4e0                anim_0148
                0x00000000080fe500                anim_0149__v0_l0
                0x00000000080fe5c0                anim_0149
                0x00000000080fe5c4                anim_0150__v0_l0
                0x00000000080fe5f4                anim_0150__v1_l0
                0x00000000080fe624                anim_0150__v2_l0
                0x00000000080fe654                anim_0150__v3_l0
                0x00000000080fe684                anim_0150__v4_l0
                0x00000000080fe6b4                anim_0150__v5_l0
                0x00000000080fe6e4                anim_0150__v6_l0
                0x00000000080fe714                anim_0150__v7_l0
                0x00000000080fe744                anim_0150__v8_l0
                0x00000000080fe774                anim_0150__v9_l0
                0x00000000080fe7a4                anim_0150__v10_l0
                0x00000000080fe7d4                anim_0150__v11_l0
                0x00000000080fe804                anim_0150
                0x00000000080fe834                anim_0151__v0_l0
                0x00000000080fe864                anim_0151__v1_l0
                0x00000000080fe894                anim_0151__v2_l0
                0x00000000080fe8c4                anim_0151__v3_l0
                0x00000000080fe8f4                anim_0151__v4_l0
                0x00000000080fe924                anim_0151__v5_l0
                0x00000000080fe954                anim_0151__v6_l0
                0x00000000080fe984                anim_0151__v7_l0
                0x00000000080fe9b4                anim_0151__v8_l0
                0x00000000080fe9e4                anim_0151__v9_l0
                0x00000000080fea14                anim_0151__v10_l0
                0x00000000080fea44                anim_0151__v11_l0
                0x00000000080fea74                anim_0151
                0x00000000080feaa4                anim_0152__v0_l0
                0x00000000080feb14                anim_0152
                0x00000000080feb18                anim_0153__v0_l0
                0x00000000080fecc8                anim_0153__v1_l0
                0x00000000080fee78                anim_0153
                0x00000000080fee80                anim_0154__v0_l0
                0x00000000080fefb0                anim_0154__v1_l0
                0x00000000080ff0e0                anim_0154
                0x00000000080ff0e8                anim_0155__v0_l0
                0x00000000080ff298                anim_0155
                0x00000000080ff29c                anim_0156__v0_l0
                0x00000000080ff35c                anim_0156__v1_l0
                0x00000000080ff3dc                anim_0156__v2_l0
                0x00000000080ff438                anim_0156
                0x00000000080ff444                anim_0157__v0_l0
                0x00000000080ff4a0                anim_0157__v1_l0
                0x00000000080ff520                anim_0157__v2_l0
                0x00000000080ff57c                anim_0157
                0x00000000080ff588                anim_0158__v0_l0
                0x00000000080ff648                anim_0158
                0x00000000080ff64c                anim_0159__v0_l0
                0x00000000080ff67c                anim_0159__v1_l0
                0x00000000080ff6ac                anim_0159__v2_l0
                0x00000000080ff6dc                anim_0159__v3_l0
                0x00000000080ff70c                anim_0159__v4_l0
                0x00000000080ff73c                anim_0159__v5_l0
                0x00000000080ff76c                anim_0159__v6_l0
                0x00000000080ff79c                anim_0159__v7_l0
                0x00000000080ff7cc                anim_0159__v8_l0
                0x00000000080ff7fc                anim_0159__v9_l0
                0x00000000080ff82c                anim_0159__v10_l0
                0x00000000080ff85c                anim_0159
                0x00000000080ff888                anim_0160__v0_l0
                0x00000000080ff948                anim_0160__v1_l0
                0x00000000080ffa08                anim_0160
                0x00000000080ffa10                anim_0161__v0_l0
                0x00000000080ffadc                anim_0161
                0x00000000080ffae0                anim_0162__v0_l0
                0x00000000080ffba0                anim_0162__v1_l0
                0x00000000080ffc38                anim_0162
                0x00000000080ffc40                anim_0163__v0_l0
                0x00000000080ffd54                anim_0163
                0x00000000080ffd58                anim_0164__v0_l0
                0x00000000080ffe18                anim_0164__v1_l0
                0x00000000080ffed8                anim_0164__v2_l0
                0x00000000080fff98                anim_0164
                0x00000000080fffa4                anim_0165__v0_l0
                0x00000000080fffbc                anim_0165
                0x00000000080fffc0                anim_0166__v0_l0
                0x000000000810001c                anim_0166
                0x0000000008100020                anim_0176__v0_l0
                0x0000000008100044                anim_0176__v1_l0
                0x0000000008100068                anim_0176
                0x0000000008100070                anim_0177__v0_l0
                0x00000000081000fc                anim_0177__v1_l0
                0x0000000008100188                anim_0177__v2_l0
                0x0000000008100214                anim_0177__v3_l0
                0x00000000081002a0                anim_0177
                0x00000000081002b0                anim_0178__v0_l0
                0x00000000081002ec                anim_0178__v1_l0
                0x0000000008100310                anim_0178__v2_l0
                0x000000000810034c                anim_0178__v3_l0
                0x0000000008100370                anim_0178
                0x0000000008100380                anim_0179__v0_l0
                0x00000000081003cc                anim_0179__v1_l0
                0x0000000008100418                anim_0179
                0x0000000008100420                anim_0180__v0_l0
                0x00000000081004ac                anim_0180
                0x00000000081004b0                anim_0181__v0_l0
                0x000000000810059c                anim_0181
                0x00000000081005a0                anim_0182__v0_l0
                0x0000000008100700                anim_0182
                0x0000000008100704                anim_0183__v0_l0
                0x0000000008100918                anim_0183__v1_l0
                0x0000000008100998                anim_0183
                0x00000000081009a0                anim_0184__v0_l0
                0x0000000008100b28                anim_0184__v1_l0
                0x0000000008100b6c                anim_0184
                0x0000000008100b74                anim_0185__v0_l0
                0x0000000008100c40                anim_0185__v1_l0
                0x0000000008100d0c                anim_0185
                0x0000000008100d14                anim_0186__v0_l0
                0x0000000008100de0                anim_0186__v1_l0
                0x0000000008100e94                anim_0186
                0x0000000008100e9c                anim_0187__v0_l0
                0x0000000008100ee0                anim_0187
                0x0000000008100ee4                anim_0188__v0_l0
                0x0000000008100f50                anim_0188
                0x0000000008100f54                anim_0189__v0_l0
                0x0000000008100fb0                anim_0189__v1_l0
                0x0000000008100fe0                anim_0189
                0x0000000008100fe8                anim_0190__v0_l0
                0x0000000008101044                anim_0190__v1_l0
                0x0000000008101088                anim_0190
                0x0000000008101090                anim_0191__v0_l0
                0x00000000081011f0                anim_0191__v1_l0
                0x0000000008101350                anim_0191__v2_l0
                0x00000000081014b0                anim_0191__v3_l0
                0x0000000008101610                anim_0191__v4_l0
                0x0000000008101770                anim_0191__v5_l0
                0x00000000081018d0                anim_0191
                0x00000000081018e8                anim_0192__v0_l0
                0x0000000008101950                anim_0192__v1_l0
                0x0000000008101a1c                anim_0192__v2_l0
                0x0000000008101ad8                anim_0192
                0x0000000008101ae4                anim_0193__v0_l0
                0x0000000008101b34                anim_0193__v1_l0
                0x0000000008101c00                anim_0193__v2_l0
                0x0000000008101cbc                anim_0193
                0x0000000008101cc8                anim_0194__v0_l0
                0x0000000008101d34                anim_0194
                0x0000000008101d38                anim_0195__v0_l0
                0x0000000008101dbc                anim_0195
                0x0000000008101dc0                anim_0196__v0_l0
                0x0000000008101f1c                anim_0196
                0x0000000008101f20                anim_0198__v0_l0
                0x0000000008102054                anim_0198__v1_l0
                0x00000000081020bc                anim_0198
                0x00000000081020c4                anim_0201__v0_l0
                0x0000000008102238                anim_0201
                0x000000000810223c                anim_0202__v0_l0
                0x00000000081023a8                anim_0202
                0x00000000081023ac                anim_0203__v0_l0
                0x0000000008102414                anim_0203
                0x0000000008102418                anim_0204__v0_l0
                0x000000000810250c                anim_0204
                0x0000000008102510                anim_0210__v0_l0
                0x0000000008102590                anim_0210__v1_l0
                0x0000000008102610                anim_0210__v2_l0
                0x0000000008102684                anim_0210
                0x0000000008102690                anim_0211__v0_l0
                0x000000000810271c                anim_0211
                0x0000000008102720                anim_0212__v0_l0
                0x0000000008102a24                anim_0212__v1_l0
                0x0000000008102a84                anim_0212
                0x0000000008102a8c                anim_0213__v0_l0
                0x0000000008102ab0                anim_0213__v1_l0
                0x0000000008102b14                anim_0213__v2_l0
                0x0000000008102b4c                anim_0213
                0x0000000008102b58                anim_0214__v0_l0
                0x0000000008102cf8                anim_0214
                0x0000000008102cfc                anim_0215__v0_l0
                0x0000000008102fcc                anim_0215
                0x0000000008102fd0                anim_0216__v0_l0
                0x0000000008103174                anim_0216
                0x0000000008103178                anim_0217__v0_l0
                0x0000000008103254                anim_0217
                0x0000000008103258                anim_0218__v0_l0
                0x000000000810327c                anim_0218__v1_l0
                0x00000000081032a0                anim_0218__v2_l0
                0x00000000081032c4                anim_0218__v3_l0
                0x0000000008103338                anim_0218
                0x0000000008103348                anim_0222__v0_l0
                0x00000000081033ac                anim_0222__v1_l0
                0x00000000081033d0                anim_0222
                0x00000000081033d8                anim_0223__v0_l0
                0x0000000008103544                anim_0223__v1_l0
                0x00000000081036c0                anim_0223
                0x00000000081036c8                anim_0230__v0_l0
                0x0000000008103734                anim_0230__v1_l0
                0x00000000081037b8                anim_0230__v2_l0
                0x0000000008103850                anim_0230
                0x000000000810385c                anim_0231__v0_l0
                0x00000000081038dc                anim_0231__v1_l0
                0x00000000081039ec                anim_0231__v2_l0
                0x0000000008103a5c                anim_0231
                0x0000000008103a68                anim_0232__v0_l0
                0x0000000008103ad4                anim_0232__v1_l0
                0x0000000008103b98                anim_0232__v2_l0
                0x0000000008103c80                anim_0232
                0x0000000008103c8c                anim_0233__v0_l0
                0x0000000008103ce4                anim_0233__v1_l0
                0x0000000008103de0                anim_0233
                0x0000000008103de8                anim_0234__v0_l0
                0x0000000008103e44                anim_0234__v1_l0
                0x0000000008103efc                anim_0234__v2_l0
                0x0000000008103f58                anim_0234
                0x0000000008103f64                anim_0235__v0_l0
                0x000000000810409c                anim_0235
                0x00000000081040a0                anim_0236__v0_l0
                0x000000000810411c                anim_0236__v1_l0
                0x00000000081041f0                anim_0236
                0x00000000081041f8                anim_0237__v0_l0
                0x0000000008104254                anim_0237
                0x0000000008104258                anim_0239__v0_l0
                0x0000000008104288                anim_0239__v1_l0
                0x00000000081042b8                anim_0239__v2_l0
                0x00000000081042e8                anim_0239__v3_l0
                0x0000000008104318                anim_0239__v4_l0
                0x0000000008104348                anim_0239__v5_l0
                0x0000000008104378                anim_0239__v6_l0
                0x00000000081043a8                anim_0239__v7_l0
                0x00000000081043d8                anim_0239
                0x00000000081043f8                anim_0240__v0_l0
                0x00000000081044b8                anim_0240
                0x00000000081044bc                anim_0241__v0_l0
                0x00000000081044ec                anim_0241__v1_l0
                0x000000000810451c                anim_0241__v2_l0
                0x000000000810454c                anim_0241__v3_l0
                0x000000000810457c                anim_0241__v4_l0
                0x00000000081045ac                anim_0241__v5_l0
                0x00000000081045dc                anim_0241__v6_l0
                0x000000000810460c                anim_0241__v7_l0
                0x000000000810463c                anim_0241__v8_l0
                0x000000000810466c                anim_0241__v9_l0
                0x000000000810469c                anim_0241__v10_l0
                0x00000000081046cc                anim_0241__v11_l0
                0x00000000081046fc                anim_0241
                0x000000000810472c                anim_0242__v0_l0
                0x000000000810475c                anim_0242__v1_l0
                0x000000000810478c                anim_0242__v2_l0
                0x00000000081047bc                anim_0242__v3_l0
                0x00000000081047ec                anim_0242__v4_l0
                0x000000000810481c                anim_0242__v5_l0
                0x000000000810484c                anim_0242__v6_l0
                0x000000000810487c                anim_0242__v7_l0
                0x00000000081048ac                anim_0242__v8_l0
                0x00000000081048dc                anim_0242__v9_l0
                0x000000000810490c                anim_0242__v10_l0
                0x000000000810493c                anim_0242__v11_l0
                0x000000000810496c                anim_0242
                0x000000000810499c                anim_0243__v0_l0
                0x0000000008104a0c                anim_0243
                0x0000000008104a10                anim_0244__v0_l0
                0x0000000008104bc0                anim_0244__v1_l0
                0x0000000008104d70                anim_0244
                0x0000000008104d78                anim_0245__v0_l0
                0x0000000008104ea8                anim_0245__v1_l0
                0x0000000008104fd8                anim_0245
                0x0000000008104fe0                anim_0246__v0_l0
                0x0000000008105190                anim_0246
                0x0000000008105194                anim_0247__v0_l0
                0x0000000008105254                anim_0247__v1_l0
                0x00000000081052d4                anim_0247__v2_l0
                0x0000000008105330                anim_0247
                0x000000000810533c                anim_0248__v0_l0
                0x0000000008105398                anim_0248__v1_l0
                0x0000000008105418                anim_0248__v2_l0
                0x0000000008105474                anim_0248
                0x0000000008105480                anim_0249__v0_l0
                0x0000000008105540                anim_0249
                0x0000000008105544                anim_0250__v0_l0
                0x0000000008105574                anim_0250__v1_l0
                0x00000000081055a4                anim_0250__v2_l0
                0x00000000081055d4                anim_0250__v3_l0
                0x0000000008105604                anim_0250__v4_l0
                0x0000000008105634                anim_0250__v5_l0
                0x0000000008105664                anim_0250__v6_l0
                0x0000000008105694                anim_0250__v7_l0
                0x00000000081056c4                anim_0250__v8_l0
                0x00000000081056f4                anim_0250__v9_l0
                0x0000000008105724                anim_0250__v10_l0
                0x0000000008105754                anim_0250
                0x0000000008105780                anim_0251__v0_l0
                0x0000000008105840                anim_0251__v1_l0
                0x0000000008105900                anim_0251
                0x0000000008105908                anim_0252__v0_l0
                0x00000000081059d4                anim_0252
                0x00000000081059d8                anim_0253__v0_l0
                0x0000000008105a98                anim_0253__v1_l0
                0x0000000008105b30                anim_0253
                0x0000000008105b38                anim_0254__v0_l0
                0x0000000008105c4c                anim_0254
                0x0000000008105c50                anim_0255__v0_l0
                0x0000000008105d10                anim_0255__v1_l0
                0x0000000008105dd0                anim_0255__v2_l0
                0x0000000008105e90                anim_0255
                0x0000000008105e9c                anim_0256__v0_l0
                0x0000000008105eb4                anim_0256
                0x0000000008105eb8                anim_0257__v0_l0
                0x0000000008105f14                anim_0257
                0x0000000008105f18                anim_0267__v0_l0
                0x0000000008105f3c                anim_0267__v1_l0
                0x0000000008105f60                anim_0267
                0x0000000008105f68                anim_0268__v0_l0
                0x0000000008105ff4                anim_0268__v1_l0
                0x0000000008106080                anim_0268__v2_l0
                0x000000000810610c                anim_0268__v3_l0
                0x0000000008106198                anim_0268
                0x00000000081061a8                anim_0269__v0_l0
                0x00000000081061e4                anim_0269__v1_l0
                0x0000000008106208                anim_0269__v2_l0
                0x0000000008106244                anim_0269__v3_l0
                0x0000000008106268                anim_0269
                0x0000000008106278                anim_0270__v0_l0
                0x00000000081062c4                anim_0270__v1_l0
                0x0000000008106310                anim_0270
                0x0000000008106318                anim_0271__v0_l0
                0x00000000081063a4                anim_0271
                0x00000000081063a8                anim_0272__v0_l0
                0x0000000008106494                anim_0272
                0x0000000008106498                anim_0273__v0_l0
                0x00000000081067d0                anim_0273
                0x00000000081067d4                anim_0274__v0_l0
                0x0000000008106c18                anim_0274__v1_l0
                0x0000000008106c48                anim_0274
                0x0000000008106c50                anim_0275__v0_l0
                0x0000000008106cbc                anim_0275__v1_l0
                0x0000000008106d00                anim_0275
                0x0000000008106d08                anim_0276__v0_l0
                0x0000000008106d84                anim_0276__v1_l0
                0x0000000008106dfc                anim_0276
                0x0000000008106e04                anim_0277__v0_l0
                0x0000000008106e80                anim_0277
                0x0000000008106e84                anim_0278__v0_l0
                0x0000000008106ec8                anim_0278
                0x0000000008106ecc                anim_0279__v0_l0
                0x0000000008106f38                anim_0279
                0x0000000008106f3c                anim_0280__v0_l0
                0x0000000008106f98                anim_0280__v1_l0
                0x0000000008106fdc                anim_0280
                0x0000000008106fe4                anim_0281__v0_l0
                0x0000000008107054                anim_0281__v1_l0
                0x0000000008107098                anim_0281
                0x00000000081070a0                anim_0282__v0_l0
                0x0000000008107160                anim_0282__v1_l0
                0x0000000008107220                anim_0282__v2_l0
                0x00000000081072e0                anim_0282__v3_l0
                0x00000000081073a0                anim_0282__v4_l0
                0x0000000008107460                anim_0282__v5_l0
                0x0000000008107520                anim_0282
                0x0000000008107538                anim_0283__v0_l0
                0x0000000008107588                anim_0283__v1_l0
                0x0000000008107654                anim_0283__v2_l0
                0x00000000081076d0                anim_0283
                0x00000000081076dc                anim_0284__v0_l0
                0x000000000810772c                anim_0284__v1_l0
                0x00000000081077f8                anim_0284__v2_l0
                0x0000000008107870                anim_0284
                0x000000000810787c                anim_0285__v0_l0
                0x00000000081078f4                anim_0285
                0x00000000081078f8                anim_0286__v0_l0
                0x000000000810797c                anim_0286
                0x0000000008107980                anim_0287__v0_l0
                0x0000000008107a70                anim_0287__v1_l0
                0x0000000008107b48                anim_0287
                0x0000000008107b50                anim_0288__v0_l0
                0x0000000008107c1c                anim_0288__v1_l0
                0x0000000008107cc4                anim_0288__v2_l0
                0x0000000008107d78                anim_0288
                0x0000000008107d84                anim_0289__v0_l0
                0x0000000008107e50                anim_0289__v1_l0
                0x0000000008107ed0                anim_0289__v2_l0
                0x0000000008107f84                anim_0289
                0x0000000008107f90                anim_0292__v0_l0
                0x0000000008107fe4                anim_0292
                0x0000000008107fe8                anim_0293__v0_l0
                0x0000000008108024                anim_0293__v1_l0
                0x0000000008108060                anim_0293__v2_l0
                0x000000000810809c                anim_0293__v3_l0
                0x00000000081080d8                anim_0293
                0x00000000081080e8                anim_0294__v0_l0
                0x000000000810813c                anim_0294
                0x0000000008108140                anim_0295__v0_l0
                0x00000000081081ec                anim_0295__v1_l0
                0x000000000810828c                anim_0295
                0x0000000008108294                anim_0296__v0_l0
                0x0000000008108304                anim_0296
                0x0000000008108308                anim_0297__v0_l0
                0x00000000081083b0                anim_0297__v1_l0
                0x0000000008108458                anim_0297__v2_l0
                0x0000000008108488                anim_0297__v3_l0
                0x000000000810852c                anim_0297__v4_l0
                0x0000000008108570                anim_0297
                0x0000000008108584                anim_0301__v0_l0
                0x0000000008108608                anim_0301__v1_l0
                0x0000000008108688                anim_0301__v2_l0
                0x00000000081086e8                anim_0301
                0x00000000081086f4                anim_0302__v0_l0
                0x0000000008108780                anim_0302
                0x0000000008108784                anim_0303__v0_l0
                0x0000000008108a78                anim_0303__v1_l0
                0x0000000008108ad8                anim_0303
                0x0000000008108ae0                anim_0304__v0_l0
                0x0000000008108b24                anim_0304__v1_l0
                0x0000000008108b94                anim_0304__v2_l0
                0x0000000008108bec                anim_0304
                0x0000000008108bf8                anim_0305__v0_l0
                0x0000000008108d70                anim_0305
                0x0000000008108d74                anim_0306__v0_l0
                0x0000000008108ff0                anim_0306
                0x0000000008108ff4                anim_0307__v0_l0
                0x0000000008109158                anim_0307
                0x000000000810915c                anim_0308__v0_l0
                0x00000000081092b0                anim_0308
                0x00000000081092b4                anim_0309__v0_l0
                0x00000000081092d8                anim_0309__v1_l0
                0x00000000081092fc                anim_0309__v2_l0
                0x0000000008109320                anim_0309__v3_l0
                0x0000000008109344                anim_0309
                0x0000000008109354                anim_0315__v0_l0
                0x00000000081093b8                anim_0315__v1_l0
                0x0000000008109458                anim_0315__v2_l0
                0x00000000081094e0                anim_0315__v3_l0
                0x000000000810952c                anim_0315
                0x000000000810953c                anim_0316__v0_l0
                0x00000000081095f0                anim_0316
                0x00000000081095f4                anim_0321__v0_l0
                0x000000000810964c                anim_0321__v1_l0
                0x00000000081096e4                anim_0321__v2_l0
                0x0000000008109768                anim_0321__v3_l0
                0x0000000008109818                anim_0321
                0x0000000008109828                anim_0322__v0_l0
                0x00000000081098b4                anim_0322__v1_l0
                0x0000000008109950                anim_0322__v2_l0
                0x0000000008109a58                anim_0322
                0x0000000008109a64                anim_0323__v0_l0
                0x0000000008109abc                anim_0323__v1_l0
                0x0000000008109b44                anim_0323
                0x0000000008109b4c                anim_0324__v0_l0
                0x0000000008109bb8                anim_0324__v1_l0
                0x0000000008109c84                anim_0324__v2_l0
                0x0000000008109d2c                anim_0324__v3_l0
                0x0000000008109de0                anim_0324
                0x0000000008109df0                anim_0325__v0_l0
                0x0000000008109e60                anim_0325__v1_l0
                0x0000000008109ef4                anim_0325__v2_l0
                0x0000000008109f50                anim_0325
                0x0000000008109f5c                anim_0326__v0_l0
                0x000000000810a094                anim_0326
                0x000000000810a098                anim_0327__v0_l0
                0x000000000810a114                anim_0327__v1_l0
                0x000000000810a1d4                anim_0327
                0x000000000810a1dc                anim_0328__v0_l0
                0x000000000810a224                anim_0328
                0x000000000810a228                anim_0330__v0_l0
                0x000000000810a258                anim_0330__v1_l0
                0x000000000810a288                anim_0330__v2_l0
                0x000000000810a2b8                anim_0330__v3_l0
                0x000000000810a2e8                anim_0330__v4_l0
                0x000000000810a318                anim_0330__v5_l0
                0x000000000810a348                anim_0330__v6_l0
                0x000000000810a378                anim_0330__v7_l0
                0x000000000810a3a8                anim_0330
                0x000000000810a3c8                anim_0331__v0_l0
                0x000000000810a488                anim_0331
                0x000000000810a48c                anim_0332__v0_l0
                0x000000000810a4bc                anim_0332__v1_l0
                0x000000000810a4ec                anim_0332__v2_l0
                0x000000000810a51c                anim_0332__v3_l0
                0x000000000810a54c                anim_0332__v4_l0
                0x000000000810a57c                anim_0332__v5_l0
                0x000000000810a5ac                anim_0332__v6_l0
                0x000000000810a5dc                anim_0332__v7_l0
                0x000000000810a60c                anim_0332__v8_l0
                0x000000000810a63c                anim_0332__v9_l0
                0x000000000810a66c                anim_0332__v10_l0
                0x000000000810a69c                anim_0332__v11_l0
                0x000000000810a6cc                anim_0332
                0x000000000810a6fc                anim_0333__v0_l0
                0x000000000810a72c                anim_0333__v1_l0
                0x000000000810a75c                anim_0333__v2_l0
                0x000000000810a78c                anim_0333__v3_l0
                0x000000000810a7bc                anim_0333__v4_l0
                0x000000000810a7ec                anim_0333__v5_l0
                0x000000000810a81c                anim_0333__v6_l0
                0x000000000810a84c                anim_0333__v7_l0
                0x000000000810a87c                anim_0333__v8_l0
                0x000000000810a8ac                anim_0333__v9_l0
                0x000000000810a8dc                anim_0333__v10_l0
                0x000000000810a90c                anim_0333__v11_l0
                0x000000000810a93c                anim_0333
                0x000000000810a96c                anim_0334__v0_l0
                0x000000000810a9dc                anim_0334
                0x000000000810a9e0                anim_0335__v0_l0
                0x000000000810ab90                anim_0335__v1_l0
                0x000000000810ad40                anim_0335
                0x000000000810ad48                anim_0336__v0_l0
                0x000000000810ae78                anim_0336__v1_l0
                0x000000000810afa8                anim_0336
                0x000000000810afb0                anim_0337__v0_l0
                0x000000000810b160                anim_0337
                0x000000000810b164                anim_0338__v0_l0
                0x000000000810b224                anim_0338__v1_l0
                0x000000000810b290                anim_0338__v2_l0
                0x000000000810b2ec                anim_0338
                0x000000000810b2f8                anim_0339__v0_l0
                0x000000000810b354                anim_0339__v1_l0
                0x000000000810b3d4                anim_0339__v2_l0
                0x000000000810b430                anim_0339
                0x000000000810b43c                anim_0340__v0_l0
                0x000000000810b4fc                anim_0340
                0x000000000810b500                anim_0341__v0_l0
                0x000000000810b530                anim_0341__v1_l0
                0x000000000810b560                anim_0341__v2_l0
                0x000000000810b590                anim_0341__v3_l0
                0x000000000810b5c0                anim_0341__v4_l0
                0x000000000810b5f0                anim_0341__v5_l0
                0x000000000810b620                anim_0341__v6_l0
                0x000000000810b650                anim_0341__v7_l0
                0x000000000810b680                anim_0341__v8_l0
                0x000000000810b6b0                anim_0341__v9_l0
                0x000000000810b6e0                anim_0341__v10_l0
                0x000000000810b710                anim_0341
                0x000000000810b73c                anim_0342__v0_l0
                0x000000000810b7fc                anim_0342__v1_l0
                0x000000000810b8bc                anim_0342
                0x000000000810b8c4                anim_0343__v0_l0
                0x000000000810b990                anim_0343
                0x000000000810b994                anim_0344__v0_l0
                0x000000000810ba2c                anim_0344__v1_l0
                0x000000000810bac4                anim_0344
                0x000000000810bacc                anim_0345__v0_l0
                0x000000000810bbe0                anim_0345
                0x000000000810bbe4                anim_0346__v0_l0
                0x000000000810bca4                anim_0346__v1_l0
                0x000000000810bd64                anim_0346__v2_l0
                0x000000000810be24                anim_0346
                0x000000000810be30                anim_0347__v0_l0
                0x000000000810be48                anim_0347
                0x000000000810be4c                anim_0348__v0_l0
                0x000000000810bea8                anim_0348
                0x000000000810beac                anim_0358__v0_l0
                0x000000000810bedc                anim_0358__v1_l0
                0x000000000810bf0c                anim_0358
                0x000000000810bf14                anim_0359__v0_l0
                0x000000000810bfb8                anim_0359__v1_l0
                0x000000000810c050                anim_0359__v2_l0
                0x000000000810c0e8                anim_0359__v3_l0
                0x000000000810c174                anim_0359
                0x000000000810c184                anim_0360__v0_l0
                0x000000000810c1cc                anim_0360__v1_l0
                0x000000000810c1fc                anim_0360__v2_l0
                0x000000000810c244                anim_0360__v3_l0
                0x000000000810c274                anim_0360
                0x000000000810c284                anim_0361__v0_l0
                0x000000000810c2d0                anim_0361__v1_l0
                0x000000000810c31c                anim_0361
                0x000000000810c324                anim_0362__v0_l0
                0x000000000810c3bc                anim_0362
                0x000000000810c3c0                anim_0363__v0_l0
                0x000000000810c4b8                anim_0363
                0x000000000810c4bc                anim_0364__v0_l0
                0x000000000810c61c                anim_0364
                0x000000000810c620                anim_0365__v0_l0
                0x000000000810c8d4                anim_0365__v1_l0
                0x000000000810c940                anim_0365
                0x000000000810c948                anim_0366__v0_l0
                0x000000000810c9a0                anim_0366__v1_l0
                0x000000000810c9e4                anim_0366
                0x000000000810c9ec                anim_0367__v0_l0
                0x000000000810ca54                anim_0367__v1_l0
                0x000000000810cabc                anim_0367
                0x000000000810cac4                anim_0368__v0_l0
                0x000000000810cc30                anim_0368
                0x000000000810cc34                anim_0369__v0_l0
                0x000000000810cc78                anim_0369
                0x000000000810cc7c                anim_0370__v0_l0
                0x000000000810cce8                anim_0370
                0x000000000810ccec                anim_0371__v0_l0
                0x000000000810cd48                anim_0371__v1_l0
                0x000000000810cd78                anim_0371
                0x000000000810cd80                anim_0372__v0_l0
                0x000000000810cdf0                anim_0372__v1_l0
                0x000000000810ce48                anim_0372
                0x000000000810ce50                anim_0373__v0_l0
                0x000000000810cfb0                anim_0373__v1_l0
                0x000000000810d110                anim_0373__v2_l0
                0x000000000810d270                anim_0373__v3_l0
                0x000000000810d3d0                anim_0373__v4_l0
                0x000000000810d530                anim_0373__v5_l0
                0x000000000810d690                anim_0373
                0x000000000810d6a8                anim_0374__v0_l0
                0x000000000810d6f8                anim_0374__v1_l0
                0x000000000810d7c4                anim_0374__v2_l0
                0x000000000810d86c                anim_0374
                0x000000000810d878                anim_0375__v0_l0
                0x000000000810d8c8                anim_0375__v1_l0
                0x000000000810d994                anim_0375__v2_l0
                0x000000000810da3c                anim_0375
                0x000000000810da48                anim_0376__v0_l0
                0x000000000810daa0                anim_0376
                0x000000000810daa4                anim_0377__v0_l0
                0x000000000810db34                anim_0377
                0x000000000810db38                anim_0378__v0_l0
                0x000000000810dd00                anim_0378
                0x000000000810dd04                anim_0380__v0_l0
                0x000000000810dd94                anim_0380__v1_l0
                0x000000000810ddfc                anim_0380__v2_l0
                0x000000000810dee0                anim_0380__v3_l0
                0x000000000810df30                anim_0380
                0x000000000810df40                anim_0381__v0_l0
                0x000000000810e0cc                anim_0381
                0x000000000810e0d0                anim_0382__v0_l0
                0x000000000810e1bc                anim_0382__v1_l0
                0x000000000810e238                anim_0382
                0x000000000810e240                anim_0383__v0_l0
                0x000000000810e444                anim_0383
                0x000000000810e448                anim_0392__v0_l0
                0x000000000810e4b4                anim_0392__v1_l0
                0x000000000810e534                anim_0392__v2_l0
                0x000000000810e5a8                anim_0392
                0x000000000810e5b4                anim_0393__v0_l0
                0x000000000810e62c                anim_0393
                0x000000000810e630                anim_0394__v0_l0
                0x000000000810e910                anim_0394__v1_l0
                0x000000000810e970                anim_0394
                0x000000000810e978                anim_0395__v0_l0
                0x000000000810e9bc                anim_0395__v1_l0
                0x000000000810ea18                anim_0395__v2_l0
                0x000000000810ea70                anim_0395
                0x000000000810ea7c                anim_0396__v0_l0
                0x000000000810ec94                anim_0396
                0x000000000810ec98                anim_0397__v0_l0
                0x000000000810ef7c                anim_0397
                0x000000000810ef80                anim_0398__v0_l0
                0x000000000810f1b0                anim_0398
                0x000000000810f1b4                anim_0399__v0_l0
                0x000000000810f330                anim_0399
                0x000000000810f334                anim_0400__v0_l0
                0x000000000810f358                anim_0400__v1_l0
                0x000000000810f37c                anim_0400__v2_l0
                0x000000000810f3a0                anim_0400__v3_l0
                0x000000000810f414                anim_0400
                0x000000000810f424                anim_0412__v0_l0
                0x000000000810f468                anim_0412__v1_l0
                0x000000000810f4f4                anim_0412__v2_l0
                0x000000000810f58c                anim_0412
                0x000000000810f598                anim_0413__v0_l0
                0x000000000810f604                anim_0413__v1_l0
                0x000000000810f6d0                anim_0413
                0x000000000810f6d8                anim_0414__v0_l0
                0x000000000810f744                anim_0414__v1_l0
                0x000000000810f8b8                anim_0414
                0x000000000810f8c0                anim_0415__v0_l0
                0x000000000810f92c                anim_0415__v1_l0
                0x000000000810f9d0                anim_0415__v2_l0
                0x000000000810fa7c                anim_0415
                0x000000000810fa88                anim_0416__v0_l0
                0x000000000810fae4                anim_0416__v1_l0
                0x000000000810fb78                anim_0416__v2_l0
                0x000000000810fbd4                anim_0416
                0x000000000810fbe0                anim_0417__v0_l0
                0x000000000810fd18                anim_0417
                0x000000000810fd1c                anim_0418__v0_l0
                0x000000000810fd98                anim_0418__v1_l0
                0x000000000810fe6c                anim_0418
                0x000000000810fe74                anim_0419__v0_l0
                0x000000000810fec8                anim_0419
                0x000000000810fecc                anim_0420__v0_l0
                0x0000000008110194                anim_0420
                0x0000000008110198                anim_0421__v0_l0
                0x00000000081101c8                anim_0421__v1_l0
                0x00000000081101f8                anim_0421__v2_l0
                0x0000000008110228                anim_0421__v3_l0
                0x0000000008110258                anim_0421__v4_l0
                0x0000000008110288                anim_0421__v5_l0
                0x00000000081102b8                anim_0421__v6_l0
                0x00000000081102e8                anim_0421__v7_l0
                0x0000000008110318                anim_0421
                0x0000000008110338                anim_0422__v0_l0
                0x00000000081103f8                anim_0422
                0x00000000081103fc                anim_0423__v0_l0
                0x000000000811042c                anim_0423__v1_l0
                0x000000000811045c                anim_0423__v2_l0
                0x000000000811048c                anim_0423__v3_l0
                0x00000000081104bc                anim_0423__v4_l0
                0x00000000081104ec                anim_0423__v5_l0
                0x000000000811051c                anim_0423__v6_l0
                0x000000000811054c                anim_0423__v7_l0
                0x000000000811057c                anim_0423__v8_l0
                0x00000000081105ac                anim_0423__v9_l0
                0x00000000081105dc                anim_0423__v10_l0
                0x000000000811060c                anim_0423__v11_l0
                0x000000000811063c                anim_0423
                0x000000000811066c                anim_0424__v0_l0
                0x000000000811069c                anim_0424__v1_l0
                0x00000000081106cc                anim_0424__v2_l0
                0x00000000081106fc                anim_0424__v3_l0
                0x000000000811072c                anim_0424__v4_l0
                0x000000000811075c                anim_0424__v5_l0
                0x000000000811078c                anim_0424__v6_l0
                0x00000000081107bc                anim_0424__v7_l0
                0x00000000081107ec                anim_0424__v8_l0
                0x000000000811081c                anim_0424__v9_l0
                0x000000000811084c                anim_0424__v10_l0
                0x000000000811087c                anim_0424__v11_l0
                0x00000000081108ac                anim_0424
                0x00000000081108dc                anim_0425__v0_l0
                0x0000000008110940                anim_0425
                0x0000000008110944                anim_0426__v0_l0
                0x0000000008110af4                anim_0426__v1_l0
                0x0000000008110c98                anim_0426
                0x0000000008110ca0                anim_0427__v0_l0
                0x0000000008110dd0                anim_0427__v1_l0
                0x0000000008110f00                anim_0427
                0x0000000008110f08                anim_0428__v0_l0
                0x00000000081110b8                anim_0428
                0x00000000081110bc                anim_0429__v0_l0
                0x000000000811117c                anim_0429__v1_l0
                0x00000000081111fc                anim_0429__v2_l0
                0x0000000008111258                anim_0429
                0x0000000008111264                anim_0430__v0_l0
                0x00000000081112c0                anim_0430__v1_l0
                0x0000000008111340                anim_0430__v2_l0
                0x000000000811139c                anim_0430
                0x00000000081113a8                anim_0431__v0_l0
                0x0000000008111468                anim_0431
                0x000000000811146c                anim_0432__v0_l0
                0x000000000811149c                anim_0432__v1_l0
                0x00000000081114cc                anim_0432__v2_l0
                0x00000000081114fc                anim_0432__v3_l0
                0x000000000811152c                anim_0432__v4_l0
                0x000000000811155c                anim_0432__v5_l0
                0x000000000811158c                anim_0432__v6_l0
                0x00000000081115bc                anim_0432__v7_l0
                0x00000000081115ec                anim_0432__v8_l0
                0x000000000811161c                anim_0432__v9_l0
                0x000000000811164c                anim_0432__v10_l0
                0x000000000811167c                anim_0432
                0x00000000081116a8                anim_0433__v0_l0
                0x0000000008111768                anim_0433__v1_l0
                0x0000000008111828                anim_0433
                0x0000000008111830                anim_0434__v0_l0
                0x00000000081118fc                anim_0434
                0x0000000008111900                anim_0435__v0_l0
                0x00000000081119c0                anim_0435__v1_l0
                0x0000000008111a58                anim_0435
                0x0000000008111a60                anim_0436__v0_l0
                0x0000000008111b74                anim_0436
                0x0000000008111b78                anim_0437__v0_l0
                0x0000000008111c38                anim_0437__v1_l0
                0x0000000008111cf8                anim_0437__v2_l0
                0x0000000008111db8                anim_0437
                0x0000000008111dc4                anim_0438__v0_l0
                0x0000000008111ddc                anim_0438
                0x0000000008111de0                anim_0439__v0_l0
                0x0000000008111e3c                anim_0439
                0x0000000008111e40                anim_0449__v0_l0
                0x0000000008111e64                anim_0449__v1_l0
                0x0000000008111e88                anim_0449
                0x0000000008111e90                anim_0450__v0_l0
                0x0000000008111f1c                anim_0450__v1_l0
                0x0000000008111fa8                anim_0450__v2_l0
                0x0000000008112034                anim_0450__v3_l0
                0x00000000081120c0                anim_0450
                0x00000000081120d0                anim_0451__v0_l0
                0x000000000811210c                anim_0451__v1_l0
                0x0000000008112130                anim_0451__v2_l0
                0x000000000811216c                anim_0451__v3_l0
                0x0000000008112190                anim_0451
                0x00000000081121a0                anim_0452__v0_l0
                0x00000000081121ec                anim_0452__v1_l0
                0x0000000008112238                anim_0452
                0x0000000008112240                anim_0453__v0_l0
                0x00000000081122cc                anim_0453
                0x00000000081122d0                anim_0454__v0_l0
                0x00000000081123bc                anim_0454
                0x00000000081123c0                anim_0455__v0_l0
                0x0000000008112474                anim_0455
                0x0000000008112478                anim_0456__v0_l0
                0x00000000081124b4                anim_0456
                0x00000000081124b8                anim_0457__v0_l0
                0x0000000008112568                anim_0457__v1_l0
                0x00000000081125b0                anim_0457
                0x00000000081125b8                anim_0458__v0_l0
                0x00000000081126e4                anim_0458
                0x00000000081126e8                anim_0459__v0_l0
                0x000000000811279c                anim_0459
                0x00000000081127a0                anim_0460__v0_l0
                0x00000000081128a4                anim_0460__v1_l0
                0x0000000008112908                anim_0460
                0x0000000008112910                anim_0461__v0_l0
                0x0000000008112974                anim_0461
                0x0000000008112978                anim_0462__v0_l0
                0x0000000008112af4                anim_0462
                0x0000000008112af8                anim_0463__v0_l0
                0x0000000008112bd0                anim_0463__v1_l0
                0x0000000008112d98                anim_0463
                0x0000000008112da0                anim_0464__v0_l0
                0x0000000008113094                anim_0464
                0x0000000008113098                anim_0465__v0_l0
                0x00000000081130fc                anim_0465
                0x0000000008113100                anim_0466__v0_l0
                0x0000000008113164                anim_0466
                0x0000000008113168                anim_0467__v0_l0
                0x000000000811321c                anim_0467
                0x0000000008113220                anim_0468__v0_l0
                0x00000000081132ac                anim_0468
                0x00000000081132b0                anim_0469__v0_l0
                0x0000000008113378                anim_0469
                0x000000000811337c                anim_0470__v0_l0
                0x0000000008113458                anim_0470
                0x000000000811345c                anim_0471__v0_l0
                0x00000000081134a8                anim_0471
                0x00000000081134ac                anim_0472__v0_l0
                0x0000000008113620                anim_0472__v1_l0
                0x000000000811365c                anim_0472
                0x0000000008113664                anim_0473__v0_l0
                0x0000000008113704                anim_0473__v1_l0
                0x00000000081137a4                anim_0473__v2_l0
                0x00000000081137c8                anim_0473
                0x00000000081137d4                anim_0474__v0_l0
                0x0000000008113838                anim_0474__v1_l0
                0x0000000008113884                anim_0474
                0x000000000811388c                anim_0475__v0_l0
                0x00000000081138b0                anim_0475__v1_l0
                0x0000000008113944                anim_0475__v2_l0
                0x00000000081139d8                anim_0475__v3_l0
                0x0000000008113a6c                anim_0475__v4_l0
                0x0000000008113ae8                anim_0475__v5_l0
                0x0000000008113b60                anim_0475__v6_l0
                0x0000000008113bdc                anim_0475__v7_l0
                0x0000000008113c54                anim_0475__v8_l0
                0x0000000008113cd0                anim_0475__v9_l0
                0x0000000008113d48                anim_0475__v10_l0
                0x0000000008113dc4                anim_0475__v11_l0
                0x0000000008113e3c                anim_0475__v12_l0
                0x0000000008113eb8                anim_0475__v13_l0
                0x0000000008113f30                anim_0475__v14_l0
                0x0000000008113fac                anim_0475__v15_l0
                0x0000000008114024                anim_0475__v16_l0
                0x00000000081140a0                anim_0475__v17_l0
                0x0000000008114118                anim_0475__v18_l0
                0x0000000008114194                anim_0475__v19_l0
                0x000000000811420c                anim_0475
                0x000000000811425c                anim_0476__v0_l0
                0x00000000081142f4                anim_0476__v1_l0
                0x0000000008114318                anim_0476__v2_l0
                0x000000000811433c                anim_0476
                0x0000000008114348                anim_0477__v0_l0
                0x00000000081143b4                anim_0477
                0x00000000081143b8                anim_0478__v0_l0
                0x000000000811440c                anim_0478__v1_l0
                0x000000000811449c                anim_0478__v2_l0
                0x00000000081144cc                anim_0478__v3_l0
                0x00000000081144fc                anim_0478
                0x000000000811450c                anim_0479__v0_l0
                0x0000000008114580                anim_0479__v1_l0
                0x0000000008114610                anim_0479
                0x0000000008114618                anim_0480__v0_l0
                0x0000000008114648                anim_0480
                0x000000000811464c                anim_0481__v0_l0
                0x00000000081146d0                anim_0481
                0x00000000081146d4                anim_0482__v0_l0
                0x0000000008114728                anim_0482__v1_l0
                0x000000000811477c                anim_0482__v2_l0
                0x00000000081147ac                anim_0482
                0x00000000081147b8                anim_0483__v0_l0
                0x00000000081147f4                anim_0483__v1_l0
                0x000000000811485c                anim_0483
                0x0000000008114864                anim_0484__v0_l0
                0x00000000081148ec                anim_0484
                0x00000000081148f0                anim_0485__v0_l0
                0x0000000008114960                anim_0485
                0x0000000008114964                anim_0486__v0_l0
                0x0000000008114988                anim_0486
                0x000000000811498c                anim_0487__v0_l0
                0x00000000081149fc                anim_0487
                0x0000000008114a00                anim_0488__v0_l0
                0x0000000008114a30                anim_0488__v1_l0
                0x0000000008114a60                anim_0488
                0x0000000008114a68                anim_0489__v0_l0
                0x0000000008114a98                anim_0489
                0x0000000008114a9c                anim_0490__v0_l0
                0x0000000008114acc                anim_0490__v1_l0
                0x0000000008114afc                anim_0490
                0x0000000008114b04                anim_0491__v0_l0
                0x0000000008114b4c                anim_0491
                0x0000000008114b50                anim_0492__v0_l0
                0x0000000008114b80                anim_0492__v1_l0
                0x0000000008114bc8                anim_0492__v2_l0
                0x0000000008114cc0                anim_0492__v3_l0
                0x0000000008114d08                anim_0492__v4_l0
                0x0000000008114dec                anim_0492__v5_l0
                0x0000000008114e3c                anim_0492__v6_l0
                0x0000000008114e8c                anim_0492
                0x0000000008114ea8                anim_0493__v0_l0
                0x0000000008114ed8                anim_0493__v1_l0
                0x0000000008114ffc                anim_0493
                0x0000000008115004                anim_0494__v0_l0
                0x0000000008115178                anim_0494
                0x000000000811517c                anim_0495__v0_l0
                0x00000000081151ac                anim_0495__v1_l0
                0x00000000081151f0                anim_0495__v2_l0
                0x0000000008115220                anim_0495__v3_l0
                0x0000000008115250                anim_0495
                0x0000000008115260                anim_0496__v0_l0
                0x0000000008115290                anim_0496__v1_l0
                0x0000000008115300                anim_0496__v2_l0
                0x0000000008115370                anim_0496
                0x000000000811537c                anim_0497__v0_l0
                0x00000000081153c4                anim_0497__v1_l0
                0x0000000008115428                anim_0497__v2_l0
                0x0000000008115478                anim_0497__v3_l0
                0x00000000081154bc                anim_0497
                0x00000000081154cc                anim_0498__v0_l0
                0x0000000008115514                anim_0498
                0x0000000008115518                anim_0499__v0_l0
                0x0000000008115594                anim_0499
                0x0000000008115598                anim_0500__v0_l0
                0x00000000081155c8                anim_0500__v1_l0
                0x0000000008115624                anim_0500__v2_l0
                0x000000000811569c                anim_0500
                0x00000000081156a8                anim_0501__v0_l0
                0x0000000008115718                anim_0501__v1_l0
                0x00000000081157ac                anim_0501
                0x00000000081157b4                anim_0502__v0_l0
                0x00000000081157fc                anim_0502
                0x0000000008115800                anim_0503__v0_l0
                0x0000000008115870                anim_0503__v1_l0
                0x0000000008115914                anim_0503__v2_l0
                0x0000000008115980                anim_0503
                0x000000000811598c                anim_0504__v0_l0
                0x00000000081159e8                anim_0504
                0x00000000081159ec                anim_0505__v0_l0
                0x0000000008115a34                anim_0505__v1_l0
                0x0000000008115a78                anim_0505__v2_l0
                0x0000000008115bd4                anim_0505
                0x0000000008115be0                anim_0506__v0_l0
                0x0000000008115c3c                anim_0506
                0x0000000008115c40                anim_0507__v0_l0
                0x0000000008115cac                anim_0507__v1_l0
                0x0000000008115cf4                anim_0507__v2_l0
                0x0000000008115d4c                anim_0507
                0x0000000008115d58                anim_0508__v0_l0
                0x0000000008115dc8                anim_0508
                0x0000000008115dcc                anim_0509__v0_l0
                0x000000000811601c                anim_0509
                0x0000000008116020                anim_0510__v0_l0
                0x000000000811607c                anim_0510__v1_l0
                0x0000000008116114                anim_0510
                0x000000000811611c                anim_0511__v0_l0
                0x000000000811614c                anim_0511__v1_l0
                0x00000000081161b8                anim_0511__v2_l0
                0x0000000008116228                anim_0511__v3_l0
                0x0000000008116294                anim_0511
                0x00000000081162a4                anim_0512__v0_l0
                0x000000000811633c                anim_0512__v1_l0
                0x00000000081163d4                anim_0512__v2_l0
                0x0000000008116430                anim_0512__v3_l0
                0x000000000811648c                anim_0512
                0x000000000811649c                anim_0513__v0_l0
                0x000000000811650c                anim_0513__v1_l0
                0x0000000008116578                anim_0513
                0x0000000008116580                anim_0514__v0_l0
                0x0000000008116624                anim_0514
                0x0000000008116628                anim_0515__v0_l0
                0x000000000811668c                anim_0515
                0x0000000008116690                anim_0516__v0_l0
                0x00000000081166f4                anim_0516
                0x00000000081166f8                anim_0517__v0_l0
                0x000000000811675c                anim_0517
                0x0000000008116760                anim_0518__v0_l0
                0x00000000081167c4                anim_0518
                0x00000000081167c8                anim_0519__v0_l0
                0x000000000811682c                anim_0519
                0x0000000008116830                anim_0520__v0_l0
                0x0000000008116880                anim_0520
                0x0000000008116884                anim_0521__v0_l0
                0x00000000081168e8                anim_0521
                0x00000000081168ec                anim_0522__v0_l0
                0x0000000008116950                anim_0522
                0x0000000008116954                anim_0523__v0_l0
                0x00000000081169b8                anim_0523
                0x00000000081169bc                anim_0524__v0_l0
                0x0000000008116a20                anim_0524
                0x0000000008116a24                anim_0525__v0_l0
                0x0000000008116a88                anim_0525
                0x0000000008116a8c                anim_0526__v0_l0
                0x0000000008116adc                anim_0526
                0x0000000008116ae0                anim_0527__v0_l0
                0x0000000008116b44                anim_0527
                0x0000000008116b48                anim_0528__v0_l0
                0x0000000008116bac                anim_0528
                0x0000000008116bb0                anim_0529__v0_l0
                0x0000000008116c14                anim_0529
                0x0000000008116c18                anim_0530__v0_l0
                0x0000000008116d1c                anim_0530
                0x0000000008116d20                anim_0531__v0_l0
                0x0000000008116db8                anim_0531__v1_l0
                0x0000000008116e04                anim_0531
                0x0000000008116e0c                anim_0532__v0_l0
                0x0000000008116ec0                anim_0532__v1_l0
                0x0000000008116ef0                anim_0532
                0x0000000008116ef8                anim_0533__v0_l0
                0x0000000008116f48                anim_0533
                0x0000000008116f4c                anim_0534__v0_l0
                0x0000000008116f84                anim_0534
                0x0000000008116f88                anim_0535__v0_l0
                0x0000000008116fac                anim_0535
                0x0000000008116fb0                anim_0536__v0_l0
                0x0000000008116fe0                anim_0536__v1_l0
                0x0000000008117090                anim_0536__v2_l0
                0x00000000081170c0                anim_0536__v3_l0
                0x0000000008117170                anim_0536__v4_l0
                0x00000000081171a0                anim_0536__v5_l0
                0x0000000008117250                anim_0536__v6_l0
                0x0000000008117280                anim_0536__v7_l0
                0x0000000008117330                anim_0536
                0x0000000008117350                anim_0537__v0_l0
                0x0000000008117380                anim_0537__v1_l0
                0x0000000008117430                anim_0537__v2_l0
                0x00000000081174e0                anim_0537__v3_l0
                0x0000000008117590                anim_0537
                0x00000000081175a0                anim_0538__v0_l0
                0x00000000081175d0                anim_0538__v1_l0
                0x00000000081176bc                anim_0538__v2_l0
                0x000000000811776c                anim_0538__v3_l0
                0x00000000081177e0                anim_0538
                0x00000000081177f0                anim_0539__v0_l0
                0x0000000008117820                anim_0539
                0x0000000008117824                anim_0540__v0_l0
                0x0000000008117880                anim_0540__v1_l0
                0x00000000081178dc                anim_0540__v2_l0
                0x0000000008117938                anim_0540__v3_l0
                0x0000000008117994                anim_0540__v4_l0
                0x00000000081179f0                anim_0540__v5_l0
                0x0000000008117a4c                anim_0540
                0x0000000008117a64                anim_0541__v0_l0
                0x0000000008117a94                anim_0541
                0x0000000008117a98                anim_0542__v0_l0
                0x0000000008117ac8                anim_0542__v1_l0
                0x0000000008117aec                anim_0542__v2_l0
                0x0000000008117b10                anim_0542__v3_l0
                0x0000000008117b40                anim_0542
                0x0000000008117b50                anim_0543__v0_l0
                0x0000000008117b80                anim_0543__v1_l0
                0x0000000008117bb0                anim_0543
                0x0000000008117bb8                anim_0544__v0_l0
                0x0000000008117c08                anim_0544
                0x0000000008117c0c                anim_0545__v0_l0
                0x0000000008117c5c                anim_0545
                0x0000000008117c60                anim_0546__v0_l0
                0x0000000008117c94                anim_0546__v1_l0
                0x0000000008117cbc                anim_0546__v2_l0
                0x0000000008117ce4                anim_0546__v3_l0
                0x0000000008117d0c                anim_0546__v4_l0
                0x0000000008117d34                anim_0546__v5_l0
                0x0000000008117d5c                anim_0546__v6_l0
                0x0000000008117d84                anim_0546__v7_l0
                0x0000000008117dac                anim_0546__v8_l0
                0x0000000008117dd4                anim_0546__v9_l0
                0x0000000008117dfc                anim_0546__v10_l0
                0x0000000008117e24                anim_0546__v11_l0
                0x0000000008117e4c                anim_0546
                0x0000000008117e7c                anim_0547__v0_l0
                0x0000000008117f30                anim_0547
                0x0000000008117f34                anim_0548__v0_l0
                0x0000000008117f98                anim_0548
                0x0000000008117f9c                anim_0549__v0_l0
                0x0000000008118050                anim_0549
                0x0000000008118054                anim_0550__v0_l0
                0x00000000081180b8                anim_0550
                0x00000000081180bc                anim_0551__v0_l0
                0x00000000081180e0                anim_0551
                0x00000000081180e4                anim_0552__v0_l0
                0x00000000081180fc                anim_0552
                0x0000000008118100                anim_0553__v0_l0
                0x0000000008118160                anim_0553
                0x0000000008118164                anim_0554__v0_l0
                0x000000000811817c                anim_0554
                0x0000000008118180                anim_0555__v0_l0
                0x00000000081181a4                anim_0555
                0x00000000081181a8                anim_0556__v0_l0
                0x00000000081181c0                anim_0556
                0x00000000081181c4                anim_0557__v0_l0
                0x00000000081181dc                anim_0557
                0x00000000081181e0                anim_0558__v0_l0
                0x00000000081181f8                anim_0558
                0x00000000081181fc                anim_0559__v0_l0
                0x0000000008118214                anim_0559
                0x0000000008118218                anim_0560__v0_l0
                0x0000000008118268                anim_0560
                0x000000000811826c                anim_0561__v0_l0
                0x0000000008118290                anim_0561__v1_l0
                0x00000000081182b4                anim_0561__v2_l0
                0x00000000081182d8                anim_0561__v3_l0
                0x00000000081182fc                anim_0561__v4_l0
                0x0000000008118318                anim_0561__v5_l0
                0x0000000008118340                anim_0561__v6_l0
                0x0000000008118368                anim_0561
                0x0000000008118384                anim_0562__v0_l0
                0x00000000081183b4                anim_0562
                0x00000000081183b8                anim_0563__v0_l0
                0x00000000081183dc                anim_0563__v1_l0
                0x0000000008118400                anim_0563
                0x0000000008118408                anim_0564__v0_l0
                0x000000000811842c                anim_0564__v1_l0
                0x0000000008118450                anim_0564__v2_l0
                0x0000000008118474                anim_0564
                0x0000000008118480                anim_0565__v0_l0
                0x00000000081184a4                anim_0565
                0x00000000081184a8                anim_0566__v0_l0
                0x00000000081184d8                anim_0566__v1_l0
                0x0000000008118508                anim_0566
                0x0000000008118510                anim_0567__v0_l0
                0x0000000008118534                anim_0567__v1_l0
                0x0000000008118648                anim_0567__v2_l0
                0x00000000081186f8                anim_0567
                0x0000000008118704                anim_0568__v0_l0
                0x0000000008118734                anim_0568__v1_l0
                0x00000000081187b4                anim_0568__v2_l0
                0x00000000081187e4                anim_0568__v3_l0
                0x0000000008118864                anim_0568
                0x0000000008118874                anim_0569__v0_l0
                0x0000000008118898                anim_0569__v1_l0
                0x00000000081188bc                anim_0569
                0x00000000081188c4                anim_0570__v0_l0
                0x00000000081188f4                anim_0570__v1_l0
                0x00000000081189a4                anim_0570__v2_l0
                0x0000000008118a54                anim_0570__v3_l0
                0x0000000008118b04                anim_0570
                0x0000000008118b14                anim_0571__v0_l0
                0x0000000008118b44                anim_0571__v1_l0
                0x0000000008118bc4                anim_0571__v2_l0
                0x0000000008118bf4                anim_0571__v3_l0
                0x0000000008118c74                anim_0571
                0x0000000008118c84                anim_0572__v0_l0
                0x0000000008118cb4                anim_0572__v1_l0
                0x0000000008118d64                anim_0572
                0x0000000008118d6c                anim_0573__v0_l0
                0x0000000008118d9c                anim_0573__v1_l0
                0x0000000008118e4c                anim_0573__v2_l0
                0x0000000008118e7c                anim_0573__v3_l0
                0x0000000008118f2c                anim_0573__v4_l0
                0x0000000008118f5c                anim_0573__v5_l0
                0x000000000811900c                anim_0573
                0x0000000008119024                anim_0574__v0_l0
                0x0000000008119054                anim_0574__v1_l0
                0x0000000008119084                anim_0574__v2_l0
                0x00000000081190b4                anim_0574
                0x00000000081190c0                anim_0575__v0_l0
                0x00000000081190e4                anim_0575__v1_l0
                0x0000000008119108                anim_0575__v2_l0
                0x000000000811912c                anim_0575__v3_l0
                0x0000000008119150                anim_0575__v4_l0
                0x0000000008119174                anim_0575__v5_l0
                0x0000000008119198                anim_0575__v6_l0
                0x00000000081191bc                anim_0575__v7_l0
                0x00000000081191e0                anim_0575__v8_l0
                0x0000000008119204                anim_0575__v9_l0
                0x0000000008119228                anim_0575__v10_l0
                0x000000000811924c                anim_0575__v11_l0
                0x0000000008119270                anim_0575__v12_l0
                0x0000000008119294                anim_0575__v13_l0
                0x00000000081192b8                anim_0575__v14_l0
                0x00000000081192dc                anim_0575__v15_l0
                0x0000000008119300                anim_0575
                0x0000000008119340                anim_0576__v0_l0
                0x0000000008119364                anim_0576__v1_l0
                0x0000000008119388                anim_0576
                0x0000000008119390                anim_0577__v0_l0
                0x00000000081193b4                anim_0577
                0x00000000081193b8                anim_0578__v0_l0
                0x0000000008119420                anim_0578
                0x0000000008119424                anim_0579__v0_l0
                0x0000000008119448                anim_0579__v1_l0
                0x000000000811946c                anim_0579
                0x0000000008119474                anim_0580__v0_l0
                0x00000000081194a4                anim_0580__v1_l0
                0x00000000081194c8                anim_0580__v2_l0
                0x00000000081194ec                anim_0580__v3_l0
                0x000000000811951c                anim_0580
                0x000000000811952c                anim_0581__v0_l0
                0x000000000811955c                anim_0581__v1_l0
                0x000000000811958c                anim_0581__v2_l0
                0x00000000081195bc                anim_0581
                0x00000000081195c8                anim_0582__v0_l0
                0x00000000081195ec                anim_0582__v1_l0
                0x0000000008119610                anim_0582__v2_l0
                0x0000000008119634                anim_0582__v3_l0
                0x0000000008119658                anim_0582__v4_l0
                0x000000000811967c                anim_0582
                0x0000000008119690                anim_0583__v0_l0
                0x00000000081196b4                anim_0583__v1_l0
                0x00000000081196d8                anim_0583
                0x00000000081196e0                anim_0584__v0_l0
                0x0000000008119704                anim_0584__v1_l0
                0x0000000008119728                anim_0584__v2_l0
                0x000000000811974c                anim_0584__v3_l0
                0x0000000008119770                anim_0584__v4_l0
                0x0000000008119794                anim_0584__v5_l0
                0x00000000081197b8                anim_0584
                0x00000000081197d0                anim_0585__v0_l0
                0x0000000008119880                anim_0585__v1_l0
                0x0000000008119930                anim_0585__v2_l0
                0x0000000008119958                anim_0585
                0x0000000008119964                anim_0586__v0_l0
                0x0000000008119994                anim_0586
                0x0000000008119998                anim_0587__v0_l0
                0x00000000081199bc                anim_0587__v1_l0
                0x00000000081199e0                anim_0587
                0x00000000081199e8                anim_0588__v0_l0
                0x0000000008119a9c                anim_0588__v1_l0
                0x0000000008119b50                anim_0588__v2_l0
                0x0000000008119c04                anim_0588
                0x0000000008119c10                anim_0589__v0_l0
                0x0000000008119c74                anim_0589
                0x0000000008119c78                anim_0590__v0_l0
                0x0000000008119cdc                anim_0590__v1_l0
                0x0000000008119d50                anim_0590
                0x0000000008119d58                anim_0591__v0_l0
                0x0000000008119d7c                anim_0591__v1_l0
                0x0000000008119ddc                anim_0591__v2_l0
                0x0000000008119e40                anim_0591__v3_l0
                0x0000000008119ea0                anim_0591
                0x0000000008119eb0                anim_0592__v0_l0
                0x0000000008119f14                anim_0592
                0x0000000008119f18                anim_0593__v0_l0
                0x0000000008119f48                anim_0593
                0x0000000008119f4c                anim_0594__v0_l0
                0x0000000008119f7c                anim_0594
                0x0000000008119f80                anim_0595__v0_l0
                0x000000000811a034                anim_0595__v1_l0
                0x000000000811a0e8                anim_0595__v2_l0
                0x000000000811a118                anim_0595
                0x000000000811a124                anim_0596__v0_l0
                0x000000000811a178                anim_0596__v1_l0
                0x000000000811a1cc                anim_0596__v2_l0
                0x000000000811a1fc                anim_0596__v3_l0
                0x000000000811a22c                anim_0596__v4_l0
                0x000000000811a25c                anim_0596__v5_l0
                0x000000000811a28c                anim_0596__v6_l0
                0x000000000811a2bc                anim_0596__v7_l0
                0x000000000811a2ec                anim_0596__v8_l0
                0x000000000811a31c                anim_0596__v9_l0
                0x000000000811a34c                anim_0596
                0x000000000811a374                anim_0597__v0_l0
                0x000000000811a40c                anim_0597__v1_l0
                0x000000000811a43c                anim_0597__v2_l0
                0x000000000811a46c                anim_0597
                0x000000000811a478                anim_0598__v0_l0
                0x000000000811a4a8                anim_0598__v1_l0
                0x000000000811a4d8                anim_0598__v2_l0
                0x000000000811a508                anim_0598
                0x000000000811a514                anim_0599__v0_l0
                0x000000000811a544                anim_0599
                0x000000000811a548                anim_0600__v0_l0
                0x000000000811a5b8                anim_0600__v1_l0
                0x000000000811a618                anim_0600
                0x000000000811a620                anim_0601__v0_l0
                0x000000000811a644                anim_0601__v1_l0
                0x000000000811a668                anim_0601
                0x000000000811a670                anim_0602__v0_l0
                0x000000000811a694                anim_0602__v1_l0
                0x000000000811a6b8                anim_0602
                0x000000000811a6c0                anim_0603__v0_l0
                0x000000000811a6f0                anim_0603__v1_l0
                0x000000000811a7a0                anim_0603__v2_l0
                0x000000000811a850                anim_0603__v3_l0
                0x000000000811a900                anim_0603
                0x000000000811a910                anim_0604__v0_l0
                0x000000000811a940                anim_0604__v1_l0
                0x000000000811a9f0                anim_0604__v2_l0
                0x000000000811aa20                anim_0604__v3_l0
                0x000000000811aad0                anim_0604__v4_l0
                0x000000000811ab00                anim_0604__v5_l0
                0x000000000811abb0                anim_0604__v6_l0
                0x000000000811abe0                anim_0604__v7_l0
                0x000000000811ac90                anim_0604
                0x000000000811acb0                anim_0605__v0_l0
                0x000000000811acd4                anim_0605__v1_l0
                0x000000000811acf8                anim_0605__v2_l0
                0x000000000811ad1c                anim_0605__v3_l0
                0x000000000811ad40                anim_0605__v4_l0
                0x000000000811ad64                anim_0605__v5_l0
                0x000000000811ad88                anim_0605
                0x000000000811ada0                anim_0606__v0_l0
                0x000000000811adfc                anim_0606__v1_l0
                0x000000000811ae58                anim_0606__v2_l0
                0x000000000811aeb4                anim_0606__v3_l0
                0x000000000811af10                anim_0606__v4_l0
                0x000000000811af6c                anim_0606__v5_l0
                0x000000000811afc8                anim_0606
                0x000000000811afe0                anim_0607__v0_l0
                0x000000000811b01c                anim_0607__v1_l0
                0x000000000811b04c                anim_0607__v2_l0
                0x000000000811b07c                anim_0607__v3_l0
                0x000000000811b0b8                anim_0607
                0x000000000811b0c8                anim_0608__v0_l0
                0x000000000811b0f8                anim_0608__v1_l0
                0x000000000811b128                anim_0608
                0x000000000811b130                anim_0609__v0_l0
                0x000000000811b154                anim_0609__v1_l0
                0x000000000811b178                anim_0609
                0x000000000811b180                anim_0610__v0_l0
                0x000000000811b1b0                anim_0610
                0x000000000811b1b4                anim_0611__v0_l0
                0x000000000811b1d8                anim_0611
                0x000000000811b1dc                anim_0612__v0_l0
                0x000000000811b20c                anim_0612
                0x000000000811b210                anim_0613__v0_l0
                0x000000000811b244                anim_0613
                0x000000000811b248                anim_0614__v0_l0
                0x000000000811b278                anim_0614
                0x000000000811b27c                anim_0615__v0_l0
                0x000000000811b2a0                anim_0615__v1_l0
                0x000000000811b2b8                anim_0615__v2_l0
                0x000000000811b2d0                anim_0615
                0x000000000811b2dc                anim_0616__v0_l0
                0x000000000811b30c                anim_0616__v1_l0
                0x000000000811b33c                anim_0616
                0x000000000811b344                anim_0617__v0_l0
                0x000000000811b378                anim_0617
                0x000000000811b37c                anim_0618__v0_l0
                0x000000000811b3ac                anim_0618
                0x000000000811b3b0                anim_0619__v0_l0
                0x000000000811b3f4                anim_0619
                0x000000000811b3f8                anim_0620__v0_l0
                0x000000000811b420                anim_0620__v1_l0
                0x000000000811b448                anim_0620
                0x000000000811b450                anim_0621__v0_l0
                0x000000000811b478                anim_0621__v1_l0
                0x000000000811b4a0                anim_0621
                0x000000000811b4a8                anim_0622__v0_l0
                0x000000000811b4d0                anim_0622__v1_l0
                0x000000000811b4f8                anim_0622
                0x000000000811b500                anim_0623__v0_l0
                0x000000000811b528                anim_0623
                0x000000000811b52c                anim_0624__v0_l0
                0x000000000811b554                anim_0624
                0x000000000811b558                anim_0625__v0_l0
                0x000000000811b580                anim_0625
                0x000000000811b584                anim_0626__v0_l0
                0x000000000811b5ac                anim_0626
                0x000000000811b5b0                anim_0627__v0_l0
                0x000000000811b660                anim_0627
                0x000000000811b664                anim_0628__v0_l0
                0x000000000811b688                anim_0628
                0x000000000811b68c                anim_0629__v0_l0
                0x000000000811b6b0                anim_0629__v1_l0
                0x000000000811b73c                anim_0629__v2_l0
                0x000000000811b7c8                anim_0629__v3_l0
                0x000000000811b7ec                anim_0629
                0x000000000811b7fc                anim_0630__v0_l0
                0x000000000811b820                anim_0630
                0x000000000811b824                anim_0631__v0_l0
                0x000000000811b848                anim_0631
                0x000000000811b84c                anim_0632__v0_l0
                0x000000000811b8b4                anim_0632
                0x000000000811b8b8                anim_0633__v0_l0
                0x000000000811b8dc                anim_0633
                0x000000000811b8e0                anim_0634__v0_l0
                0x000000000811b944                anim_0634
                0x000000000811b948                anim_0635__v0_l0
                0x000000000811b9ac                anim_0635
                0x000000000811b9b0                anim_0636__v0_l0
                0x000000000811b9ec                anim_0636
                0x000000000811b9f0                anim_0637__v0_l0
                0x000000000811ba14                anim_0637__v1_l0
                0x000000000811ba50                anim_0637__v2_l0
                0x000000000811ba8c                anim_0637
                0x000000000811ba98                anim_0638__v0_l0
                0x000000000811bb3c                anim_0638
                0x000000000811bb40                anim_0639__v0_l0
                0x000000000811bc18                anim_0639
                0x000000000811bc1c                anim_0640__v0_l0
                0x000000000811bc4c                anim_0640
                0x000000000811bc50                anim_0641__v0_l0
                0x000000000811bcb8                anim_0641__v1_l0
                0x000000000811bd20                anim_0641
                0x000000000811bd28                anim_0642__v0_l0
                0x000000000811bd4c                anim_0642__v1_l0
                0x000000000811bd70                anim_0642
                0x000000000811bd78                anim_0643__v0_l0
                0x000000000811bd9c                anim_0643
                0x000000000811bda0                anim_0644__v0_l0
                0x000000000811be04                anim_0644
                0x000000000811be08                anim_0645__v0_l0
                0x000000000811be44                anim_0645
                0x000000000811be48                anim_0646__v0_l0
                0x000000000811be6c                anim_0646__v1_l0
                0x000000000811bee0                anim_0646__v2_l0
                0x000000000811bf04                anim_0646
                0x000000000811bf10                anim_0647__v0_l0
                0x000000000811bf80                anim_0647
                0x000000000811bf84                anim_0648__v0_l0
                0x000000000811bfa8                anim_0648__v1_l0
                0x000000000811c030                anim_0648__v2_l0
                0x000000000811c0b8                anim_0648__v3_l0
                0x000000000811c0dc                anim_0648
                0x000000000811c0ec                anim_0649__v0_l0
                0x000000000811c110                anim_0649
                0x000000000811c114                anim_0650__v0_l0
                0x000000000811c138                anim_0650
                0x000000000811c13c                anim_0651__v0_l0
                0x000000000811c1a4                anim_0651
                0x000000000811c1a8                anim_0652__v0_l0
                0x000000000811c20c                anim_0652
                0x000000000811c210                anim_0653__v0_l0
                0x000000000811c24c                anim_0653
                0x000000000811c250                anim_0654__v0_l0
                0x000000000811c28c                anim_0654
                0x000000000811c290                anim_0655__v0_l0
                0x000000000811c318                anim_0655
                0x000000000811c31c                anim_0656__v0_l0
                0x000000000811c34c                anim_0656
                0x000000000811c350                anim_0657__v0_l0
                0x000000000811c380                anim_0657__v1_l0
                0x000000000811c3a4                anim_0657
                0x000000000811c3ac                anim_0658__v0_l0
                0x000000000811c3f4                anim_0658
                0x000000000811c3f8                anim_0659__v0_l0
                0x000000000811c41c                anim_0659
                0x000000000811c420                anim_0660__v0_l0
                0x000000000811c4f8                anim_0660
                0x000000000811c4fc                anim_0661__v0_l0
                0x000000000811c538                anim_0661__v1_l0
                0x000000000811c5c4                anim_0661__v2_l0
                0x000000000811c634                anim_0661__v3_l0
                0x000000000811c664                anim_0661
                0x000000000811c674                anim_0662__v0_l0
                0x000000000811c6a4                anim_0662__v1_l0
                0x000000000811c754                anim_0662__v2_l0
                0x000000000811c7a0                anim_0662__v3_l0
                0x000000000811c80c                anim_0662
                0x000000000811c81c                anim_0663__v0_l0
                0x000000000811c8f4                anim_0663
                0x000000000811c8f8                anim_0664__v0_l0
                0x000000000811c968                anim_0664
                0x000000000811c96c                anim_0665__v0_l0
                0x000000000811c990                anim_0665
                0x000000000811c994                anim_0666__v0_l0
                0x000000000811c9c4                anim_0666
                0x000000000811c9c8                anim_0667__v0_l0
                0x000000000811c9f8                anim_0667
                0x000000000811c9fc                anim_0668__v0_l0
                0x000000000811ca20                anim_0668__v1_l0
                0x000000000811caa8                anim_0668__v2_l0
                0x000000000811cb30                anim_0668__v3_l0
                0x000000000811cba4                anim_0668__v4_l0
                0x000000000811cbc8                anim_0668
                0x000000000811cbdc                anim_0669__v0_l0
                0x000000000811cc24                anim_0669
                0x000000000811cc28                anim_0670__v0_l0
                0x000000000811cc64                anim_0670
                0x000000000811cc68                anim_0671__v0_l0
                0x000000000811cca4                anim_0671
                0x000000000811cca8                anim_0672__v0_l0
                0x000000000811cccc                anim_0672__v1_l0
                0x000000000811cd44                anim_0672__v2_l0
                0x000000000811cd7c                anim_0672
                0x000000000811cd88                anim_0673__v0_l0
                0x000000000811cdd4                anim_0673
                0x000000000811cdd8                anim_0674__v0_l0
                0x000000000811ce24                anim_0674
                0x000000000811ce28                anim_0675__v0_l0
                0x000000000811ce74                anim_0675
                0x000000000811ce78                anim_0676__v0_l0
                0x000000000811cec4                anim_0676
                0x000000000811cec8                anim_0677__v0_l0
                0x000000000811cf14                anim_0677
                0x000000000811cf18                anim_0678__v0_l0
                0x000000000811cf64                anim_0678
                0x000000000811cf68                anim_0679__v0_l0
                0x000000000811cfb4                anim_0679
                0x000000000811cfb8                anim_0680__v0_l0
                0x000000000811d004                anim_0680
                0x000000000811d008                anim_0681__v0_l0
                0x000000000811d02c                anim_0681
                0x000000000811d030                anim_0682__v0_l0
                0x000000000811d054                anim_0682
                0x000000000811d058                anim_0683__v0_l0
                0x000000000811d0a8                anim_0683
                0x000000000811d0ac                anim_0684__v0_l0
                0x000000000811d0d0                anim_0684__v1_l0
                0x000000000811d158                anim_0684__v2_l0
                0x000000000811d1e0                anim_0684__v3_l0
                0x000000000811d204                anim_0684
                0x000000000811d214                anim_0685__v0_l0
                0x000000000811d238                anim_0685
                0x000000000811d23c                anim_0686__v0_l0
                0x000000000811d2d0                anim_0686
                0x000000000811d2d4                anim_0687__v0_l0
                0x000000000811d310                anim_0687__v1_l0
                0x000000000811d378                anim_0687
                0x000000000811d380                anim_0688__v0_l0
                0x000000000811d3f4                anim_0688
                0x000000000811d3f8                anim_0689__v0_l0
                0x000000000811d468                anim_0689
                0x000000000811d46c                anim_0690__v0_l0
                0x000000000811d49c                anim_0690__v1_l0
                0x000000000811d4c0                anim_0690__v2_l0
                0x000000000811d508                anim_0690__v3_l0
                0x000000000811d560                anim_0690__v4_l0
                0x000000000811d584                anim_0690
                0x000000000811d598                anim_0691__v0_l0
                0x000000000811d5c8                anim_0691__v1_l0
                0x000000000811d5ec                anim_0691__v2_l0
                0x000000000811d634                anim_0691
                0x000000000811d640                anim_0692__v0_l0
                0x000000000811d67c                anim_0692
                0x000000000811d680                anim_0693__v0_l0
                0x000000000811d6b0                anim_0693__v1_l0
                0x000000000811d738                anim_0693__v2_l0
                0x000000000811d7c0                anim_0693__v3_l0
                0x000000000811d7e4                anim_0693
                0x000000000811d7f4                anim_0694__v0_l0
                0x000000000811d824                anim_0694__v1_l0
                0x000000000811d8bc                anim_0694__v2_l0
                0x000000000811d948                anim_0694__v3_l0
                0x000000000811d96c                anim_0694__v4_l0
                0x000000000811d990                anim_0694
                0x000000000811d9a4                anim_0695__v0_l0
                0x000000000811d9c8                anim_0695
                0x000000000811d9cc                anim_0696__v0_l0
                0x000000000811d9f0                anim_0696
                0x000000000811d9f4                anim_0697__v0_l0
                0x000000000811da44                anim_0697
                0x000000000811da48                anim_0698__v0_l0
                0x000000000811dab8                anim_0698
                0x000000000811dabc                anim_0699__v0_l0
                0x000000000811dba0                anim_0699
                0x000000000811dba4                anim_0700__v0_l0
                0x000000000811dbd4                anim_0700__v1_l0
                0x000000000811dbf8                anim_0700__v2_l0
                0x000000000811dc1c                anim_0700__v3_l0
                0x000000000811dc40                anim_0700__v4_l0
                0x000000000811dc64                anim_0700
                0x000000000811dc78                anim_0701__v0_l0
                0x000000000811dca8                anim_0701
                0x000000000811dcac                anim_0702__v0_l0
                0x000000000811dcdc                anim_0702
                0x000000000811dce0                anim_0703__v0_l0
                0x000000000811dd04                anim_0703__v1_l0
                0x000000000811dd68                anim_0703__v2_l0
                0x000000000811dd98                anim_0703
                0x000000000811dda4                anim_0704__v0_l0
                0x000000000811ddc8                anim_0704__v1_l0
                0x000000000811de2c                anim_0704__v2_l0
                0x000000000811de50                anim_0704
                0x000000000811de5c                anim_0705__v0_l0
                0x000000000811de8c                anim_0705__v1_l0
                0x000000000811df18                anim_0705__v2_l0
                0x000000000811df3c                anim_0705__v3_l0
                0x000000000811df78                anim_0705
                0x000000000811df88                anim_0706__v0_l0
                0x000000000811dfac                anim_0706
                0x000000000811dfb0                anim_0707__v0_l0
                0x000000000811e00c                anim_0707
                0x000000000811e010                anim_0708__v0_l0
                0x000000000811e034                anim_0708
                0x000000000811e038                anim_0709__v0_l0
                0x000000000811e05c                anim_0709
                0x000000000811e060                anim_0710__v0_l0
                0x000000000811e084                anim_0710
                0x000000000811e088                anim_0711__v0_l0
                0x000000000811e0ac                anim_0711
                0x000000000811e0b0                anim_0712__v0_l0
                0x000000000811e0d4                anim_0712
                0x000000000811e0d8                anim_0713__v0_l0
                0x000000000811e138                anim_0713
                0x000000000811e13c                anim_0714__v0_l0
                0x000000000811e19c                anim_0714
                0x000000000811e1a0                anim_0715__v0_l0
                0x000000000811e268                anim_0715
                0x000000000811e26c                anim_0716__v0_l0
                0x000000000811e2b4                anim_0716__v1_l0
                0x000000000811e2fc                anim_0716__v2_l0
                0x000000000811e344                anim_0716__v3_l0
                0x000000000811e38c                anim_0716__v4_l0
                0x000000000811e3d4                anim_0716__v5_l0
                0x000000000811e41c                anim_0716__v6_l0
                0x000000000811e464                anim_0716__v7_l0
                0x000000000811e4ac                anim_0716__v8_l0
                0x000000000811e4f4                anim_0716__v9_l0
                0x000000000811e53c                anim_0716__v10_l0
                0x000000000811e584                anim_0716__v11_l0
                0x000000000811e5cc                anim_0716__v12_l0
                0x000000000811e614                anim_0716__v13_l0
                0x000000000811e65c                anim_0716__v14_l0
                0x000000000811e6a4                anim_0716__v15_l0
                0x000000000811e6ec                anim_0716
                0x000000000811e72c                anim_0717__v0_l0
                0x000000000811e7a0                anim_0717
                0x000000000811e7a4                anim_0718__v0_l0
                0x000000000811e814                anim_0718
                0x000000000811e818                anim_0719__v0_l0
                0x000000000811e86c                anim_0719
                0x000000000811e870                anim_0720__v0_l0
                0x000000000811e8e8                anim_0720
                0x000000000811e8ec                anim_0721__v0_l0
                0x000000000811e964                anim_0721
                0x000000000811e968                anim_0722__v0_l0
                0x000000000811e9e0                anim_0722
                0x000000000811e9e4                anim_0723__v0_l0
                0x000000000811ea08                anim_0723__v1_l0
                0x000000000811ea2c                anim_0723__v2_l0
                0x000000000811ea50                anim_0723
                0x000000000811ea5c                anim_0724__v0_l0
                0x000000000811ea8c                anim_0724
                0x000000000811ea90                anim_0725__v0_l0
                0x000000000811eab4                anim_0725__v1_l0
                0x000000000811ead8                anim_0725__v2_l0
                0x000000000811eafc                anim_0725__v3_l0
                0x000000000811eb20                anim_0725__v4_l0
                0x000000000811eb44                anim_0725__v5_l0
                0x000000000811eb68                anim_0725__v6_l0
                0x000000000811eb8c                anim_0725__v7_l0
                0x000000000811ebb0                anim_0725__v8_l0
                0x000000000811ebd4                anim_0725__v9_l0
                0x000000000811ebf8                anim_0725__v10_l0
                0x000000000811ec1c                anim_0725__v11_l0
                0x000000000811ec40                anim_0725__v12_l0
                0x000000000811ec64                anim_0725__v13_l0
                0x000000000811ec88                anim_0725__v14_l0
                0x000000000811ecac                anim_0725__v15_l0
                0x000000000811ecd0                anim_0725__v16_l0
                0x000000000811ecf4                anim_0725
                0x000000000811ed38                anim_0726__v0_l0
                0x000000000811ed78                anim_0726
                0x000000000811ed7c                anim_0727__v0_l0
                0x000000000811edc0                anim_0727
                0x000000000811edc4                anim_0728__v0_l0
                0x000000000811ede8                anim_0728__v1_l0
                0x000000000811ee0c                anim_0728__v2_l0
                0x000000000811ee30                anim_0728__v3_l0
                0x000000000811ee54                anim_0728__v4_l0
                0x000000000811ee78                anim_0728
                0x000000000811ee8c                anim_0729__v0_l0
                0x000000000811eeb0                anim_0729
                0x000000000811eeb4                anim_0730__v0_l0
                0x000000000811ef74                anim_0730__v1_l0
                0x000000000811efd4                anim_0730
                0x000000000811efdc                anim_0731__v0_l0
                0x000000000811f00c                anim_0731__v1_l0
                0x000000000811f030                anim_0731__v2_l0
                0x000000000811f060                anim_0731__v3_l0
                0x000000000811f084                anim_0731__v4_l0
                0x000000000811f0a8                anim_0731
                0x000000000811f0bc                anim_0732__v0_l0
                0x000000000811f0e0                anim_0732__v1_l0
                0x000000000811f104                anim_0732__v2_l0
                0x000000000811f128                anim_0732__v3_l0
                0x000000000811f14c                anim_0732
                0x000000000811f15c                anim_0733__v0_l0
                0x000000000811f180                anim_0733
                0x000000000811f184                anim_0734__v0_l0
                0x000000000811f1a8                anim_0734
                0x000000000811f1ac                anim_0735__v0_l0
                0x000000000811f1d0                anim_0735
                0x000000000811f1d4                anim_0736__v0_l0
                0x000000000811f1f8                anim_0736__v1_l0
                0x000000000811f244                anim_0736__v2_l0
                0x000000000811f268                anim_0736__v3_l0
                0x000000000811f2dc                anim_0736__v4_l0
                0x000000000811f300                anim_0736__v5_l0
                0x000000000811f374                anim_0736__v6_l0
                0x000000000811f398                anim_0736__v7_l0
                0x000000000811f3f8                anim_0736__v8_l0
                0x000000000811f41c                anim_0736__v9_l0
                0x000000000811f490                anim_0736__v10_l0
                0x000000000811f4b4                anim_0736__v11_l0
                0x000000000811f528                anim_0736
                0x000000000811f558                anim_0737__v0_l0
                0x000000000811f57c                anim_0737__v1_l0
                0x000000000811f5a0                anim_0737__v2_l0
                0x000000000811f5c4                anim_0737__v3_l0
                0x000000000811f5e8                anim_0737__v4_l0
                0x000000000811f60c                anim_0737__v5_l0
                0x000000000811f630                anim_0737__v6_l0
                0x000000000811f654                anim_0737__v7_l0
                0x000000000811f678                anim_0737__v8_l0
                0x000000000811f69c                anim_0737__v9_l0
                0x000000000811f6c0                anim_0737
                0x000000000811f6e8                anim_0738__v0_l0
                0x000000000811f70c                anim_0738__v1_l0
                0x000000000811f770                anim_0738
                0x000000000811f778                anim_0739__v0_l0
                0x000000000811f79c                anim_0739__v1_l0
                0x000000000811f7c0                anim_0739__v2_l0
                0x000000000811f7e4                anim_0739__v3_l0
                0x000000000811f808                anim_0739__v4_l0
                0x000000000811f82c                anim_0739__v5_l0
                0x000000000811f850                anim_0739__v6_l0
                0x000000000811f874                anim_0739__v7_l0
                0x000000000811f898                anim_0739__v8_l0
                0x000000000811f8bc                anim_0739__v9_l0
                0x000000000811f8e0                anim_0739__v10_l0
                0x000000000811f904                anim_0739__v11_l0
                0x000000000811f928                anim_0739
                0x000000000811f958                anim_0740__v0_l0
                0x000000000811f97c                anim_0740
                0x000000000811f980                anim_0741__v0_l0
                0x000000000811f9a4                anim_0741__v1_l0
                0x000000000811f9c8                anim_0741__v2_l0
                0x000000000811f9ec                anim_0741__v3_l0
                0x000000000811fa10                anim_0741__v4_l0
                0x000000000811fa34                anim_0741__v5_l0
                0x000000000811fa58                anim_0741
                0x000000000811fa70                anim_0742__v0_l0
                0x000000000811fa94                anim_0742
                0x000000000811fa98                anim_0743__v0_l0
                0x000000000811fabc                anim_0743
                0x000000000811fac0                anim_0744__v0_l0
                0x000000000811fae4                anim_0744
                0x000000000811fae8                anim_0745__v0_l0
                0x000000000811fb0c                anim_0745
                0x000000000811fb10                anim_0746__v0_l0
                0x000000000811fb34                anim_0746
                0x000000000811fb38                anim_0747__v0_l0
                0x000000000811fb5c                anim_0747__v1_l0
                0x000000000811fb80                anim_0747__v2_l0
                0x000000000811fba4                anim_0747__v3_l0
                0x000000000811fbc8                anim_0747__v4_l0
                0x000000000811fbec                anim_0747
                0x000000000811fc00                anim_0748__v0_l0
                0x000000000811fc24                anim_0748
                0x000000000811fc28                anim_0749__v0_l0
                0x000000000811fc9c                anim_0749__v1_l0
                0x000000000811fcc0                anim_0749
                0x000000000811fcc8                anim_0750__v0_l0
                0x000000000811fd50                anim_0750__v1_l0
                0x000000000811fd74                anim_0750
                0x000000000811fd7c                anim_0751__v0_l0
                0x000000000811fe18                anim_0751__v1_l0
                0x000000000811fe3c                anim_0751
                0x000000000811fe44                anim_0752__v0_l0
                0x000000000811feb8                anim_0752__v1_l0
                0x000000000811fedc                anim_0752
                0x000000000811fee4                anim_0753__v0_l0
                0x000000000811ff80                anim_0753__v1_l0
                0x000000000811ffa4                anim_0753
                0x000000000811ffac                anim_0754__v0_l0
                0x0000000008120084                anim_0754__v1_l0
                0x00000000081200a8                anim_0754
                0x00000000081200b0                anim_0755__v0_l0
                0x00000000081201b0                anim_0755__v1_l0
                0x00000000081201d4                anim_0755
                0x00000000081201dc                anim_0756__v0_l0
                0x00000000081202dc                anim_0756__v1_l0
                0x0000000008120368                anim_0756
                0x0000000008120370                anim_0757__v0_l0
                0x0000000008120394                anim_0757__v1_l0
                0x00000000081203b8                anim_0757__v2_l0
                0x00000000081203dc                anim_0757
                0x00000000081203e8                anim_0758__v0_l0
                0x000000000812040c                anim_0758__v1_l0
                0x0000000008120430                anim_0758__v2_l0
                0x0000000008120454                anim_0758__v3_l0
                0x0000000008120478                anim_0758__v4_l0
                0x000000000812049c                anim_0758__v5_l0
                0x00000000081204c0                anim_0758__v6_l0
                0x00000000081204e4                anim_0758
                0x0000000008120500                anim_0759__v0_l0
                0x0000000008120524                anim_0759__v1_l0
                0x0000000008120548                anim_0759__v2_l0
                0x000000000812056c                anim_0759__v3_l0
                0x0000000008120590                anim_0759__v4_l0
                0x00000000081205b4                anim_0759
                0x00000000081205c8                anim_0760__v0_l0
                0x00000000081205ec                anim_0760__v1_l0
                0x0000000008120610                anim_0760__v2_l0
                0x0000000008120634                anim_0760__v3_l0
                0x0000000008120658                anim_0760__v4_l0
                0x000000000812067c                anim_0760__v5_l0
                0x00000000081206a0                anim_0760__v6_l0
                0x00000000081206c4                anim_0760__v7_l0
                0x00000000081206e8                anim_0760
                0x0000000008120708                anim_0761__v0_l0
                0x000000000812072c                anim_0761__v1_l0
                0x0000000008120750                anim_0761__v2_l0
                0x0000000008120774                anim_0761__v3_l0
                0x0000000008120798                anim_0761__v4_l0
                0x00000000081207bc                anim_0761__v5_l0
                0x00000000081207e0                anim_0761__v6_l0
                0x0000000008120804                anim_0761__v7_l0
                0x0000000008120828                anim_0761__v8_l0
                0x000000000812084c                anim_0761
                0x0000000008120870                anim_0762__v0_l0
                0x0000000008120894                anim_0762__v1_l0
                0x00000000081208b8                anim_0762__v2_l0
                0x00000000081208dc                anim_0762__v3_l0
                0x0000000008120900                anim_0762__v4_l0
                0x0000000008120924                anim_0762__v5_l0
                0x0000000008120948                anim_0762__v6_l0
                0x000000000812096c                anim_0762__v7_l0
                0x0000000008120990                anim_0762__v8_l0
                0x00000000081209b4                anim_0762
                0x00000000081209d8                anim_0763__v0_l0
                0x00000000081209fc                anim_0763__v1_l0
                0x0000000008120a20                anim_0763__v2_l0
                0x0000000008120a44                anim_0763__v3_l0
                0x0000000008120a68                anim_0763__v4_l0
                0x0000000008120a8c                anim_0763
                0x0000000008120aa0                anim_0764__v0_l0
                0x0000000008120ac4                anim_0764__v1_l0
                0x0000000008120ae8                anim_0764__v2_l0
                0x0000000008120b0c                anim_0764__v3_l0
                0x0000000008120b30                anim_0764__v4_l0
                0x0000000008120b54                anim_0764
                0x0000000008120b68                anim_0765__v0_l0
                0x0000000008120ba4                anim_0765__v1_l0
                0x0000000008120c18                anim_0765
                0x0000000008120c20                anim_0766__v0_l0
                0x0000000008120c70                anim_0766__v1_l0
                0x0000000008120ce4                anim_0766
                0x0000000008120cec                anim_0767__v0_l0
                0x0000000008120d3c                anim_0767__v1_l0
                0x0000000008120db0                anim_0767
                0x0000000008120db8                anim_0768__v0_l0
                0x0000000008120df4                anim_0768__v1_l0
                0x0000000008120e68                anim_0768
                0x0000000008120e70                anim_0769__v0_l0
                0x0000000008120ec0                anim_0769__v1_l0
                0x0000000008120f34                anim_0769
                0x0000000008120f3c                anim_0770__v0_l0
                0x0000000008120fd8                anim_0770
                0x0000000008120fdc                anim_0771__v0_l0
                0x0000000008121028                anim_0771
                0x000000000812102c                anim_0772__v0_l0
                0x000000000812108c                anim_0772
                0x0000000008121090                anim_0773__v0_l0
                0x00000000081210f0                anim_0773
                0x00000000081210f4                anim_0774__v0_l0
                0x0000000008121154                anim_0774
                0x0000000008121158                anim_0775__v0_l0
                0x00000000081211b8                anim_0775
                0x00000000081211bc                anim_0776__v0_l0
                0x0000000008121248                anim_0776
                0x000000000812124c                anim_0777__v0_l0
                0x00000000081212d8                anim_0777
                0x00000000081212dc                anim_0778__v0_l0
                0x0000000008121368                anim_0778
                0x000000000812136c                anim_0779__v0_l0
                0x00000000081213f8                anim_0779
                0x00000000081213fc                anim_0780__v0_l0
                0x0000000008121488                anim_0780
                0x000000000812148c                anim_0781__v0_l0
                0x00000000081214b0                anim_0781__v1_l0
                0x00000000081214d4                anim_0781__v2_l0
                0x00000000081214f8                anim_0781
                0x0000000008121504                anim_0782__v0_l0
                0x000000000812158c                anim_0782__v1_l0
                0x00000000081215d8                anim_0782
                0x00000000081215e0                anim_0783__v0_l0
                0x0000000008121604                anim_0783__v1_l0
                0x0000000008121650                anim_0783
                0x0000000008121658                anim_0784__v0_l0
                0x00000000081216e0                anim_0784__v1_l0
                0x000000000812172c                anim_0784__v2_l0
                0x0000000008121750                anim_0784
                0x000000000812175c                anim_0785__v0_l0
                0x0000000008121798                anim_0785__v1_l0
                0x00000000081217d4                anim_0785__v2_l0
                0x0000000008121810                anim_0785__v3_l0
                0x000000000812184c                anim_0785
                0x000000000812185c                anim_0786__v0_l0
                0x0000000008121898                anim_0786__v1_l0
                0x00000000081218d4                anim_0786__v2_l0
                0x0000000008121910                anim_0786__v3_l0
                0x000000000812194c                anim_0786
                0x000000000812195c                anim_0787__v0_l0
                0x0000000008121998                anim_0787__v1_l0
                0x00000000081219d4                anim_0787__v2_l0
                0x0000000008121a10                anim_0787__v3_l0
                0x0000000008121a4c                anim_0787
                0x0000000008121a5c                anim_0788__v0_l0
                0x0000000008121a98                anim_0788__v1_l0
                0x0000000008121ad4                anim_0788__v2_l0
                0x0000000008121b10                anim_0788__v3_l0
                0x0000000008121b4c                anim_0788
                0x0000000008121b5c                anim_0789__v0_l0
                0x0000000008121b98                anim_0789__v1_l0
                0x0000000008121bd4                anim_0789__v2_l0
                0x0000000008121c10                anim_0789__v3_l0
                0x0000000008121c4c                anim_0789
                0x0000000008121c5c                anim_0790__v0_l0
                0x0000000008121c98                anim_0790__v1_l0
                0x0000000008121cd4                anim_0790
                0x0000000008121cdc                anim_0791__v0_l0
                0x0000000008121d00                anim_0791__v1_l0
                0x0000000008121d60                anim_0791__v2_l0
                0x0000000008121d84                anim_0791
                0x0000000008121d90                anim_0792__v0_l0
                0x0000000008121db4                anim_0792
                0x0000000008121db8                anim_0793__v0_l0
                0x0000000008121ddc                anim_0793
                0x0000000008121de0                anim_0794__v0_l0
                0x0000000008121e04                anim_0794
                0x0000000008121e08                anim_0795__v0_l0
                0x0000000008121e2c                anim_0795
                0x0000000008121e30                anim_0796__v0_l0
                0x0000000008121e54                anim_0796
                0x0000000008121e58                anim_0797__v0_l0
                0x0000000008121e7c                anim_0797
                0x0000000008121e80                anim_0798__v0_l0
                0x0000000008121f0c                anim_0798
                0x0000000008121f10                anim_0799__v0_l0
                0x0000000008121f60                anim_0799
                0x0000000008121f64                anim_0804__v0_l0
                0x0000000008121f88                anim_0804
                0x0000000008121f8c                anim_0805__v0_l0
                0x0000000008121fb0                anim_0805
                0x0000000008121fb4                anim_0806__v0_l0
                0x0000000008121fd8                anim_0806
                0x0000000008121fdc                anim_0807__v0_l0
                0x0000000008122000                anim_0807
                0x0000000008122004                anim_0808__v0_l0
                0x0000000008122028                anim_0808
                0x000000000812202c                anim_0809__v0_l0
                0x0000000008122050                anim_0809
                0x0000000008122054                anim_0810__v0_l0
                0x0000000008122078                anim_0810__v1_l0
                0x0000000008122114                anim_0810
                0x000000000812211c                anim_0815__v0_l0
                0x0000000008122180                anim_0815
                0x0000000008122184                anim_0816__v0_l0
                0x00000000081221a8                anim_0816__v1_l0
                0x00000000081221cc                anim_0816
                0x00000000081221d4                anim_0817__v0_l0
                0x0000000008122248                anim_0817
                0x000000000812224c                anim_0818__v0_l0
                0x00000000081222d4                anim_0818
                0x00000000081222d8                anim_0819__v0_l0
                0x000000000812238c                anim_0819
                0x0000000008122390                anim_0820__v0_l0
                0x00000000081223e0                anim_0820
                0x00000000081223e4                anim_0821__v0_l0
                0x0000000008122434                anim_0821
                0x0000000008122438                anim_0822__v0_l0
                0x0000000008122474                anim_0822__v1_l0
                0x00000000081224b0                anim_0822
                0x00000000081224b8                anim_0823__v0_l0
                0x00000000081224dc                anim_0823
                0x00000000081224e0                anim_0824__v0_l0
                0x0000000008122504                anim_0824__v1_l0
                0x0000000008122528                anim_0824__v2_l0
                0x000000000812254c                anim_0824__v3_l0
                0x0000000008122570                anim_0824
                0x0000000008122580                anim_0828__v0_l0
                0x00000000081225a4                anim_0828__v1_l0
                0x00000000081225c8                anim_0828__v2_l0
                0x00000000081225ec                anim_0828__v3_l0
                0x0000000008122610                anim_0828
                0x0000000008122620                anim_0829__v0_l0
                0x0000000008122644                anim_0829__v1_l0
                0x0000000008122668                anim_0829
                0x0000000008122670                anim_0830__v0_l0
                0x0000000008122694                anim_0830__v1_l0
                0x00000000081226b8                anim_0830
                0x00000000081226c0                anim_0831__v0_l0
                0x0000000008122774                anim_0831
                0x0000000008122778                anim_0832__v0_l0
                0x000000000812279c                anim_0832__v1_l0
                0x00000000081227c0                anim_0832__v2_l0
                0x00000000081227e4                anim_0832__v3_l0
                0x0000000008122808                anim_0832__v4_l0
                0x000000000812282c                anim_0832__v5_l0
                0x0000000008122850                anim_0832__v6_l0
                0x0000000008122874                anim_0832
                0x0000000008122890                anim_0833__v0_l0
                0x00000000081228b4                anim_0833
                0x00000000081228b8                anim_0834__v0_l0
                0x00000000081228f0                anim_0834__v1_l0
                0x0000000008122928                anim_0834__v2_l0
                0x000000000812298c                anim_0834__v3_l0
                0x00000000081229c4                anim_0834__v4_l0
                0x0000000008122a28                anim_0834
                0x0000000008122a3c                anim_0835__v0_l0
                0x0000000008122a74                anim_0835__v1_l0
                0x0000000008122b60                anim_0835__v2_l0
                0x0000000008122b84                anim_0835__v3_l0
                0x0000000008122c4c                anim_0835__v4_l0
                0x0000000008122c98                anim_0835__v5_l0
                0x0000000008122d30                anim_0835
                0x0000000008122d48                anim_0836__v0_l0
                0x0000000008122dd0                anim_0836__v1_l0
                0x0000000008123558                anim_0836__v2_l0
                0x000000000812365c                anim_0836__v3_l0
                0x00000000081236c0                anim_0836
                0x00000000081236d0                anim_0837__v0_l0
                0x0000000008123734                anim_0837__v1_l0
                0x0000000008123798                anim_0837__v2_l0
                0x00000000081237fc                anim_0837__v3_l0
                0x0000000008123860                anim_0837__v4_l0
                0x00000000081238c4                anim_0837__v5_l0
                0x0000000008123928                anim_0837__v6_l0
                0x000000000812398c                anim_0837
                0x00000000081239a8                anim_0838__v0_l0
                0x0000000008123a58                anim_0838__v1_l0
                0x0000000008123b08                anim_0838
                0x0000000008123b10                anim_0839__v0_l0
                0x0000000008123b74                anim_0839__v1_l0
                0x0000000008123bac                anim_0839
                0x0000000008123bb4                anim_0840__v0_l0
                0x0000000008123c68                anim_0840__v1_l0
                0x0000000008123d1c                anim_0840__v2_l0
                0x0000000008123dd0                anim_0840
                0x0000000008123ddc                anim_0841__v0_l0
                0x0000000008123e28                anim_0841__v1_l0
                0x0000000008123edc                anim_0841__v2_l0
                0x0000000008123f90                anim_0841__v3_l0
                0x0000000008123fc8                anim_0841__v4_l0
                0x0000000008124054                anim_0841
                0x0000000008124068                anim_0842__v0_l0
                0x00000000081240b4                anim_0842__v1_l0
                0x0000000008124128                anim_0842__v2_l0
                0x00000000081241a0                anim_0842__v3_l0
                0x00000000081241d8                anim_0842__v4_l0
                0x000000000812423c                anim_0842
                0x0000000008124250                anim_0843__v0_l0
                0x0000000008124304                anim_0843__v1_l0
                0x00000000081243b8                anim_0843__v2_l0
                0x000000000812441c                anim_0843
                0x0000000008124428                anim_0844__v0_l0
                0x0000000008124478                anim_0844__v1_l0
                0x000000000812449c                anim_0844
                0x00000000081244a4                anim_0845__v0_l0
                0x000000000812450c                anim_0845
                0x0000000008124510                anim_0846__v0_l0
                0x00000000081245c4                anim_0846
                0x00000000081245c8                anim_0847__v0_l0
                0x000000000812462c                anim_0847
                0x0000000008124630                anim_0848__v0_l0
                0x0000000008124698                anim_0848
                0x000000000812469c                anim_0849__v0_l0
                0x000000000812474c                anim_0849
                0x0000000008124750                anim_0850__v0_l0
                0x00000000081247dc                anim_0850
                0x00000000081247e0                anim_0851__v0_l0
                0x0000000008124934                anim_0851
                0x0000000008124938                anim_0852__v0_l0
                0x00000000081249c4                anim_0852__v1_l0
                0x0000000008124ac4                anim_0852
                0x0000000008124acc                anim_0853__v0_l0
                0x0000000008124b0c                anim_0853
                0x0000000008124b10                anim_0854__v0_l0
                0x0000000008124b50                anim_0854
                0x0000000008124b54                anim_0855__v0_l0
                0x0000000008124bc8                anim_0855
                0x0000000008124bcc                anim_0856__v0_l0
                0x0000000008124c40                anim_0856
                0x0000000008124c44                anim_0857__v0_l0
                0x0000000008124cb8                anim_0857
                0x0000000008124cbc                anim_0858__v0_l0
                0x0000000008124d30                anim_0858
                0x0000000008124d34                anim_0859__v0_l0
                0x0000000008124da8                anim_0859
                0x0000000008124dac                anim_0860__v0_l0
                0x0000000008124e20                anim_0860
                0x0000000008124e24                anim_0861__v0_l0
                0x0000000008124ed4                anim_0861
                0x0000000008124ed8                anim_0862__v0_l0
                0x0000000008124f4c                anim_0862
                0x0000000008124f50                anim_0863__v0_l0
                0x0000000008125004                anim_0863
                0x0000000008125008                anim_0864__v0_l0
                0x00000000081250bc                anim_0864
                0x00000000081250c0                anim_0865__v0_l0
                0x0000000008125174                anim_0865
                0x0000000008125178                anim_0866__v0_l0
                0x000000000812522c                anim_0866
                0x0000000008125230                anim_0867__v0_l0
                0x00000000081252e4                anim_0867
                0x00000000081252e8                anim_0868__v0_l0
                0x000000000812530c                anim_0868__v1_l0
                0x0000000008125330                anim_0868__v2_l0
                0x0000000008125354                anim_0868__v3_l0
                0x0000000008125378                anim_0868__v4_l0
                0x000000000812539c                anim_0868__v5_l0
                0x00000000081253c4                anim_0868__v6_l0
                0x00000000081253e8                anim_0868__v7_l0
                0x000000000812540c                anim_0868
                0x000000000812542c                anim_0869__v0_l0
                0x0000000008125450                anim_0869__v1_l0
                0x0000000008125474                anim_0869__v2_l0
                0x000000000812548c                anim_0869__v3_l0
                0x00000000081254a4                anim_0869__v4_l0
                0x00000000081254c8                anim_0869__v5_l0
                0x00000000081254e0                anim_0869
                0x00000000081254f8                anim_0870__v0_l0
                0x000000000812551c                anim_0870__v1_l0
                0x0000000008125540                anim_0870__v2_l0
                0x0000000008125564                anim_0870__v3_l0
                0x0000000008125588                anim_0870__v4_l0
                0x00000000081255ac                anim_0870__v5_l0
                0x00000000081255d0                anim_0870
                0x00000000081255e8                anim_0871__v0_l0
                0x0000000008125684                anim_0871__v1_l0
                0x0000000008125720                anim_0871__v2_l0
                0x00000000081257bc                anim_0871__v3_l0
                0x0000000008125858                anim_0871__v4_l0
                0x00000000081258f4                anim_0871__v5_l0
                0x0000000008125990                anim_0871
                0x00000000081259a8                anim_0872__v0_l0
                0x0000000008125a30                anim_0872
                0x0000000008125a34                anim_0873__v0_l0
                0x0000000008125a70                anim_0873__v1_l0
                0x0000000008125b48                anim_0873
                0x0000000008125b50                anim_0874__v0_l0
                0x0000000008125b74                anim_0874__v1_l0
                0x0000000008125b98                anim_0874__v2_l0
                0x0000000008125bbc                anim_0874__v3_l0
                0x0000000008125be0                anim_0874__v4_l0
                0x0000000008125c04                anim_0874__v5_l0
                0x0000000008125c28                anim_0874__v6_l0
                0x0000000008125c4c                anim_0874
                0x0000000008125c68                anim_0875__v0_l0
                0x0000000008125c8c                anim_0875__v1_l0
                0x0000000008125cb0                anim_0875__v2_l0
                0x0000000008125cd4                anim_0875__v3_l0
                0x0000000008125cf8                anim_0875__v4_l0
                0x0000000008125d1c                anim_0875__v5_l0
                0x0000000008125d40                anim_0875__v6_l0
                0x0000000008125d64                anim_0875
                0x0000000008125d80                anim_0876__v0_l0
                0x0000000008125da4                anim_0876__v1_l0
                0x0000000008125dc8                anim_0876__v2_l0
                0x0000000008125dec                anim_0876__v3_l0
                0x0000000008125e10                anim_0876__v4_l0
                0x0000000008125e34                anim_0876__v5_l0
                0x0000000008125e58                anim_0876__v6_l0
                0x0000000008125e7c                anim_0876
                0x0000000008125e98                anim_0877__v0_l0
                0x0000000008125ec0                anim_0877__v1_l0
                0x0000000008125ee4                anim_0877__v2_l0
                0x0000000008125f08                anim_0877__v3_l0
                0x0000000008125f2c                anim_0877__v4_l0
                0x0000000008125f50                anim_0877__v5_l0
                0x0000000008125f74                anim_0877__v6_l0
                0x0000000008125f98                anim_0877
                0x0000000008125fb4                anim_0878__v0_l0
                0x0000000008125fd8                anim_0878__v1_l0
                0x0000000008125ffc                anim_0878__v2_l0
                0x0000000008126020                anim_0878__v3_l0
                0x0000000008126044                anim_0878__v4_l0
                0x0000000008126068                anim_0878__v5_l0
                0x000000000812608c                anim_0878__v6_l0
                0x00000000081260b0                anim_0878
                0x00000000081260cc                anim_0879__v0_l0
                0x00000000081260f0                anim_0879
                0x00000000081260f4                anim_0880__v0_l0
                0x0000000008126118                anim_0880
                0x000000000812611c                anim_0881__v0_l0
                0x00000000081261f0                anim_0881
                0x00000000081261f4                anim_0882__v0_l0
                0x0000000008126234                anim_0882__v1_l0
                0x0000000008126298                anim_0882__v2_l0
                0x00000000081262fc                anim_0882__v3_l0
                0x0000000008126360                anim_0882__v4_l0
                0x00000000081263c4                anim_0882__v5_l0
                0x0000000008126428                anim_0882__v6_l0
                0x000000000812648c                anim_0882__v7_l0
                0x00000000081264f0                anim_0882__v8_l0
                0x0000000008126554                anim_0882__v9_l0
                0x00000000081265b8                anim_0882__v10_l0
                0x000000000812661c                anim_0882__v11_l0
                0x0000000008126680                anim_0882__v12_l0
                0x00000000081266e4                anim_0882__v13_l0
                0x0000000008126748                anim_0882__v14_l0
                0x00000000081267ac                anim_0882__v15_l0
                0x0000000008126810                anim_0882
                0x0000000008126850                anim_0883__v0_l0
                0x000000000812688c                anim_0883__v1_l0
                0x00000000081268c8                anim_0883__v2_l0
                0x0000000008126904                anim_0883__v3_l0
                0x0000000008126940                anim_0883__v4_l0
                0x000000000812697c                anim_0883__v5_l0
                0x00000000081269b8                anim_0883__v6_l0
                0x00000000081269f4                anim_0883__v7_l0
                0x0000000008126a30                anim_0883
                0x0000000008126a50                anim_0884__v0_l0
                0x0000000008126a74                anim_0884__v1_l0
                0x0000000008126a98                anim_0884__v2_l0
                0x0000000008126abc                anim_0884__v3_l0
                0x0000000008126ae0                anim_0884
                0x0000000008126af0                anim_0885__v0_l0
                0x0000000008126b14                anim_0885__v1_l0
                0x0000000008126b38                anim_0885__v2_l0
                0x0000000008126b5c                anim_0885__v3_l0
                0x0000000008126b80                anim_0885__v4_l0
                0x0000000008126ba4                anim_0885__v5_l0
                0x0000000008126bc8                anim_0885__v6_l0
                0x0000000008126bec                anim_0885__v7_l0
                0x0000000008126c10                anim_0885
                0x0000000008126c30                anim_0886__v0_l0
                0x0000000008126c54                anim_0886
                0x0000000008126c58                anim_0887__v0_l0
                0x0000000008126c7c                anim_0887
                0x0000000008126c80                anim_0888__v0_l0
                0x0000000008126ca4                anim_0888__v1_l0
                0x0000000008126d08                anim_0888
                0x0000000008126d10                anim_0889__v0_l0
                0x0000000008126d28                anim_0889
                0x0000000008126d2c                anim_0890__v0_l0
                0x0000000008126d68                anim_0890__v1_l0
                0x0000000008126da4                anim_0890__v2_l0
                0x0000000008126de0                anim_0890
                0x0000000008126dec                anim_0891__v0_l0
                0x0000000008126e10                anim_0891__v1_l0
                0x0000000008126e34                anim_0891__v2_l0
                0x0000000008126e58                anim_0891__v3_l0
                0x0000000008126e7c                anim_0891
                0x0000000008126e8c                anim_0892__v0_l0
                0x0000000008126eb0                anim_0892
                0x0000000008126eb4                anim_0893__v0_l0
                0x0000000008126ed8                anim_0893__v1_l0
                0x0000000008126efc                anim_0893
                0x0000000008126f04                anim_0894__v0_l0
                0x0000000008126f28                anim_0894__v1_l0
                0x0000000008126f4c                anim_0894__v2_l0
                0x0000000008126f70                anim_0894
                0x0000000008126f7c                anim_0895__v0_l0
                0x0000000008126fa0                anim_0895__v1_l0
                0x0000000008126fc4                anim_0895__v2_l0
                0x0000000008126fe8                anim_0895__v3_l0
                0x000000000812700c                anim_0895__v4_l0
                0x0000000008127030                anim_0895__v5_l0
                0x0000000008127054                anim_0895__v6_l0
                0x0000000008127078                anim_0895__v7_l0
                0x000000000812709c                anim_0895__v8_l0
                0x0000000008127110                anim_0895
                0x0000000008127134                anim_0896__v0_l0
                0x00000000081271dc                anim_0896
                0x00000000081271e0                anim_0897__v0_l0
                0x0000000008127288                anim_0897
                0x000000000812728c                anim_0898__v0_l0
                0x00000000081272bc                anim_0898
                0x00000000081272c0                anim_0899__v0_l0
                0x00000000081272f0                anim_0899
                0x00000000081272f4                anim_0900__v0_l0
                0x0000000008127338                anim_0900__v1_l0
                0x000000000812737c                anim_0900__v2_l0
                0x00000000081273c0                anim_0900
                0x00000000081273cc                anim_0901__v0_l0
                0x000000000812744c                anim_0901
                0x0000000008127450                anim_0902__v0_l0
                0x0000000008127480                anim_0902
                0x0000000008127484                anim_0903__v0_l0
                0x00000000081274b4                anim_0903
                0x00000000081274b8                anim_0904__v0_l0
                0x00000000081274e8                anim_0904
                0x00000000081274ec                anim_0905__v0_l0
                0x000000000812751c                anim_0905
                0x0000000008127520                anim_0906__v0_l0
                0x0000000008127578                anim_0906__v1_l0
                0x00000000081275d0                anim_0906__v2_l0
                0x0000000008127628                anim_0906
                0x0000000008127634                anim_0907__v0_l0
                0x00000000081276f0                anim_0907
                0x00000000081276f4                anim_0908__v0_l0
                0x00000000081277b0                anim_0908
                0x00000000081277b4                anim_0909__v0_l0
                0x00000000081277f8                anim_0909
                0x00000000081277fc                anim_0910__v0_l0
                0x00000000081278f4                anim_0910
                0x00000000081278f8                anim_0911__v0_l0
                0x00000000081279f0                anim_0911
                0x00000000081279f4                anim_0912__v0_l0
                0x0000000008127a74                anim_0912
                0x0000000008127a78                anim_0913__v0_l0
                0x0000000008127af8                anim_0913
                0x0000000008127afc                anim_0914__v0_l0
                0x0000000008127b7c                anim_0914
                0x0000000008127b80                anim_0915__v0_l0
                0x0000000008127cb4                anim_0915
                0x0000000008127cb8                anim_0916__v0_l0
                0x0000000008127dec                anim_0916
                0x0000000008127df0                anim_0917__v0_l0
                0x0000000008127f24                anim_0917
                0x0000000008127f28                anim_0918__v0_l0
                0x000000000812805c                anim_0918
                0x0000000008128060                anim_0919__v0_l0
                0x0000000008128194                anim_0919
                0x0000000008128198                anim_0920__v0_l0
                0x00000000081282cc                anim_0920
                0x00000000081282d0                anim_0921__v0_l0
                0x0000000008128404                anim_0921
                0x0000000008128408                anim_0922__v0_l0
                0x000000000812844c                anim_0922
                0x0000000008128450                anim_0923__v0_l0
                0x0000000008128584                anim_0923
                0x0000000008128588                anim_0924__v0_l0
                0x00000000081286bc                anim_0924
                0x00000000081286c0                anim_0925__v0_l0
                0x00000000081287f4                anim_0925
                0x00000000081287f8                anim_0926__v0_l0
                0x000000000812892c                anim_0926
                0x0000000008128930                anim_0927__v0_l0
                0x0000000008128a64                anim_0927
                0x0000000008128a68                anim_0928__v0_l0
                0x0000000008128b9c                anim_0928
                0x0000000008128ba0                anim_0929__v0_l0
                0x0000000008128cd4                anim_0929
                0x0000000008128cd8                anim_0930__v0_l0
                0x0000000008128d58                anim_0930
                0x0000000008128d5c                anim_0931__v0_l0
                0x0000000008128ddc                anim_0931
                0x0000000008128de0                anim_0932__v0_l0
                0x0000000008128e60                anim_0932
                0x0000000008128e64                anim_0933__v0_l0
                0x0000000008128ee4                anim_0933
                0x0000000008128ee8                anim_0934__v0_l0
                0x0000000008128f68                anim_0934
                0x0000000008128f6c                anim_0935__v0_l0
                0x0000000008128fec                anim_0935
                0x0000000008128ff0                anim_0936__v0_l0
                0x0000000008129070                anim_0936
                0x0000000008129074                anim_0937__v0_l0
                0x00000000081290f4                anim_0937
                0x00000000081290f8                anim_0938__v0_l0
                0x0000000008129178                anim_0938
                0x000000000812917c                anim_0939__v0_l0
                0x00000000081291fc                anim_0939
                0x0000000008129200                anim_0940__v0_l0
                0x00000000081293e8                anim_0940__v1_l0
                0x00000000081295d0                anim_0940__v2_l0
                0x0000000008129650                anim_0940__v3_l0
                0x00000000081296d0                anim_0940__v4_l0
                0x00000000081298b8                anim_0940__v5_l0
                0x00000000081299b0                anim_0940__v6_l0
                0x0000000008129a30                anim_0940__v7_l0
                0x0000000008129ab0                anim_0940__v8_l0
                0x0000000008129b30                anim_0940__v9_l0
                0x0000000008129bd8                anim_0940__v10_l0
                0x0000000008129c08                anim_0940__v11_l0
                0x0000000008129c60                anim_0940
                0x0000000008129c90                anim_0941__v0_l0
                0x0000000008129d38                anim_0941
                0x0000000008129d3c                anim_0942__v0_l0
                0x0000000008129e34                anim_0942
                0x0000000008129e38                anim_0943__v0_l0
                0x0000000008129f30                anim_0943
                0x0000000008129f34                anim_0944__v0_l0
                0x0000000008129f78                anim_0944
                0x0000000008129f7c                anim_0945__v0_l0
                0x000000000812a04c                anim_0945
                0x000000000812a050                anim_0946__v0_l0
                0x000000000812a0f8                anim_0946
                0x000000000812a0fc                anim_0947__v0_l0
                0x000000000812a12c                anim_0947
                0x000000000812a130                anim_0948__v0_l0
                0x000000000812a1b0                anim_0948
                0x000000000812a1b4                anim_0949__v0_l0
                0x000000000812a25c                anim_0949
                0x000000000812a260                anim_0950__v0_l0
                0x000000000812a284                anim_0950__v1_l0
                0x000000000812a2a8                anim_0950__v2_l0
                0x000000000812a2cc                anim_0950__v3_l0
                0x000000000812a2f0                anim_0950__v4_l0
                0x000000000812a320                anim_0950__v5_l0
                0x000000000812a344                anim_0950__v6_l0
                0x000000000812a368                anim_0950__v7_l0
                0x000000000812a38c                anim_0950__v8_l0
                0x000000000812a3f0                anim_0950__v9_l0
                0x000000000812a454                anim_0950__v10_l0
                0x000000000812a478                anim_0950
                0x000000000812a4a4                anim_0951__v0_l0
                0x000000000812a4c8                anim_0951__v1_l0
                0x000000000812a4ec                anim_0951__v2_l0
                0x000000000812a510                anim_0951__v3_l0
                0x000000000812a534                anim_0951
                0x000000000812a544                anim_0952__v0_l0
                0x000000000812a568                anim_0952__v1_l0
                0x000000000812a58c                anim_0952__v2_l0
                0x000000000812a5b0                anim_0952__v3_l0
                0x000000000812a5d4                anim_0952
                0x000000000812a5e4                anim_0953__v0_l0
                0x000000000812a608                anim_0953__v1_l0
                0x000000000812a62c                anim_0953__v2_l0
                0x000000000812a650                anim_0953__v3_l0
                0x000000000812a674                anim_0953__v4_l0
                0x000000000812a698                anim_0953__v5_l0
                0x000000000812a6bc                anim_0953__v6_l0
                0x000000000812a6e0                anim_0953__v7_l0
                0x000000000812a704                anim_0953__v8_l0
                0x000000000812a728                anim_0953__v9_l0
                0x000000000812a74c                anim_0953__v10_l0
                0x000000000812a770                anim_0953__v11_l0
                0x000000000812a794                anim_0953__v12_l0
                0x000000000812a7b8                anim_0953__v13_l0
                0x000000000812a7dc                anim_0953
                0x000000000812a814                anim_0954__v0_l0
                0x000000000812a838                anim_0954__v1_l0
                0x000000000812a85c                anim_0954__v2_l0
                0x000000000812a880                anim_0954__v3_l0
                0x000000000812a8a4                anim_0954__v4_l0
                0x000000000812a8c8                anim_0954__v5_l0
                0x000000000812a8ec                anim_0954__v6_l0
                0x000000000812a910                anim_0954__v7_l0
                0x000000000812a934                anim_0954__v8_l0
                0x000000000812a958                anim_0954
                0x000000000812a97c                anim_0955__v0_l0
                0x000000000812a9a4                anim_0955__v1_l0
                0x000000000812a9cc                anim_0955__v2_l0
                0x000000000812a9f4                anim_0955__v3_l0
                0x000000000812aa1c                anim_0955__v4_l0
                0x000000000812aa44                anim_0955__v5_l0
                0x000000000812aa6c                anim_0955__v6_l0
                0x000000000812aa94                anim_0955__v7_l0
                0x000000000812aabc                anim_0955__v8_l0
                0x000000000812aae4                anim_0955__v9_l0
                0x000000000812ab0c                anim_0955__v10_l0
                0x000000000812ab34                anim_0955__v11_l0
                0x000000000812ab5c                anim_0955__v12_l0
                0x000000000812ab84                anim_0955__v13_l0
                0x000000000812abac                anim_0955__v14_l0
                0x000000000812abd4                anim_0955__v15_l0
                0x000000000812abfc                anim_0955__v16_l0
                0x000000000812ac24                anim_0955__v17_l0
                0x000000000812ac40                anim_0955__v18_l0
                0x000000000812ac68                anim_0955__v19_l0
                0x000000000812ac84                anim_0955__v20_l0
                0x000000000812acac                anim_0955__v21_l0
                0x000000000812acd4                anim_0955__v22_l0
                0x000000000812acfc                anim_0955__v23_l0
                0x000000000812ad24                anim_0955__v24_l0
                0x000000000812ad4c                anim_0955__v25_l0
                0x000000000812ad74                anim_0955__v26_l0
                0x000000000812ad9c                anim_0955__v27_l0
                0x000000000812adc4                anim_0955__v28_l0
                0x000000000812adec                anim_0955__v29_l0
                0x000000000812ae14                anim_0955__v30_l0
                0x000000000812ae3c                anim_0955__v31_l0
                0x000000000812ae64                anim_0955__v32_l0
                0x000000000812ae8c                anim_0955__v33_l0
                0x000000000812aeb4                anim_0955__v34_l0
                0x000000000812aedc                anim_0955__v35_l0
                0x000000000812af04                anim_0955__v36_l0
                0x000000000812af2c                anim_0955__v37_l0
                0x000000000812af54                anim_0955__v38_l0
                0x000000000812af7c                anim_0955__v39_l0
                0x000000000812af98                anim_0955__v40_l0
                0x000000000812afc0                anim_0955__v41_l0
                0x000000000812afdc                anim_0955__v42_l0
                0x000000000812b004                anim_0955__v43_l0
                0x000000000812b02c                anim_0955__v44_l0
                0x000000000812b054                anim_0955__v45_l0
                0x000000000812b07c                anim_0955__v46_l0
                0x000000000812b0a4                anim_0955__v47_l0
                0x000000000812b0cc                anim_0955__v48_l0
                0x000000000812b0f4                anim_0955__v49_l0
                0x000000000812b11c                anim_0955__v50_l0
                0x000000000812b144                anim_0955__v51_l0
                0x000000000812b16c                anim_0955__v52_l0
                0x000000000812b194                anim_0955__v53_l0
                0x000000000812b1bc                anim_0955__v54_l0
                0x000000000812b1e4                anim_0955__v55_l0
                0x000000000812b20c                anim_0955__v56_l0
                0x000000000812b234                anim_0955__v57_l0
                0x000000000812b25c                anim_0955__v58_l0
                0x000000000812b284                anim_0955__v59_l0
                0x000000000812b2ac                anim_0955__v60_l0
                0x000000000812b2d4                anim_0955__v61_l0
                0x000000000812b2f0                anim_0955__v62_l0
                0x000000000812b318                anim_0955__v63_l0
                0x000000000812b334                anim_0955__v64_l0
                0x000000000812b35c                anim_0955__v65_l0
                0x000000000812b384                anim_0955__v66_l0
                0x000000000812b3ac                anim_0955__v67_l0
                0x000000000812b3d4                anim_0955__v68_l0
                0x000000000812b3fc                anim_0955__v69_l0
                0x000000000812b424                anim_0955__v70_l0
                0x000000000812b44c                anim_0955__v71_l0
                0x000000000812b474                anim_0955__v72_l0
                0x000000000812b49c                anim_0955__v73_l0
                0x000000000812b4c4                anim_0955__v74_l0
                0x000000000812b4ec                anim_0955__v75_l0
                0x000000000812b508                anim_0955__v76_l0
                0x000000000812b524                anim_0955__v77_l0
                0x000000000812b540                anim_0955__v78_l0
                0x000000000812b568                anim_0955__v79_l0
                0x000000000812b590                anim_0955__v80_l0
                0x000000000812b5b8                anim_0955__v81_l0
                0x000000000812b5e0                anim_0955__v82_l0
                0x000000000812b608                anim_0955__v83_l0
                0x000000000812b630                anim_0955__v84_l0
                0x000000000812b658                anim_0955__v85_l0
                0x000000000812b680                anim_0955__v86_l0
                0x000000000812b6a8                anim_0955__v87_l0
                0x000000000812b6d0                anim_0955__v88_l0
                0x000000000812b6f8                anim_0955__v89_l0
                0x000000000812b720                anim_0955__v90_l0
                0x000000000812b748                anim_0955__v91_l0
                0x000000000812b770                anim_0955__v92_l0
                0x000000000812b798                anim_0955__v93_l0
                0x000000000812b7c0                anim_0955__v94_l0
                0x000000000812b7e8                anim_0955__v95_l0
                0x000000000812b810                anim_0955__v96_l0
                0x000000000812b838                anim_0955__v97_l0
                0x000000000812b860                anim_0955__v98_l0
                0x000000000812b888                anim_0955__v99_l0
                0x000000000812b8b0                anim_0955__v100_l0
                0x000000000812b8d8                anim_0955__v101_l0
                0x000000000812b900                anim_0955__v102_l0
                0x000000000812b928                anim_0955__v103_l0
                0x000000000812b950                anim_0955__v104_l0
                0x000000000812b978                anim_0955__v105_l0
                0x000000000812b9a0                anim_0955__v106_l0
                0x000000000812b9c8                anim_0955__v107_l0
                0x000000000812b9f0                anim_0955__v108_l0
                0x000000000812ba18                anim_0955__v109_l0
                0x000000000812ba34                anim_0955__v110_l0
                0x000000000812ba5c                anim_0955__v111_l0
                0x000000000812ba84                anim_0955__v112_l0
                0x000000000812baac                anim_0955__v113_l0
                0x000000000812bad4                anim_0955__v114_l0
                0x000000000812bafc                anim_0955__v115_l0
                0x000000000812bb24                anim_0955__v116_l0
                0x000000000812bb4c                anim_0955__v117_l0
                0x000000000812bb74                anim_0955__v118_l0
                0x000000000812bb9c                anim_0955__v119_l0
                0x000000000812bbc4                anim_0955__v120_l0
                0x000000000812bbec                anim_0955__v121_l0
                0x000000000812bc14                anim_0955__v122_l0
                0x000000000812bc3c                anim_0955__v123_l0
                0x000000000812bc64                anim_0955__v124_l0
                0x000000000812bc8c                anim_0955__v125_l0
                0x000000000812bcb4                anim_0955__v126_l0
                0x000000000812bcdc                anim_0955__v127_l0
                0x000000000812bd04                anim_0955__v128_l0
                0x000000000812bd2c                anim_0955__v129_l0
                0x000000000812bd54                anim_0955__v130_l0
                0x000000000812bd7c                anim_0955__v131_l0
                0x000000000812bda4                anim_0955__v132_l0
                0x000000000812bdcc                anim_0955__v133_l0
                0x000000000812bdf4                anim_0955__v134_l0
                0x000000000812be1c                anim_0955__v135_l0
                0x000000000812be44                anim_0955__v136_l0
                0x000000000812be6c                anim_0955__v137_l0
                0x000000000812be94                anim_0955__v138_l0
                0x000000000812bebc                anim_0955__v139_l0
                0x000000000812bee4                anim_0955__v140_l0
                0x000000000812bf0c                anim_0955__v141_l0
                0x000000000812bf34                anim_0955__v142_l0
                0x000000000812bf50                anim_0955__v143_l0
                0x000000000812bf78                anim_0955__v144_l0
                0x000000000812bfa0                anim_0955__v145_l0
                0x000000000812bfc8                anim_0955__v146_l0
                0x000000000812bff0                anim_0955__v147_l0
                0x000000000812c018                anim_0955__v148_l0
                0x000000000812c040                anim_0955__v149_l0
                0x000000000812c068                anim_0955__v150_l0
                0x000000000812c090                anim_0955__v151_l0
                0x000000000812c0b8                anim_0955__v152_l0
                0x000000000812c0e0                anim_0955__v153_l0
                0x000000000812c108                anim_0955__v154_l0
                0x000000000812c130                anim_0955__v155_l0
                0x000000000812c158                anim_0955__v156_l0
                0x000000000812c180                anim_0955__v157_l0
                0x000000000812c1a8                anim_0955__v158_l0
                0x000000000812c1d0                anim_0955__v159_l0
                0x000000000812c1f8                anim_0955__v160_l0
                0x000000000812c220                anim_0955__v161_l0
                0x000000000812c248                anim_0955__v162_l0
                0x000000000812c270                anim_0955__v163_l0
                0x000000000812c298                anim_0955__v164_l0
                0x000000000812c2c0                anim_0955__v165_l0
                0x000000000812c2e8                anim_0955__v166_l0
                0x000000000812c310                anim_0955__v167_l0
                0x000000000812c338                anim_0955__v168_l0
                0x000000000812c360                anim_0955__v169_l0
                0x000000000812c388                anim_0955__v170_l0
                0x000000000812c3b0                anim_0955__v171_l0
                0x000000000812c3d8                anim_0955__v172_l0
                0x000000000812c400                anim_0955__v173_l0
                0x000000000812c428                anim_0955__v174_l0
                0x000000000812c444                anim_0955__v175_l0
                0x000000000812c460                anim_0955__v176_l0
                0x000000000812c488                anim_0955__v177_l0
                0x000000000812c4b0                anim_0955__v178_l0
                0x000000000812c4d8                anim_0955__v179_l0
                0x000000000812c500                anim_0955__v180_l0
                0x000000000812c528                anim_0955__v181_l0
                0x000000000812c550                anim_0955__v182_l0
                0x000000000812c578                anim_0955__v183_l0
                0x000000000812c5a0                anim_0955__v184_l0
                0x000000000812c5c8                anim_0955__v185_l0
                0x000000000812c5f0                anim_0955__v186_l0
                0x000000000812c618                anim_0955__v187_l0
                0x000000000812c640                anim_0955__v188_l0
                0x000000000812c668                anim_0955__v189_l0
                0x000000000812c690                anim_0955__v190_l0
                0x000000000812c6b8                anim_0955__v191_l0
                0x000000000812c6e0                anim_0955__v192_l0
                0x000000000812c708                anim_0955__v193_l0
                0x000000000812c730                anim_0955__v194_l0
                0x000000000812c758                anim_0955__v195_l0
                0x000000000812c780                anim_0955__v196_l0
                0x000000000812c7a8                anim_0955__v197_l0
                0x000000000812c7d0                anim_0955__v198_l0
                0x000000000812c7f8                anim_0955__v199_l0
                0x000000000812c820                anim_0955__v200_l0
                0x000000000812c848                anim_0955__v201_l0
                0x000000000812c870                anim_0955__v202_l0
                0x000000000812c898                anim_0955__v203_l0
                0x000000000812c8c0                anim_0955__v204_l0
                0x000000000812c8e8                anim_0955__v205_l0
                0x000000000812c910                anim_0955__v206_l0
                0x000000000812c938                anim_0955__v207_l0
                0x000000000812c960                anim_0955__v208_l0
                0x000000000812c97c                anim_0955__v209_l0
                0x000000000812c9a4                anim_0955__v210_l0
                0x000000000812c9cc                anim_0955__v211_l0
                0x000000000812c9f4                anim_0955__v212_l0
                0x000000000812ca1c                anim_0955__v213_l0
                0x000000000812ca44                anim_0955__v214_l0
                0x000000000812ca6c                anim_0955__v215_l0
                0x000000000812ca94                anim_0955__v216_l0
                0x000000000812cabc                anim_0955__v217_l0
                0x000000000812cae4                anim_0955__v218_l0
                0x000000000812cb0c                anim_0955__v219_l0
                0x000000000812cb34                anim_0955__v220_l0
                0x000000000812cb5c                anim_0955__v221_l0
                0x000000000812cb84                anim_0955__v222_l0
                0x000000000812cbac                anim_0955__v223_l0
                0x000000000812cbd4                anim_0955__v224_l0
                0x000000000812cbfc                anim_0955__v225_l0
                0x000000000812cc24                anim_0955__v226_l0
                0x000000000812cc4c                anim_0955__v227_l0
                0x000000000812cc74                anim_0955__v228_l0
                0x000000000812cc9c                anim_0955__v229_l0
                0x000000000812ccc4                anim_0955__v230_l0
                0x000000000812ccec                anim_0955__v231_l0
                0x000000000812cd14                anim_0955__v232_l0
                0x000000000812cd3c                anim_0955__v233_l0
                0x000000000812cd64                anim_0955__v234_l0
                0x000000000812cd8c                anim_0955__v235_l0
                0x000000000812cdb4                anim_0955__v236_l0
                0x000000000812cddc                anim_0955__v237_l0
                0x000000000812ce04                anim_0955__v238_l0
                0x000000000812ce2c                anim_0955__v239_l0
                0x000000000812ce54                anim_0955__v240_l0
                0x000000000812ce7c                anim_0955__v241_l0
                0x000000000812ce98                anim_0955__v242_l0
                0x000000000812cec0                anim_0955__v243_l0
                0x000000000812cee8                anim_0955__v244_l0
                0x000000000812cf10                anim_0955__v245_l0
                0x000000000812cf38                anim_0955__v246_l0
                0x000000000812cf60                anim_0955__v247_l0
                0x000000000812cf88                anim_0955__v248_l0
                0x000000000812cfb0                anim_0955__v249_l0
                0x000000000812cfd8                anim_0955__v250_l0
                0x000000000812d000                anim_0955__v251_l0
                0x000000000812d028                anim_0955__v252_l0
                0x000000000812d050                anim_0955__v253_l0
                0x000000000812d078                anim_0955__v254_l0
                0x000000000812d0a0                anim_0955__v255_l0
                0x000000000812d0c8                anim_0955
                0x000000000812d4c8                anim_0956__v0_l0
                0x000000000812d4ec                anim_0956__v1_l0
                0x000000000812d510                anim_0956__v2_l0
                0x000000000812d534                anim_0956__v3_l0
                0x000000000812d558                anim_0956__v4_l0
                0x000000000812d57c                anim_0956__v5_l0
                0x000000000812d5a0                anim_0956__v6_l0
                0x000000000812d5c4                anim_0956__v7_l0
                0x000000000812d5e8                anim_0956__v8_l0
                0x000000000812d60c                anim_0956
                0x000000000812d630                anim_0957__v0_l0
                0x000000000812d654                anim_0957__v1_l0
                0x000000000812d678                anim_0957__v2_l0
                0x000000000812d69c                anim_0957__v3_l0
                0x000000000812d6c0                anim_0957__v4_l0
                0x000000000812d6e4                anim_0957__v5_l0
                0x000000000812d708                anim_0957
                0x000000000812d720                anim_0958__v0_l0
                0x000000000812d744                anim_0958
                0x000000000812d748                anim_0959__v0_l0
                0x000000000812d76c                anim_0959__v1_l0
                0x000000000812d790                anim_0959__v2_l0
                0x000000000812d7b4                anim_0959
                0x000000000812d7c0                anim_0960__v0_l0
                0x000000000812d7e4                anim_0960__v1_l0
                0x000000000812d808                anim_0960__v2_l0
                0x000000000812d82c                anim_0960
                0x000000000812d838                anim_0961__v0_l0
                0x000000000812d85c                anim_0961__v1_l0
                0x000000000812d880                anim_0961
                0x000000000812d888                anim_0962__v0_l0
                0x000000000812d8ec                anim_0962__v1_l0
                0x000000000812d950                anim_0962
                0x000000000812d958                anim_0963__v0_l0
                0x000000000812d980                anim_0963__v1_l0
                0x000000000812d9a8                anim_0963__v2_l0
                0x000000000812d9d0                anim_0963__v3_l0
                0x000000000812d9f8                anim_0963__v4_l0
                0x000000000812da20                anim_0963__v5_l0
                0x000000000812da48                anim_0963__v6_l0
                0x000000000812da70                anim_0963__v7_l0
                0x000000000812da98                anim_0963__v8_l0
                0x000000000812dac0                anim_0963__v9_l0
                0x000000000812dae8                anim_0963__v10_l0
                0x000000000812db10                anim_0963__v11_l0
                0x000000000812db38                anim_0963__v12_l0
                0x000000000812db50                anim_0963__v13_l0
                0x000000000812db68                anim_0963
                0x000000000812dba0                anim_0964__v0_l0
                0x000000000812dbb8                anim_0964__v1_l0
                0x000000000812dbd0                anim_0964
                0x000000000812dbd8                anim_0965__v0_l0
                0x000000000812dbfc                anim_0965__v1_l0
                0x000000000812dc20                anim_0965__v2_l0
                0x000000000812dc44                anim_0965
                0x000000000812dc50                anim_0966__v0_l0
                0x000000000812dc74                anim_0966
                0x000000000812dc78                anim_0967__v0_l0
                0x000000000812dc9c                anim_0967
                0x000000000812dca0                anim_0968__v0_l0
                0x000000000812dd90                anim_0968__v1_l0
                0x000000000812ddb4                anim_0968
                0x000000000812ddbc                anim_0969__v0_l0
                0x000000000812dde0                anim_0969
                0x000000000812dde4                anim_0970__v0_l0
                0x000000000812ded0                anim_0970
                0x000000000812ded4                anim_0971__v0_l0
                0x000000000812dfe8                anim_0971
                0x000000000812dfec                anim_0972__v0_l0
                0x000000000812e010                anim_0972
                0x000000000812e014                anim_0973__v0_l0
                0x000000000812e1cc                anim_0973
                0x000000000812e1d0                anim_0974__v0_l0
                0x000000000812e1f4                anim_0974
                0x000000000812e1f8                anim_0975__v0_l0
                0x000000000812e21c                anim_0975__v1_l0
                0x000000000812e240                anim_0975__v2_l0
                0x000000000812e264                anim_0975__v3_l0
                0x000000000812e288                anim_0975__v4_l0
                0x000000000812e2ac                anim_0975__v5_l0
                0x000000000812e2d0                anim_0975__v6_l0
                0x000000000812e2f4                anim_0975__v7_l0
                0x000000000812e318                anim_0975__v8_l0
                0x000000000812e33c                anim_0975
                0x000000000812e360                anim_0976__v0_l0
                0x000000000812e384                anim_0976__v1_l0
                0x000000000812e3a8                anim_0976__v2_l0
                0x000000000812e3cc                anim_0976__v3_l0
                0x000000000812e3f0                anim_0976__v4_l0
                0x000000000812e414                anim_0976__v5_l0
                0x000000000812e438                anim_0976__v6_l0
                0x000000000812e45c                anim_0976__v7_l0
                0x000000000812e480                anim_0976__v8_l0
                0x000000000812e4a4                anim_0976
                0x000000000812e4c8                anim_0977__v0_l0
                0x000000000812e4ec                anim_0977__v1_l0
                0x000000000812e510                anim_0977__v2_l0
                0x000000000812e534                anim_0977__v3_l0
                0x000000000812e558                anim_0977__v4_l0
                0x000000000812e57c                anim_0977__v5_l0
                0x000000000812e5a0                anim_0977__v6_l0
                0x000000000812e5c4                anim_0977__v7_l0
                0x000000000812e5e8                anim_0977__v8_l0
                0x000000000812e60c                anim_0977
                0x000000000812e630                anim_0978__v0_l0
                0x000000000812e654                anim_0978__v1_l0
                0x000000000812e678                anim_0978__v2_l0
                0x000000000812e69c                anim_0978__v3_l0
                0x000000000812e6c0                anim_0978__v4_l0
                0x000000000812e6e4                anim_0978__v5_l0
                0x000000000812e708                anim_0978__v6_l0
                0x000000000812e72c                anim_0978__v7_l0
                0x000000000812e750                anim_0978__v8_l0
                0x000000000812e774                anim_0978
                0x000000000812e798                anim_0979__v0_l0
                0x000000000812e7bc                anim_0979__v1_l0
                0x000000000812e7e0                anim_0979__v2_l0
                0x000000000812e804                anim_0979__v3_l0
                0x000000000812e828                anim_0979__v4_l0
                0x000000000812e84c                anim_0979__v5_l0
                0x000000000812e870                anim_0979__v6_l0
                0x000000000812e894                anim_0979__v7_l0
                0x000000000812e8b8                anim_0979__v8_l0
                0x000000000812e8dc                anim_0979
                0x000000000812e900                anim_0980__v0_l0
                0x000000000812e924                anim_0980__v1_l0
                0x000000000812e948                anim_0980__v2_l0
                0x000000000812e96c                anim_0980__v3_l0
                0x000000000812e990                anim_0980__v4_l0
                0x000000000812e9b4                anim_0980
                0x000000000812e9c8                anim_0981__v0_l0
                0x000000000812e9ec                anim_0981__v1_l0
                0x000000000812ea10                anim_0981__v2_l0
                0x000000000812ea34                anim_0981__v3_l0
                0x000000000812ea58                anim_0981__v4_l0
                0x000000000812ea7c                anim_0981
                0x000000000812ea90                anim_0982__v0_l0
                0x000000000812eab4                anim_0982__v1_l0
                0x000000000812ead8                anim_0982__v2_l0
                0x000000000812eafc                anim_0982__v3_l0
                0x000000000812eb20                anim_0982__v4_l0
                0x000000000812eb44                anim_0982
                0x000000000812eb58                anim_0983__v0_l0
                0x000000000812eb7c                anim_0983__v1_l0
                0x000000000812eba0                anim_0983__v2_l0
                0x000000000812ebc4                anim_0983__v3_l0
                0x000000000812ebe8                anim_0983__v4_l0
                0x000000000812ec0c                anim_0983
                0x000000000812ec20                anim_0984__v0_l0
                0x000000000812ec44                anim_0984__v1_l0
                0x000000000812ec68                anim_0984__v2_l0
                0x000000000812ec8c                anim_0984__v3_l0
                0x000000000812ecb0                anim_0984__v4_l0
                0x000000000812ecd4                anim_0984
                0x000000000812ece8                anim_0985__v0_l0
                0x000000000812ed0c                anim_0985__v1_l0
                0x000000000812ed30                anim_0985__v2_l0
                0x000000000812ed54                anim_0985__v3_l0
                0x000000000812ed78                anim_0985
                0x000000000812ed88                anim_0986__v0_l0
                0x000000000812edac                anim_0986__v1_l0
                0x000000000812edd0                anim_0986__v2_l0
                0x000000000812edf4                anim_0986__v3_l0
                0x000000000812ee18                anim_0986
                0x000000000812ee28                anim_0987__v0_l0
                0x000000000812ee4c                anim_0987__v1_l0
                0x000000000812ee70                anim_0987__v2_l0
                0x000000000812ee94                anim_0987__v3_l0
                0x000000000812eeb8                anim_0987
                0x000000000812eec8                anim_0988__v0_l0
                0x000000000812eeec                anim_0988__v1_l0
                0x000000000812ef10                anim_0988__v2_l0
                0x000000000812ef34                anim_0988__v3_l0
                0x000000000812ef58                anim_0988
                0x000000000812ef68                anim_0989__v0_l0
                0x000000000812ef8c                anim_0989__v1_l0
                0x000000000812efb0                anim_0989__v2_l0
                0x000000000812efd4                anim_0989__v3_l0
                0x000000000812eff8                anim_0989
                0x000000000812f008                anim_0990__v0_l0
                0x000000000812f02c                anim_0990__v1_l0
                0x000000000812f050                anim_0990__v2_l0
                0x000000000812f074                anim_0990
                0x000000000812f080                anim_0991__v0_l0
                0x000000000812f0a4                anim_0991__v1_l0
                0x000000000812f0c8                anim_0991__v2_l0
                0x000000000812f0ec                anim_0991
                0x000000000812f0f8                anim_0992__v0_l0
                0x000000000812f11c                anim_0992__v1_l0
                0x000000000812f140                anim_0992__v2_l0
                0x000000000812f164                anim_0992
                0x000000000812f170                anim_0993__v0_l0
                0x000000000812f194                anim_0993__v1_l0
                0x000000000812f1b8                anim_0993__v2_l0
                0x000000000812f1dc                anim_0993
                0x000000000812f1e8                anim_0994__v0_l0
                0x000000000812f20c                anim_0994__v1_l0
                0x000000000812f230                anim_0994__v2_l0
                0x000000000812f254                anim_0994
                0x000000000812f260                anim_0995__v0_l0
                0x000000000812f284                anim_0995__v1_l0
                0x000000000812f2a8                anim_0995
                0x000000000812f2b0                anim_0996__v0_l0
                0x000000000812f2d4                anim_0996
                0x000000000812f2d8                anim_0997__v0_l0
                0x000000000812f2fc                anim_0997
                0x000000000812f300                anim_0998__v0_l0
                0x000000000812f324                anim_0998
                0x000000000812f328                anim_0999__v0_l0
                0x000000000812f34c                anim_0999
                0x000000000812f350                anim_1000__v0_l0
                0x000000000812f374                anim_1000__v1_l0
                0x000000000812f398                anim_1000
                0x000000000812f3a0                anim_1001__v0_l0
                0x000000000812f3c4                anim_1001__v1_l0
                0x000000000812f3e8                anim_1001
                0x000000000812f3f0                anim_1002__v0_l0
                0x000000000812f414                anim_1002__v1_l0
                0x000000000812f438                anim_1002
                0x000000000812f440                anim_1003__v0_l0
                0x000000000812f464                anim_1003__v1_l0
                0x000000000812f488                anim_1003
                0x000000000812f490                anim_1004__v0_l0
                0x000000000812f4b4                anim_1004__v1_l0
                0x000000000812f4d8                anim_1004
                0x000000000812f4e0                anim_1005__v0_l0
                0x000000000812f504                anim_1005__v1_l0
                0x000000000812f528                anim_1005__v2_l0
                0x000000000812f54c                anim_1005__v3_l0
                0x000000000812f570                anim_1005__v4_l0
                0x000000000812f594                anim_1005
                0x000000000812f5a8                anim_1006__v0_l0
                0x000000000812f5cc                anim_1006__v1_l0
                0x000000000812f5f0                anim_1006__v2_l0
                0x000000000812f614                anim_1006__v3_l0
                0x000000000812f638                anim_1006__v4_l0
                0x000000000812f65c                anim_1006
                0x000000000812f670                anim_1007__v0_l0
                0x000000000812f694                anim_1007__v1_l0
                0x000000000812f6b8                anim_1007__v2_l0
                0x000000000812f6dc                anim_1007__v3_l0
                0x000000000812f700                anim_1007__v4_l0
                0x000000000812f724                anim_1007
                0x000000000812f738                anim_1008__v0_l0
                0x000000000812f75c                anim_1008__v1_l0
                0x000000000812f780                anim_1008__v2_l0
                0x000000000812f7a4                anim_1008__v3_l0
                0x000000000812f7c8                anim_1008__v4_l0
                0x000000000812f7ec                anim_1008
                0x000000000812f800                anim_1009__v0_l0
                0x000000000812f824                anim_1009__v1_l0
                0x000000000812f848                anim_1009__v2_l0
                0x000000000812f86c                anim_1009__v3_l0
                0x000000000812f890                anim_1009__v4_l0
                0x000000000812f8b4                anim_1009
                0x000000000812f8c8                anim_1010__v0_l0
                0x000000000812f8ec                anim_1010
                0x000000000812f8f0                anim_1011__v0_l0
                0x000000000812f914                anim_1011
                0x000000000812f918                anim_1012__v0_l0
                0x000000000812f93c                anim_1012
                0x000000000812f940                anim_1013__v0_l0
                0x000000000812f964                anim_1013
                0x000000000812f968                anim_1014__v0_l0
                0x000000000812f98c                anim_1014
                0x000000000812f990                anim_1015__v0_l0
                0x000000000812f9b4                anim_1015__v1_l0
                0x000000000812f9d8                anim_1015__v2_l0
                0x000000000812f9fc                anim_1015
                0x000000000812fa08                anim_1016__v0_l0
                0x000000000812fa2c                anim_1016
                0x000000000812fa30                anim_1017__v0_l0
                0x000000000812fa54                anim_1017
                0x000000000812fa58                anim_1018__v0_l0
                0x000000000812fa7c                anim_1018
                0x000000000812fa80                anim_1019__v0_l0
                0x000000000812faa4                anim_1019
                0x000000000812faa8                anim_1020__v0_l0
                0x000000000812facc                anim_1020__v1_l0
                0x000000000812faf0                anim_1020__v2_l0
                0x000000000812fb14                anim_1020
                0x000000000812fb20                anim_1021__v0_l0
                0x000000000812fb44                anim_1021__v1_l0
                0x000000000812fb68                anim_1021__v2_l0
                0x000000000812fb8c                anim_1021
                0x000000000812fb98                anim_1022__v0_l0
                0x000000000812fbbc                anim_1022__v1_l0
                0x000000000812fbe0                anim_1022__v2_l0
                0x000000000812fc04                anim_1022
                0x000000000812fc10                anim_1023__v0_l0
                0x000000000812fc34                anim_1023__v1_l0
                0x000000000812fc58                anim_1023__v2_l0
                0x000000000812fc7c                anim_1023
                0x000000000812fc88                anim_1024__v0_l0
                0x000000000812fcac                anim_1024__v1_l0
                0x000000000812fcd0                anim_1024__v2_l0
                0x000000000812fcf4                anim_1024
                0x000000000812fd00                anim_1025__v0_l0
                0x000000000812fd24                anim_1025__v1_l0
                0x000000000812fd48                anim_1025
                0x000000000812fd50                anim_1026__v0_l0
                0x000000000812fd74                anim_1026__v1_l0
                0x000000000812fd98                anim_1026
                0x000000000812fda0                anim_1027__v0_l0
                0x000000000812fdc4                anim_1027__v1_l0
                0x000000000812fde8                anim_1027
                0x000000000812fdf0                anim_1028__v0_l0
                0x000000000812fe14                anim_1028__v1_l0
                0x000000000812fe38                anim_1028
                0x000000000812fe40                anim_1029__v0_l0
                0x000000000812fe64                anim_1029__v1_l0
                0x000000000812fe88                anim_1029
                0x000000000812fe90                anim_1030__v0_l0
                0x000000000812feb4                anim_1030
                0x000000000812feb8                anim_1031__v0_l0
                0x000000000812fedc                anim_1031
                0x000000000812fee0                anim_1032__v0_l0
                0x000000000812ff04                anim_1032
                0x000000000812ff08                anim_1033__v0_l0
                0x000000000812ff2c                anim_1033
                0x000000000812ff30                anim_1034__v0_l0
                0x000000000812ff54                anim_1034__v1_l0
                0x000000000812ff78                anim_1034
                0x000000000812ff80                anim_1035__v0_l0
                0x000000000812ffa4                anim_1035__v1_l0
                0x000000000812ffc8                anim_1035
                0x000000000812ffd0                anim_1036__v0_l0
                0x000000000812fff4                anim_1036__v1_l0
                0x0000000008130018                anim_1036
                0x0000000008130020                anim_1037__v0_l0
                0x0000000008130044                anim_1037__v1_l0
                0x0000000008130068                anim_1037
                0x0000000008130070                anim_1038__v0_l0
                0x0000000008130094                anim_1038__v1_l0
                0x00000000081300b8                anim_1038
                0x00000000081300c0                anim_1039__v0_l0
                0x00000000081300e4                anim_1039
                0x00000000081300e8                anim_1040__v0_l0
                0x000000000813010c                anim_1040
                0x0000000008130110                anim_1041__v0_l0
                0x0000000008130134                anim_1041
                0x0000000008130138                anim_1042__v0_l0
                0x000000000813015c                anim_1042
                0x0000000008130160                anim_1043__v0_l0
                0x0000000008130184                anim_1043
                0x0000000008130188                anim_1044__v0_l0
                0x00000000081301ac                anim_1044
                0x00000000081301b0                anim_1045__v0_l0
                0x00000000081301e0                anim_1045
                0x00000000081301e4                anim_1046__v0_l0
                0x0000000008130208                anim_1046
                0x000000000813020c                anim_1047__v0_l0
                0x0000000008130230                anim_1047__v1_l0
                0x0000000008130254                anim_1047__v2_l0
                0x0000000008130278                anim_1047__v3_l0
                0x000000000813029c                anim_1047__v4_l0
                0x00000000081302c0                anim_1047__v5_l0
                0x00000000081302e4                anim_1047__v6_l0
                0x0000000008130308                anim_1047__v7_l0
                0x000000000813032c                anim_1047__v8_l0
                0x0000000008130350                anim_1047__v9_l0
                0x0000000008130374                anim_1047__v10_l0
                0x0000000008130398                anim_1047__v11_l0
                0x00000000081303bc                anim_1047__v12_l0
                0x00000000081303e0                anim_1047__v13_l0
                0x0000000008130404                anim_1047__v14_l0
                0x0000000008130428                anim_1047__v15_l0
                0x000000000813044c                anim_1047__v16_l0
                0x0000000008130470                anim_1047
                0x00000000081304b4                anim_1048__v0_l0
                0x00000000081304d8                anim_1048__v1_l0
                0x00000000081304fc                anim_1048__v2_l0
                0x0000000008130520                anim_1048__v3_l0
                0x0000000008130544                anim_1048__v4_l0
                0x0000000008130568                anim_1048__v5_l0
                0x000000000813058c                anim_1048__v6_l0
                0x00000000081305b0                anim_1048__v7_l0
                0x00000000081305d4                anim_1048__v8_l0
                0x00000000081305f8                anim_1048__v9_l0
                0x000000000813061c                anim_1048
                0x0000000008130644                anim_1049__v0_l0
                0x0000000008130668                anim_1049__v1_l0
                0x000000000813068c                anim_1049__v2_l0
                0x00000000081306b0                anim_1049__v3_l0
                0x00000000081306d4                anim_1049__v4_l0
                0x00000000081306f8                anim_1049__v5_l0
                0x000000000813071c                anim_1049__v6_l0
                0x0000000008130740                anim_1049__v7_l0
                0x0000000008130764                anim_1049__v8_l0
                0x0000000008130788                anim_1049
                0x00000000081307ac                anim_1050__v0_l0
                0x0000000008130810                anim_1050__v1_l0
                0x0000000008130874                anim_1050
                0x000000000813087c                anim_1051__v0_l0
                0x00000000081308a0                anim_1051__v1_l0
                0x00000000081308c4                anim_1051__v2_l0
                0x00000000081308e8                anim_1051__v3_l0
                0x000000000813090c                anim_1051__v4_l0
                0x0000000008130930                anim_1051__v5_l0
                0x0000000008130948                anim_1051
                0x0000000008130960                anim_1052__v0_l0
                0x0000000008130984                anim_1052__v1_l0
                0x00000000081309a8                anim_1052__v2_l0
                0x00000000081309cc                anim_1052__v3_l0
                0x00000000081309f0                anim_1052__v4_l0
                0x0000000008130a14                anim_1052
                0x0000000008130a28                anim_1053__v0_l0
                0x0000000008130a4c                anim_1053__v1_l0
                0x0000000008130a70                anim_1053__v2_l0
                0x0000000008130a94                anim_1053__v3_l0
                0x0000000008130ab8                anim_1053__v4_l0
                0x0000000008130adc                anim_1053
                0x0000000008130af0                anim_1054__v0_l0
                0x0000000008130b14                anim_1054__v1_l0
                0x0000000008130b38                anim_1054__v2_l0
                0x0000000008130b5c                anim_1054__v3_l0
                0x0000000008130b80                anim_1054__v4_l0
                0x0000000008130ba4                anim_1054
                0x0000000008130bb8                anim_1055__v0_l0
                0x0000000008130bdc                anim_1055__v1_l0
                0x0000000008130c00                anim_1055__v2_l0
                0x0000000008130c24                anim_1055__v3_l0
                0x0000000008130c48                anim_1055__v4_l0
                0x0000000008130c6c                anim_1055
                0x0000000008130c80                anim_1056__v0_l0
                0x0000000008130ca4                anim_1056__v1_l0
                0x0000000008130cc8                anim_1056__v2_l0
                0x0000000008130cec                anim_1056__v3_l0
                0x0000000008130d10                anim_1056__v4_l0
                0x0000000008130d34                anim_1056
                0x0000000008130d48                anim_1057__v0_l0
                0x0000000008130d6c                anim_1057__v1_l0
                0x0000000008130d90                anim_1057__v2_l0
                0x0000000008130db4                anim_1057__v3_l0
                0x0000000008130dd8                anim_1057__v4_l0
                0x0000000008130dfc                anim_1057__v5_l0
                0x0000000008130e20                anim_1057
                0x0000000008130e38                anim_1058__v0_l0
                0x0000000008130e5c                anim_1058__v1_l0
                0x0000000008130e80                anim_1058__v2_l0
                0x0000000008130ea4                anim_1058__v3_l0
                0x0000000008130ec8                anim_1058__v4_l0
                0x0000000008130eec                anim_1058
                0x0000000008130f00                anim_1059__v0_l0
                0x0000000008130f24                anim_1059__v1_l0
                0x0000000008130f48                anim_1059__v2_l0
                0x0000000008130f6c                anim_1059
                0x0000000008130f78                anim_1060__v0_l0
                0x0000000008130f9c                anim_1060__v1_l0
                0x0000000008130fc0                anim_1060__v2_l0
                0x0000000008130fe4                anim_1060
                0x0000000008130ff0                anim_1061__v0_l0
                0x0000000008131014                anim_1061__v1_l0
                0x0000000008131038                anim_1061__v2_l0
                0x000000000813105c                anim_1061
                0x0000000008131068                anim_1062__v0_l0
                0x000000000813108c                anim_1062__v1_l0
                0x00000000081310b0                anim_1062__v2_l0
                0x00000000081310d4                anim_1062
                0x00000000081310e0                anim_1063__v0_l0
                0x0000000008131104                anim_1063__v1_l0
                0x0000000008131128                anim_1063__v2_l0
                0x000000000813114c                anim_1063__v3_l0
                0x0000000008131170                anim_1063__v4_l0
                0x0000000008131194                anim_1063__v5_l0
                0x00000000081311b8                anim_1063__v6_l0
                0x00000000081311dc                anim_1063__v7_l0
                0x0000000008131200                anim_1063__v8_l0
                0x0000000008131224                anim_1063
                0x0000000008131248                anim_1064__v0_l0
                0x000000000813126c                anim_1064__v1_l0
                0x0000000008131290                anim_1064__v2_l0
                0x00000000081312b4                anim_1064__v3_l0
                0x00000000081312d8                anim_1064__v4_l0
                0x00000000081312fc                anim_1064__v5_l0
                0x0000000008131320                anim_1064__v6_l0
                0x0000000008131344                anim_1064
                0x0000000008131360                anim_1065__v0_l0
                0x0000000008131384                anim_1065__v1_l0
                0x00000000081313a8                anim_1065__v2_l0
                0x00000000081313cc                anim_1065__v3_l0
                0x00000000081313f0                anim_1065__v4_l0
                0x0000000008131414                anim_1065__v5_l0
                0x0000000008131438                anim_1065__v6_l0
                0x000000000813145c                anim_1065
                0x0000000008131478                anim_1066__v0_l0
                0x000000000813149c                anim_1066
                0x00000000081314a0                anim_1067__v0_l0
                0x00000000081314c4                anim_1067
                0x00000000081314c8                anim_1068__v0_l0
                0x00000000081314ec                anim_1068
                0x00000000081314f0                anim_1069__v0_l0
                0x0000000008131514                anim_1069
                0x0000000008131518                anim_1070__v0_l0
                0x000000000813153c                anim_1070
                0x0000000008131540                anim_1071__v0_l0
                0x0000000008131564                anim_1071
                0x0000000008131568                anim_1072__v0_l0
                0x000000000813158c                anim_1072__v1_l0
                0x00000000081315b0                anim_1072
                0x00000000081315b8                anim_1073__v0_l0
                0x00000000081315dc                anim_1073__v1_l0
                0x0000000008131600                anim_1073__v2_l0
                0x0000000008131624                anim_1073__v3_l0
                0x0000000008131648                anim_1073__v4_l0
                0x000000000813166c                anim_1073
                0x0000000008131680                anim_1074__v0_l0
                0x00000000081316a4                anim_1074__v1_l0
                0x00000000081316c8                anim_1074__v2_l0
                0x00000000081316ec                anim_1074__v3_l0
                0x0000000008131710                anim_1074__v4_l0
                0x0000000008131734                anim_1074__v5_l0
                0x0000000008131758                anim_1074__v6_l0
                0x0000000008131780                anim_1074__v7_l0
                0x00000000081317a8                anim_1074__v8_l0
                0x00000000081317d0                anim_1074__v9_l0
                0x00000000081317f8                anim_1074__v10_l0
                0x0000000008131820                anim_1074__v11_l0
                0x0000000008131844                anim_1074__v12_l0
                0x0000000008131868                anim_1074__v13_l0
                0x0000000008131890                anim_1074__v14_l0
                0x00000000081318b8                anim_1074__v15_l0
                0x00000000081318e0                anim_1074__v16_l0
                0x0000000008131908                anim_1074__v17_l0
                0x000000000813192c                anim_1074__v18_l0
                0x0000000008131950                anim_1074
                0x000000000813199c                anim_1075__v0_l0
                0x00000000081319c0                anim_1075__v1_l0
                0x00000000081319e4                anim_1075
                0x00000000081319ec                anim_1076__v0_l0
                0x0000000008131a10                anim_1076__v1_l0
                0x0000000008131a34                anim_1076__v2_l0
                0x0000000008131a58                anim_1076__v3_l0
                0x0000000008131a7c                anim_1076__v4_l0
                0x0000000008131aa0                anim_1076__v5_l0
                0x0000000008131ac4                anim_1076__v6_l0
                0x0000000008131ae8                anim_1076__v7_l0
                0x0000000008131b0c                anim_1076__v8_l0
                0x0000000008131b30                anim_1076__v9_l0
                0x0000000008131b94                anim_1076__v10_l0
                0x0000000008131bac                anim_1076
                0x0000000008131bd8                anim_1077__v0_l0
                0x0000000008131bfc                anim_1077__v1_l0
                0x0000000008131c20                anim_1077__v2_l0
                0x0000000008131c44                anim_1077__v3_l0
                0x0000000008131c68                anim_1077__v4_l0
                0x0000000008131c8c                anim_1077__v5_l0
                0x0000000008131cb0                anim_1077__v6_l0
                0x0000000008131cd4                anim_1077__v7_l0
                0x0000000008131cf8                anim_1077
                0x0000000008131d18                anim_1078__v0_l0
                0x0000000008131d40                anim_1078__v1_l0
                0x0000000008131d68                anim_1078__v2_l0
                0x0000000008131d90                anim_1078__v3_l0
                0x0000000008131db8                anim_1078__v4_l0
                0x0000000008131de0                anim_1078__v5_l0
                0x0000000008131e08                anim_1078__v6_l0
                0x0000000008131e30                anim_1078__v7_l0
                0x0000000008131e58                anim_1078__v8_l0
                0x0000000008131e80                anim_1078__v9_l0
                0x0000000008131ea8                anim_1078
                0x0000000008131ed0                anim_1079__v0_l0
                0x0000000008131ef4                anim_1079__v1_l0
                0x0000000008131f18                anim_1079__v2_l0
                0x0000000008131f3c                anim_1079__v3_l0
                0x0000000008131f60                anim_1079__v4_l0
                0x0000000008131f84                anim_1079__v5_l0
                0x0000000008131fa8                anim_1079__v6_l0
                0x0000000008131fcc                anim_1079__v7_l0
                0x0000000008131ff0                anim_1079__v8_l0
                0x0000000008132014                anim_1079__v9_l0
                0x0000000008132038                anim_1079
                0x0000000008132060                anim_1080__v0_l0
                0x0000000008132084                anim_1080__v1_l0
                0x00000000081320a8                anim_1080__v2_l0
                0x00000000081320cc                anim_1080__v3_l0
                0x00000000081320f0                anim_1080__v4_l0
                0x0000000008132114                anim_1080__v5_l0
                0x0000000008132138                anim_1080__v6_l0
                0x000000000813215c                anim_1080__v7_l0
                0x0000000008132180                anim_1080__v8_l0
                0x00000000081321a4                anim_1080__v9_l0
                0x00000000081321c8                anim_1080
                0x00000000081321f0                anim_1081__v0_l0
                0x0000000008132214                anim_1081__v1_l0
                0x0000000008132238                anim_1081__v2_l0
                0x000000000813225c                anim_1081__v3_l0
                0x0000000008132280                anim_1081__v4_l0
                0x00000000081322a4                anim_1081__v5_l0
                0x00000000081322c8                anim_1081__v6_l0
                0x00000000081322ec                anim_1081__v7_l0
                0x0000000008132310                anim_1081__v8_l0
                0x0000000008132334                anim_1081__v9_l0
                0x0000000008132358                anim_1081
                0x0000000008132380                anim_1082__v0_l0
                0x00000000081323a4                anim_1082__v1_l0
                0x00000000081323c8                anim_1082__v2_l0
                0x00000000081323ec                anim_1082__v3_l0
                0x0000000008132410                anim_1082__v4_l0
                0x0000000008132434                anim_1082__v5_l0
                0x0000000008132458                anim_1082__v6_l0
                0x000000000813247c                anim_1082__v7_l0
                0x00000000081324a0                anim_1082__v8_l0
                0x00000000081324c8                anim_1082__v9_l0
                0x00000000081324ec                anim_1082
                0x0000000008132514                anim_1083__v0_l0
                0x0000000008132538                anim_1083__v1_l0
                0x000000000813255c                anim_1083__v2_l0
                0x0000000008132580                anim_1083__v3_l0
                0x00000000081325a4                anim_1083__v4_l0
                0x00000000081325c8                anim_1083__v5_l0
                0x00000000081325ec                anim_1083__v6_l0
                0x0000000008132610                anim_1083__v7_l0
                0x0000000008132634                anim_1083__v8_l0
                0x0000000008132658                anim_1083__v9_l0
                0x000000000813267c                anim_1083
                0x00000000081326a4                anim_1084__v0_l0
                0x00000000081326c8                anim_1084__v1_l0
                0x00000000081326ec                anim_1084__v2_l0
                0x0000000008132710                anim_1084__v3_l0
                0x0000000008132734                anim_1084
                0x0000000008132744                anim_1085__v0_l0
                0x0000000008132768                anim_1085__v1_l0
                0x000000000813278c                anim_1085__v2_l0
                0x00000000081327b0                anim_1085__v3_l0
                0x00000000081327d4                anim_1085
                0x00000000081327e4                anim_1086__v0_l0
                0x0000000008132808                anim_1086__v1_l0
                0x000000000813282c                anim_1086__v2_l0
                0x0000000008132850                anim_1086__v3_l0
                0x0000000008132874                anim_1086
                0x0000000008132884                anim_1087__v0_l0
                0x00000000081328a8                anim_1087__v1_l0
                0x00000000081328cc                anim_1087__v2_l0
                0x00000000081328f0                anim_1087__v3_l0
                0x0000000008132914                anim_1087
                0x0000000008132924                anim_1088__v0_l0
                0x0000000008132948                anim_1088__v1_l0
                0x000000000813296c                anim_1088__v2_l0
                0x0000000008132990                anim_1088__v3_l0
                0x00000000081329b4                anim_1088
                0x00000000081329c4                anim_1089__v0_l0
                0x00000000081329e8                anim_1089__v1_l0
                0x0000000008132a0c                anim_1089__v2_l0
                0x0000000008132a30                anim_1089__v3_l0
                0x0000000008132a54                anim_1089__v4_l0
                0x0000000008132a78                anim_1089__v5_l0
                0x0000000008132a9c                anim_1089__v6_l0
                0x0000000008132ac0                anim_1089
                0x0000000008132adc                anim_1090__v0_l0
                0x0000000008132b00                anim_1090__v1_l0
                0x0000000008132b24                anim_1090__v2_l0
                0x0000000008132b48                anim_1090
                0x0000000008132b54                anim_1091__v0_l0
                0x0000000008132b78                anim_1091__v1_l0
                0x0000000008132b9c                anim_1091__v2_l0
                0x0000000008132bc0                anim_1091
                0x0000000008132bcc                anim_1092__v0_l0
                0x0000000008132bf0                anim_1092__v1_l0
                0x0000000008132c14                anim_1092__v2_l0
                0x0000000008132c38                anim_1092
                0x0000000008132c44                anim_1093__v0_l0
                0x0000000008132c68                anim_1093__v1_l0
                0x0000000008132c8c                anim_1093__v2_l0
                0x0000000008132cb0                anim_1093
                0x0000000008132cbc                anim_1094__v0_l0
                0x0000000008132ce0                anim_1094__v1_l0
                0x0000000008132d04                anim_1094__v2_l0
                0x0000000008132d28                anim_1094__v3_l0
                0x0000000008132d4c                anim_1094
                0x0000000008132d5c                anim_1095__v0_l0
                0x0000000008132d80                anim_1095__v1_l0
                0x0000000008132da4                anim_1095__v2_l0
                0x0000000008132dc8                anim_1095__v3_l0
                0x0000000008132dec                anim_1095
                0x0000000008132dfc                anim_1096__v0_l0
                0x0000000008132e20                anim_1096__v1_l0
                0x0000000008132e44                anim_1096__v2_l0
                0x0000000008132e68                anim_1096__v3_l0
                0x0000000008132e8c                anim_1096
                0x0000000008132e9c                anim_1097__v0_l0
                0x0000000008132ec0                anim_1097__v1_l0
                0x0000000008132ee4                anim_1097__v2_l0
                0x0000000008132f08                anim_1097__v3_l0
                0x0000000008132f2c                anim_1097
                0x0000000008132f3c                anim_1098__v0_l0
                0x0000000008132f60                anim_1098__v1_l0
                0x0000000008132f84                anim_1098__v2_l0
                0x0000000008132fa8                anim_1098__v3_l0
                0x0000000008132fcc                anim_1098
                0x0000000008132fdc                anim_1099__v0_l0
                0x0000000008133000                anim_1099__v1_l0
                0x0000000008133024                anim_1099__v2_l0
                0x0000000008133048                anim_1099__v3_l0
                0x000000000813306c                anim_1099
                0x000000000813307c                anim_1100__v0_l0
                0x00000000081330a0                anim_1100__v1_l0
                0x00000000081330c4                anim_1100__v2_l0
                0x00000000081330e8                anim_1100
                0x00000000081330f4                anim_1101__v0_l0
                0x0000000008133118                anim_1101__v1_l0
                0x000000000813313c                anim_1101__v2_l0
                0x0000000008133160                anim_1101__v3_l0
                0x0000000008133184                anim_1101__v4_l0
                0x00000000081331a8                anim_1101__v5_l0
                0x00000000081331cc                anim_1101__v6_l0
                0x00000000081331f0                anim_1101
                0x000000000813320c                anim_1102__v0_l0
                0x0000000008133230                anim_1102__v1_l0
                0x0000000008133254                anim_1102__v2_l0
                0x0000000008133278                anim_1102__v3_l0
                0x000000000813329c                anim_1102__v4_l0
                0x00000000081332c0                anim_1102__v5_l0
                0x00000000081332e4                anim_1102__v6_l0
                0x0000000008133308                anim_1102
                0x0000000008133324                anim_1103__v0_l0
                0x0000000008133438                anim_1103__v1_l0
                0x00000000081334c4                anim_1103
                0x00000000081334cc                anim_1104__v0_l0
                0x00000000081334f0                anim_1104__v1_l0
                0x0000000008133514                anim_1104__v2_l0
                0x0000000008133538                anim_1104__v3_l0
                0x0000000008133598                anim_1104__v4_l0
                0x00000000081335bc                anim_1104__v5_l0
                0x000000000813361c                anim_1104__v6_l0
                0x0000000008133640                anim_1104
                0x000000000813365c                anim_1105__v0_l0
                0x0000000008133680                anim_1105__v1_l0
                0x00000000081336a4                anim_1105__v2_l0
                0x00000000081336c8                anim_1105__v3_l0
                0x00000000081336ec                anim_1105__v4_l0
                0x0000000008133710                anim_1105__v5_l0
                0x0000000008133734                anim_1105__v6_l0
                0x0000000008133758                anim_1105__v7_l0
                0x000000000813377c                anim_1105__v8_l0
                0x00000000081337a0                anim_1105__v9_l0
                0x00000000081337c4                anim_1105
                0x00000000081337ec                anim_1106__v0_l0
                0x0000000008133810                anim_1106
                0x0000000008133814                anim_1107__v0_l0
                0x0000000008133838                anim_1107
                0x000000000813383c                anim_1108__v0_l0
                0x0000000008133860                anim_1108
                0x0000000008133864                anim_1109__v0_l0
                0x0000000008133888                anim_1109
                0x000000000813388c                anim_1110__v0_l0
                0x00000000081338b0                anim_1110
                0x00000000081338b4                anim_1111__v0_l0
                0x00000000081338d8                anim_1111
                0x00000000081338dc                anim_1112__v0_l0
                0x0000000008133900                anim_1112__v1_l0
                0x0000000008133924                anim_1112__v2_l0
                0x0000000008133948                anim_1112__v3_l0
                0x000000000813396c                anim_1112__v4_l0
                0x0000000008133990                anim_1112
                0x00000000081339a4                anim_1113__v0_l0
                0x00000000081339c8                anim_1113__v1_l0
                0x00000000081339ec                anim_1113__v2_l0
                0x0000000008133a10                anim_1113__v3_l0
                0x0000000008133a34                anim_1113__v4_l0
                0x0000000008133a58                anim_1113
                0x0000000008133a6c                anim_1114__v0_l0
                0x0000000008133a90                anim_1114__v1_l0
                0x0000000008133ab4                anim_1114__v2_l0
                0x0000000008133ad8                anim_1114__v3_l0
                0x0000000008133afc                anim_1114__v4_l0
                0x0000000008133b20                anim_1114
                0x0000000008133b34                anim_1115__v0_l0
                0x0000000008133b58                anim_1115__v1_l0
                0x0000000008133e64                anim_1115
                0x0000000008133e6c                anim_1116__v0_l0
                0x0000000008133e90                anim_1116__v1_l0
                0x0000000008133eb4                anim_1116__v2_l0
                0x0000000008133ed8                anim_1116__v3_l0
                0x0000000008133efc                anim_1116__v4_l0
                0x0000000008133f20                anim_1116__v5_l0
                0x0000000008133f44                anim_1116__v6_l0
                0x0000000008133f68                anim_1116__v7_l0
                0x0000000008133f8c                anim_1116__v8_l0
                0x0000000008133fb0                anim_1116
                0x0000000008133fd4                anim_1117__v0_l0
                0x0000000008133ff8                anim_1117__v1_l0
                0x000000000813401c                anim_1117__v2_l0
                0x0000000008134040                anim_1117__v3_l0
                0x0000000008134064                anim_1117__v4_l0
                0x0000000008134088                anim_1117__v5_l0
                0x00000000081340ac                anim_1117__v6_l0
                0x00000000081340d0                anim_1117__v7_l0
                0x00000000081340f4                anim_1117__v8_l0
                0x0000000008134118                anim_1117__v9_l0
                0x000000000813413c                anim_1117__v10_l0
                0x0000000008134164                anim_1117__v11_l0
                0x0000000008134188                anim_1117__v12_l0
                0x00000000081341ac                anim_1117__v13_l0
                0x00000000081341d0                anim_1117__v14_l0
                0x00000000081341f4                anim_1117__v15_l0
                0x0000000008134218                anim_1117__v16_l0
                0x000000000813423c                anim_1117__v17_l0
                0x0000000008134260                anim_1117__v18_l0
                0x0000000008134284                anim_1117__v19_l0
                0x00000000081342ac                anim_1117__v20_l0
                0x00000000081342d0                anim_1117__v21_l0
                0x00000000081342f4                anim_1117__v22_l0
                0x0000000008134318                anim_1117__v23_l0
                0x000000000813433c                anim_1117__v24_l0
                0x0000000008134360                anim_1117__v25_l0
                0x0000000008134384                anim_1117__v26_l0
                0x00000000081343a8                anim_1117__v27_l0
                0x00000000081343cc                anim_1117__v28_l0
                0x00000000081343f0                anim_1117__v29_l0
                0x0000000008134408                anim_1117__v30_l0
                0x0000000008134420                anim_1117__v31_l0
                0x0000000008134438                anim_1117__v32_l0
                0x000000000813445c                anim_1117__v33_l0
                0x0000000008134480                anim_1117__v34_l0
                0x00000000081344a4                anim_1117__v35_l0
                0x00000000081344c8                anim_1117__v36_l0
                0x00000000081344ec                anim_1117__v37_l0
                0x0000000008134510                anim_1117__v38_l0
                0x0000000008134534                anim_1117__v39_l0
                0x0000000008134558                anim_1117
                0x00000000081345f8                anim_1118__v0_l0
                0x000000000813461c                anim_1118__v1_l0
                0x0000000008134640                anim_1118__v2_l0
                0x0000000008134664                anim_1118__v3_l0
                0x0000000008134688                anim_1118__v4_l0
                0x00000000081346ac                anim_1118__v5_l0
                0x00000000081346d0                anim_1118__v6_l0
                0x00000000081346f4                anim_1118__v7_l0
                0x0000000008134718                anim_1118__v8_l0
                0x000000000813473c                anim_1118__v9_l0
                0x0000000008134760                anim_1118
                0x0000000008134788                anim_1119__v0_l0
                0x00000000081347a0                anim_1119__v1_l0
                0x00000000081347c4                anim_1119__v2_l0
                0x00000000081347e8                anim_1119__v3_l0
                0x000000000813480c                anim_1119__v4_l0
                0x0000000008134830                anim_1119__v5_l0
                0x0000000008134854                anim_1119__v6_l0
                0x0000000008134878                anim_1119__v7_l0
                0x000000000813489c                anim_1119__v8_l0
                0x00000000081348c0                anim_1119__v9_l0
                0x00000000081348e4                anim_1119__v10_l0
                0x0000000008134908                anim_1119__v11_l0
                0x000000000813492c                anim_1119__v12_l0
                0x0000000008134950                anim_1119__v13_l0
                0x0000000008134974                anim_1119__v14_l0
                0x0000000008134998                anim_1119__v15_l0
                0x00000000081349bc                anim_1119__v16_l0
                0x00000000081349e0                anim_1119__v17_l0
                0x0000000008134a04                anim_1119__v18_l0
                0x0000000008134a28                anim_1119__v19_l0
                0x0000000008134a4c                anim_1119__v20_l0
                0x0000000008134a70                anim_1119__v21_l0
                0x0000000008134a94                anim_1119__v22_l0
                0x0000000008134ab8                anim_1119__v23_l0
                0x0000000008134adc                anim_1119__v24_l0
                0x0000000008134b00                anim_1119__v25_l0
                0x0000000008134b24                anim_1119__v26_l0
                0x0000000008134b48                anim_1119__v27_l0
                0x0000000008134b6c                anim_1119__v28_l0
                0x0000000008134b90                anim_1119__v29_l0
                0x0000000008134bb4                anim_1119__v30_l0
                0x0000000008134bd8                anim_1119__v31_l0
                0x0000000008134bfc                anim_1119__v32_l0
                0x0000000008134c20                anim_1119__v33_l0
                0x0000000008134c44                anim_1119__v34_l0
                0x0000000008134c68                anim_1119__v35_l0
                0x0000000008134c8c                anim_1119__v36_l0
                0x0000000008134cbc                anim_1119__v37_l0
                0x0000000008134ce0                anim_1119__v38_l0
                0x0000000008134d04                anim_1119__v39_l0
                0x0000000008134d28                anim_1119__v40_l0
                0x0000000008134d4c                anim_1119__v41_l0
                0x0000000008134d70                anim_1119__v42_l0
                0x0000000008134d94                anim_1119__v43_l0
                0x0000000008134db8                anim_1119__v44_l0
                0x0000000008134ddc                anim_1119__v45_l0
                0x0000000008134e00                anim_1119__v46_l0
                0x0000000008134e24                anim_1119__v47_l0
                0x0000000008134e48                anim_1119__v48_l0
                0x0000000008134e6c                anim_1119__v49_l0
                0x0000000008134e90                anim_1119__v50_l0
                0x0000000008134eb4                anim_1119__v51_l0
                0x0000000008134ed8                anim_1119__v52_l0
                0x0000000008134efc                anim_1119__v53_l0
                0x0000000008134f20                anim_1119__v54_l0
                0x0000000008134f44                anim_1119__v55_l0
                0x0000000008134f68                anim_1119__v56_l0
                0x0000000008134f8c                anim_1119__v57_l0
                0x0000000008134fb0                anim_1119__v58_l0
                0x0000000008134fd4                anim_1119__v59_l0
                0x0000000008134ff8                anim_1119__v60_l0
                0x000000000813501c                anim_1119__v61_l0
                0x0000000008135038                anim_1119__v62_l0
                0x000000000813505c                anim_1119__v63_l0
                0x0000000008135080                anim_1119__v64_l0
                0x00000000081350a4                anim_1119__v65_l0
                0x00000000081350c8                anim_1119__v66_l0
                0x00000000081350ec                anim_1119__v67_l0
                0x0000000008135110                anim_1119__v68_l0
                0x0000000008135134                anim_1119__v69_l0
                0x0000000008135158                anim_1119__v70_l0
                0x000000000813517c                anim_1119__v71_l0
                0x00000000081351a0                anim_1119__v72_l0
                0x00000000081351c4                anim_1119__v73_l0
                0x00000000081351e8                anim_1119__v74_l0
                0x000000000813520c                anim_1119__v75_l0
                0x000000000813523c                anim_1119__v76_l0
                0x0000000008135260                anim_1119__v77_l0
                0x0000000008135284                anim_1119__v78_l0
                0x00000000081352a8                anim_1119__v79_l0
                0x00000000081352cc                anim_1119__v80_l0
                0x00000000081352f0                anim_1119__v81_l0
                0x0000000008135314                anim_1119__v82_l0
                0x0000000008135338                anim_1119__v83_l0
                0x000000000813535c                anim_1119__v84_l0
                0x0000000008135380                anim_1119__v85_l0
                0x00000000081353a4                anim_1119__v86_l0
                0x00000000081353c8                anim_1119__v87_l0
                0x00000000081353ec                anim_1119__v88_l0
                0x0000000008135410                anim_1119__v89_l0
                0x0000000008135434                anim_1119__v90_l0
                0x0000000008135458                anim_1119__v91_l0
                0x000000000813547c                anim_1119__v92_l0
                0x00000000081354a0                anim_1119__v93_l0
                0x00000000081354c4                anim_1119__v94_l0
                0x00000000081354e8                anim_1119
                0x0000000008135664                anim_1120__v0_l0
                0x0000000008135688                anim_1120
                0x000000000813568c                anim_1121__v0_l0
                0x00000000081356b0                anim_1121__v1_l0
                0x00000000081356d4                anim_1121__v2_l0
                0x00000000081356f8                anim_1121__v3_l0
                0x000000000813571c                anim_1121__v4_l0
                0x0000000008135740                anim_1121
                0x0000000008135754                anim_1122__v0_l0
                0x0000000008135778                anim_1122__v1_l0
                0x000000000813579c                anim_1122
                0x00000000081357a4                anim_1123__v0_l0
                0x00000000081357c8                anim_1123__v1_l0
                0x00000000081357ec                anim_1123__v2_l0
                0x0000000008135810                anim_1123__v3_l0
                0x0000000008135834                anim_1123__v4_l0
                0x0000000008135858                anim_1123__v5_l0
                0x000000000813587c                anim_1123__v6_l0
                0x00000000081358a0                anim_1123__v7_l0
                0x00000000081358c4                anim_1123__v8_l0
                0x00000000081358e8                anim_1123__v9_l0
                0x000000000813590c                anim_1123__v10_l0
                0x0000000008135930                anim_1123
                0x000000000813595c                anim_1124__v0_l0
                0x0000000008135980                anim_1124__v1_l0
                0x00000000081359a4                anim_1124__v2_l0
                0x00000000081359c8                anim_1124
                0x00000000081359d4                anim_1125__v0_l0
                0x00000000081359f8                anim_1125__v1_l0
                0x0000000008135a28                anim_1125__v2_l0
                0x0000000008135a4c                anim_1125__v3_l0
                0x0000000008135a70                anim_1125__v4_l0
                0x0000000008135a94                anim_1125
                0x0000000008135aa8                anim_1126__v0_l0
                0x0000000008135acc                anim_1126
                0x0000000008135ad0                anim_1127__v0_l0
                0x0000000008135af4                anim_1127__v1_l0
                0x0000000008135b18                anim_1127__v2_l0
                0x0000000008135b3c                anim_1127__v3_l0
                0x0000000008135b60                anim_1127__v4_l0
                0x0000000008135b84                anim_1127__v5_l0
                0x0000000008135ba8                anim_1127__v6_l0
                0x0000000008135bcc                anim_1127__v7_l0
                0x0000000008135bf0                anim_1127__v8_l0
                0x0000000008135cf8                anim_1127
                0x0000000008135d1c                anim_1128__v0_l0
                0x0000000008135da8                anim_1128
                0x0000000008135dac                anim_1129__v0_l0
                0x0000000008135dd0                anim_1129__v1_l0
                0x0000000008135df4                anim_1129__v2_l0
                0x0000000008135e18                anim_1129
                0x0000000008135e24                anim_1130__v0_l0
                0x0000000008135e48                anim_1130__v1_l0
                0x0000000008135e6c                anim_1130
                0x0000000008135e74                anim_1131__v0_l0
                0x0000000008135e98                anim_1131
                0x0000000008135e9c                anim_1132__v0_l0
                0x0000000008135ec0                anim_1132
 src/data/animations/animation_table.o(.data)
 .data          0x0000000008135ec4     0x11b4 src/data/animations/animation_table.o
                0x0000000008135ec4                gAnimations
 src/data/sprite_dimensions.o(.rodata)
 .rodata        0x0000000008137078    0x17300 src/data/sprite_dimensions.o
                0x000000000814d1c4                gSpriteDimensions
 src/data/sprite_oam_data.o(.rodata)
 .rodata        0x000000000814e378    0x1ca50 src/data/sprite_oam_data.o
                0x0000000008169c14                gSpriteOamData
 data/sprite_animation_data.o(.rodata)
 .rodata        0x000000000816adc8   0x57f040 data/sprite_animation_data.o
                0x000000000816adc8                gSpritePalettes
                0x00000000081709a8                gObjTiles_4bpp
                0x00000000086e9e08                gObjTiles_8bpp
 src/data/tileset_debug_ascii.o(.rodata)
 .rodata        0x00000000086e9e08        0x0 src/data/tileset_debug_ascii.o
                0x00000000086e9e08                Tileset_DebugAscii
 src/data/tilemap_data.o(.rodata)
 .rodata        0x00000000086e9e08   0x3e3e70 src/data/tilemap_data.o
                0x00000000086e9e08                Palette_zone_1_act_1_fg
                0x00000000086ea008                Tileset_zone_1_act_1_fg
                0x00000000086f12a8                CollHeightMap_zone_1_act_1_fg
                0x00000000086f2f50                CollTileRot_zone_1_act_1_fg
                0x00000000086f32e8                CollFlags_zone_1_act_1_fg
                0x00000000086f33d0                Metatiles_zone_1_act_1_fg
                0x000000000870de30                Map_zone_1_act_1_fg0
                0x00000000087111b0                Map_zone_1_act_1_fg1
                0x0000000008714530                MapHeader_zone_1_act_1_fg0
                0x0000000008714554                MapHeader_zone_1_act_1_fg1
                0x0000000008714578                CollHeader_zone_1_act_1_fg
                0x000000000871459c                Palette_zone_1_act_2_fg
                0x000000000871479c                Tileset_zone_1_act_2_fg
                0x000000000871b4dc                CollHeightMap_zone_1_act_2_fg
                0x000000000871d02c                CollTileRot_zone_1_act_2_fg
                0x000000000871d398                CollFlags_zone_1_act_2_fg
                0x000000000871d474                Metatiles_zone_1_act_2_fg
                0x00000000087352f4                Map_zone_1_act_2_fg0
                0x0000000008737b60                Map_zone_1_act_2_fg1
                0x000000000873a3cc                MapHeader_zone_1_act_2_fg0
                0x000000000873a3f0                MapHeader_zone_1_act_2_fg1
                0x000000000873a414                CollHeader_zone_1_act_2_fg
                0x000000000873a438                Palette_zone_1_act_boss_fg
                0x000000000873a638                Tileset_zone_1_act_boss_fg
                0x000000000873b438                CollHeightMap_zone_1_act_boss_fg
                0x000000000873b7b8                CollTileRot_zone_1_act_boss_fg
                0x000000000873b828                CollFlags_zone_1_act_boss_fg
                0x000000000873b844                Metatiles_zone_1_act_boss_fg
                0x000000000873bde4                Map_zone_1_act_boss_fg0
                0x000000000873bf4c                Map_zone_1_act_boss_fg1
                0x000000000873c0b4                MapHeader_zone_1_act_boss_fg0
                0x000000000873c0d8                MapHeader_zone_1_act_boss_fg1
                0x000000000873c0fc                CollHeader_zone_1_act_boss_fg
                0x000000000873c120                Palette_zone_1_act_dummy_fg
                0x000000000873c320                Tileset_zone_1_act_dummy_fg
                0x000000000873c5a0                CollHeightMap_zone_1_act_dummy_fg
                0x000000000873c640                CollTileRot_zone_1_act_dummy_fg
                0x000000000873c654                CollFlags_zone_1_act_dummy_fg
                0x000000000873c65c                Metatiles_zone_1_act_dummy_fg
                0x000000000873cbfc                Map_zone_1_act_dummy_fg0
                0x000000000873cc20                Map_zone_1_act_dummy_fg1
                0x000000000873cc44                MapHeader_zone_1_act_dummy_fg0
                0x000000000873cc68                MapHeader_zone_1_act_dummy_fg1
                0x000000000873cc8c                CollHeader_zone_1_act_dummy_fg
                0x000000000873ccb0                Palette_zone_2_act_1_fg
                0x000000000873ceb0                Tileset_zone_2_act_1_fg
                0x0000000008743630                CollHeightMap_zone_2_act_1_fg
                0x0000000008745010                CollTileRot_zone_2_act_1_fg
                0x000000000874534c                CollFlags_zone_2_act_1_fg
                0x000000000874541c                Metatiles_zone_2_act_1_fg
                0x0000000008756d5c                Map_zone_2_act_1_fg0
                0x000000000875d3c8                Map_zone_2_act_1_fg1
                0x0000000008763a34                MapHeader_zone_2_act_1_fg0
                0x0000000008763a58                MapHeader_zone_2_act_1_fg1
                0x0000000008763a7c                CollHeader_zone_2_act_1_fg
                0x0000000008763aa0                Palette_zone_2_act_2_fg
                0x0000000008763ca0                Tileset_zone_2_act_2_fg
                0x000000000876a7a0                CollHeightMap_zone_2_act_2_fg
                0x000000000876c260                CollTileRot_zone_2_act_2_fg
                0x000000000876c5b8                CollFlags_zone_2_act_2_fg
                0x000000000876c690                Metatiles_zone_2_act_2_fg
                0x000000000877ff50                Map_zone_2_act_2_fg0
                0x0000000008787ed0                Map_zone_2_act_2_fg1
                0x000000000878fe50                MapHeader_zone_2_act_2_fg0
                0x000000000878fe74                MapHeader_zone_2_act_2_fg1
                0x000000000878fe98                CollHeader_zone_2_act_2_fg
                0x000000000878febc                Palette_zone_2_act_boss_fg
                0x00000000087900bc                Tileset_zone_2_act_boss_fg
                0x0000000008790f9c                CollHeightMap_zone_2_act_boss_fg
                0x0000000008791354                CollTileRot_zone_2_act_boss_fg
                0x00000000087913cc                CollFlags_zone_2_act_boss_fg
                0x00000000087913ec                Metatiles_zone_2_act_boss_fg
                0x00000000087923ac                Map_zone_2_act_boss_fg0
                0x000000000879256e                Map_zone_2_act_boss_fg1
                0x0000000008792730                MapHeader_zone_2_act_boss_fg0
                0x0000000008792754                MapHeader_zone_2_act_boss_fg1
                0x0000000008792778                CollHeader_zone_2_act_boss_fg
                0x000000000879279c                Palette_zone_3_act_1_fg
                0x000000000879299c                Tileset_zone_3_act_1_fg
                0x000000000879967c                Tileset_AnimTiles_zone_3_act_1_fg
                0x0000000008799d7c                CollHeightMap_zone_3_act_1_fg
                0x000000000879ba74                CollTileRot_zone_3_act_1_fg
                0x000000000879be14                CollFlags_zone_3_act_1_fg
                0x000000000879befc                Metatiles_zone_3_act_1_fg
                0x00000000087ac09c                Map_zone_3_act_1_fg0
                0x00000000087b2758                Map_zone_3_act_1_fg1
                0x00000000087b8e14                MapHeader_zone_3_act_1_fg0
                0x00000000087b8e38                MapHeader_zone_3_act_1_fg1
                0x00000000087b8e5c                CollHeader_zone_3_act_1_fg
                0x00000000087b8e80                Palette_zone_3_act_2_fg
                0x00000000087b9080                Tileset_zone_3_act_2_fg
                0x00000000087bf980                Tileset_AnimTiles_zone_3_act_2_fg
                0x00000000087c0080                CollHeightMap_zone_3_act_2_fg
                0x00000000087c1c80                CollTileRot_zone_3_act_2_fg
                0x00000000087c2000                CollFlags_zone_3_act_2_fg
                0x00000000087c20e0                Metatiles_zone_3_act_2_fg
                0x00000000087d00c0                Map_zone_3_act_2_fg0
                0x00000000087d5bf8                Map_zone_3_act_2_fg1
                0x00000000087db730                MapHeader_zone_3_act_2_fg0
                0x00000000087db754                MapHeader_zone_3_act_2_fg1
                0x00000000087db778                CollHeader_zone_3_act_2_fg
                0x00000000087db79c                Palette_zone_3_act_boss_fg
                0x00000000087db99c                Tileset_zone_3_act_boss_fg
                0x00000000087dc31c                CollHeightMap_zone_3_act_boss_fg
                0x00000000087dc57c                CollTileRot_zone_3_act_boss_fg
                0x00000000087dc5c8                CollFlags_zone_3_act_boss_fg
                0x00000000087dc5dc                Metatiles_zone_3_act_boss_fg
                0x00000000087dc93c                Map_zone_3_act_boss_fg0
                0x00000000087dca2c                Map_zone_3_act_boss_fg1
                0x00000000087dcb1c                MapHeader_zone_3_act_boss_fg0
                0x00000000087dcb40                MapHeader_zone_3_act_boss_fg1
                0x00000000087dcb64                CollHeader_zone_3_act_boss_fg
                0x00000000087dcb88                Palette_zone_4_act_1_fg
                0x00000000087dcd88                Tileset_zone_4_act_1_fg
                0x00000000087e3e08                CollHeightMap_zone_4_act_1_fg
                0x00000000087e5a28                CollTileRot_zone_4_act_1_fg
                0x00000000087e5dac                CollFlags_zone_4_act_1_fg
                0x00000000087e5e90                Metatiles_zone_4_act_1_fg
                0x00000000087ff030                Map_zone_4_act_1_fg0
                0x0000000008805aac                Map_zone_4_act_1_fg1
                0x000000000880c528                MapHeader_zone_4_act_1_fg0
                0x000000000880c54c                MapHeader_zone_4_act_1_fg1
                0x000000000880c570                CollHeader_zone_4_act_1_fg
                0x000000000880c594                Palette_zone_4_act_2_fg
                0x000000000880c794                Tileset_zone_4_act_2_fg
                0x0000000008813374                CollHeightMap_zone_4_act_2_fg
                0x0000000008814e6c                CollTileRot_zone_4_act_2_fg
                0x00000000088151cc                CollFlags_zone_4_act_2_fg
                0x00000000088152a4                Metatiles_zone_4_act_2_fg
                0x000000000882b744                Map_zone_4_act_2_fg0
                0x000000000882fd94                Map_zone_4_act_2_fg1
                0x00000000088343e4                MapHeader_zone_4_act_2_fg0
                0x0000000008834408                MapHeader_zone_4_act_2_fg1
                0x000000000883442c                CollHeader_zone_4_act_2_fg
                0x0000000008834450                Palette_zone_4_act_boss_fg
                0x0000000008834650                Tileset_zone_4_act_boss_fg
                0x0000000008834f70                CollHeightMap_zone_4_act_boss_fg
                0x00000000088351b8                CollTileRot_zone_4_act_boss_fg
                0x0000000008835204                CollFlags_zone_4_act_boss_fg
                0x0000000008835218                Metatiles_zone_4_act_boss_fg
                0x0000000008835b18                Map_zone_4_act_boss_fg0
                0x0000000008835c44                Map_zone_4_act_boss_fg1
                0x0000000008835d70                MapHeader_zone_4_act_boss_fg0
                0x0000000008835d94                MapHeader_zone_4_act_boss_fg1
                0x0000000008835db8                CollHeader_zone_4_act_boss_fg
                0x0000000008835ddc                Palette_zone_5_act_1_fg
                0x0000000008835fdc                Tileset_zone_5_act_1_fg
                0x000000000883b47c                CollHeightMap_zone_5_act_1_fg
                0x000000000883c9a4                CollTileRot_zone_5_act_1_fg
                0x000000000883cc4c                CollFlags_zone_5_act_1_fg
                0x000000000883ccf8                Metatiles_zone_5_act_1_fg
                0x0000000008854c98                Map_zone_5_act_1_fg0
                0x00000000088593d0                Map_zone_5_act_1_fg1
                0x000000000885db08                MapHeader_zone_5_act_1_fg0
                0x000000000885db2c                MapHeader_zone_5_act_1_fg1
                0x000000000885db50                CollHeader_zone_5_act_1_fg
                0x000000000885db74                Palette_zone_5_act_2_fg
                0x000000000885dd74                Tileset_zone_5_act_2_fg
                0x00000000088633b4                CollHeightMap_zone_5_act_2_fg
                0x0000000008864944                CollTileRot_zone_5_act_2_fg
                0x0000000008864bf8                CollFlags_zone_5_act_2_fg
                0x0000000008864ca8                Metatiles_zone_5_act_2_fg
                0x000000000887b4a8                Map_zone_5_act_2_fg0
                0x0000000008880778                Map_zone_5_act_2_fg1
                0x0000000008885a48                MapHeader_zone_5_act_2_fg0
                0x0000000008885a6c                MapHeader_zone_5_act_2_fg1
                0x0000000008885a90                CollHeader_zone_5_act_2_fg
                0x0000000008885ab4                Palette_zone_5_act_boss_fg
                0x0000000008885cb4                Tileset_zone_5_act_boss_fg
                0x00000000088864f4                CollHeightMap_zone_5_act_boss_fg
                0x0000000008886704                CollTileRot_zone_5_act_boss_fg
                0x0000000008886748                CollFlags_zone_5_act_boss_fg
                0x000000000888675c                Metatiles_zone_5_act_boss_fg
                0x00000000088873bc                Map_zone_5_act_boss_fg0
                0x0000000008887524                Map_zone_5_act_boss_fg1
                0x000000000888768c                MapHeader_zone_5_act_boss_fg0
                0x00000000088876b0                MapHeader_zone_5_act_boss_fg1
                0x00000000088876d4                CollHeader_zone_5_act_boss_fg
                0x00000000088876f8                Palette_zone_6_act_1_fg
                0x00000000088878f8                Tileset_zone_6_act_1_fg
                0x000000000888b278                Tileset_AnimTiles_zone_6_act_1_fg
                0x000000000888bbd8                CollHeightMap_zone_6_act_1_fg
                0x000000000888cc90                CollTileRot_zone_6_act_1_fg
                0x000000000888cea8                CollFlags_zone_6_act_1_fg
                0x000000000888cf30                Metatiles_zone_6_act_1_fg
                0x000000000889b030                Map_zone_6_act_1_fg0
                0x00000000088a20ac                Map_zone_6_act_1_fg1
                0x00000000088a9128                MapHeader_zone_6_act_1_fg0
                0x00000000088a914c                MapHeader_zone_6_act_1_fg1
                0x00000000088a9170                CollHeader_zone_6_act_1_fg
                0x00000000088a9194                Palette_zone_6_act_2_fg
                0x00000000088a9394                Tileset_zone_6_act_2_fg
                0x00000000088ac714                Tileset_AnimTiles_zone_6_act_2_fg
                0x00000000088ad074                CollHeightMap_zone_6_act_2_fg
                0x00000000088adfac                CollTileRot_zone_6_act_2_fg
                0x00000000088ae194                CollFlags_zone_6_act_2_fg
                0x00000000088ae210                Metatiles_zone_6_act_2_fg
                0x00000000088bb6b0                Map_zone_6_act_2_fg0
                0x00000000088bee70                Map_zone_6_act_2_fg1
                0x00000000088c2630                MapHeader_zone_6_act_2_fg0
                0x00000000088c2654                MapHeader_zone_6_act_2_fg1
                0x00000000088c2678                CollHeader_zone_6_act_2_fg
                0x00000000088c269c                Palette_zone_6_act_boss_fg
                0x00000000088c289c                Tileset_zone_6_act_boss_fg
                0x00000000088c37dc                Tileset_AnimTiles_zone_6_act_boss_fg
                0x00000000088c413c                CollHeightMap_zone_6_act_boss_fg
                0x00000000088c4764                CollTileRot_zone_6_act_boss_fg
                0x00000000088c482c                CollFlags_zone_6_act_boss_fg
                0x00000000088c4860                Metatiles_zone_6_act_boss_fg
                0x00000000088c5280                Map_zone_6_act_boss_fg0
                0x00000000088c549c                Map_zone_6_act_boss_fg1
                0x00000000088c56b8                MapHeader_zone_6_act_boss_fg0
                0x00000000088c56dc                MapHeader_zone_6_act_boss_fg1
                0x00000000088c5700                CollHeader_zone_6_act_boss_fg
                0x00000000088c5724                Palette_zone_7_act_1_fg
                0x00000000088c5924                Tileset_zone_7_act_1_fg
                0x00000000088cbc24                CollHeightMap_zone_7_act_1_fg
                0x00000000088cd4e4                CollTileRot_zone_7_act_1_fg
                0x00000000088cd7fc                CollFlags_zone_7_act_1_fg
                0x00000000088cd8c4                Metatiles_zone_7_act_1_fg
                0x00000000088e6a64                Map_zone_7_act_1_fg0
                0x00000000088ef3e4                Map_zone_7_act_1_fg1
                0x00000000088f7d64                MapHeader_zone_7_act_1_fg0
                0x00000000088f7d88                MapHeader_zone_7_act_1_fg1
                0x00000000088f7dac                CollHeader_zone_7_act_1_fg
                0x00000000088f7dd0                Palette_zone_7_act_2_fg
                0x00000000088f7fd0                Tileset_zone_7_act_2_fg
                0x00000000088fe3b0                CollHeightMap_zone_7_act_2_fg
                0x00000000088ffca8                CollTileRot_zone_7_act_2_fg
                0x00000000088fffc8                CollFlags_zone_7_act_2_fg
                0x0000000008900090                Metatiles_zone_7_act_2_fg
                0x00000000089133b0                Map_zone_7_act_2_fg0
                0x000000000891c0e2                Map_zone_7_act_2_fg1
                0x0000000008924e14                MapHeader_zone_7_act_2_fg0
                0x0000000008924e38                MapHeader_zone_7_act_2_fg1
                0x0000000008924e5c                CollHeader_zone_7_act_2_fg
                0x0000000008924e80                Palette_zone_7_act_boss_fg
                0x0000000008925080                Tileset_zone_7_act_boss_fg
                0x0000000008925560                CollHeightMap_zone_7_act_boss_fg
                0x0000000008925698                CollTileRot_zone_7_act_boss_fg
                0x00000000089256c0                CollFlags_zone_7_act_boss_fg
                0x00000000089256cc                Metatiles_zone_7_act_boss_fg
                0x0000000008925a2c                Map_zone_7_act_boss_fg0
                0x0000000008925b58                Map_zone_7_act_boss_fg1
                0x0000000008925c84                MapHeader_zone_7_act_boss_fg0
                0x0000000008925ca8                MapHeader_zone_7_act_boss_fg1
                0x0000000008925ccc                CollHeader_zone_7_act_boss_fg
                0x0000000008925cf0                Palette_zone_final_act_xx_fg
                0x0000000008925ef0                Tileset_zone_final_act_xx_fg
                0x00000000089285b0                CollHeightMap_zone_final_act_xx_fg
                0x0000000008928f60                CollTileRot_zone_final_act_xx_fg
                0x0000000008929098                CollFlags_zone_final_act_xx_fg
                0x00000000089290e8                Metatiles_zone_final_act_xx_fg
                0x000000000892d7c8                Map_zone_final_act_xx_fg0
                0x000000000892e254                Map_zone_final_act_xx_fg1
                0x000000000892ece0                MapHeader_zone_final_act_xx_fg0
                0x000000000892ed04                MapHeader_zone_final_act_xx_fg1
                0x000000000892ed28                CollHeader_zone_final_act_xx_fg
                0x000000000892ed4c                Palette_zone_final_act_ta53_fg
                0x000000000892ef4c                Tileset_zone_final_act_ta53_fg
                0x000000000892ef6c                CollHeightMap_zone_final_act_ta53_fg
                0x000000000892ef74                CollTileRot_zone_final_act_ta53_fg
                0x000000000892ef78                CollFlags_zone_final_act_ta53_fg
                0x000000000892ef7c                Metatiles_zone_final_act_ta53_fg
                0x000000000892f09c                Map_zone_final_act_ta53_fg0
                0x000000000892f2b8                Map_zone_final_act_ta53_fg1
                0x000000000892f4d4                MapHeader_zone_final_act_ta53_fg0
                0x000000000892f4f8                MapHeader_zone_final_act_ta53_fg1
                0x000000000892f51c                CollHeader_zone_final_act_ta53_fg
                0x000000000892f540                Palette_zone_final_act_unused_fg
                0x000000000892f740                Tileset_zone_final_act_unused_fg
                0x000000000892f744                CollHeightMap_zone_final_act_unused_fg
                0x000000000892ffc4                CollTileRot_zone_final_act_unused_fg
                0x00000000089300d4                CollFlags_zone_final_act_unused_fg
                0x0000000008930118                Metatiles_zone_final_act_unused_fg
                0x0000000008933178                Map_zone_final_act_unused_fg0
                0x0000000008933358                Map_zone_final_act_unused_fg1
                0x0000000008933538                MapHeader_zone_final_act_unused_fg0
                0x000000000893355c                MapHeader_zone_final_act_unused_fg1
                0x0000000008933580                CollHeader_zone_final_act_unused_fg
                0x00000000089335a4                Palette_zone_1_act_1_bg
                0x00000000089337a4                Tiles_zone_1_act_1_bg
                0x0000000008934aa4                Tilemap_zone_1_act_1_bg
                0x0000000008935224                zone_1_act_1_bg
                0x0000000008935240                Palette_stage_1_bg_0_copy
                0x0000000008935440                Tiles_stage_1_bg_0_copy
                0x0000000008935b40                Tilemap_stage_1_bg_0_copy
                0x00000000089362c0                stage_1_bg_0_copy
                0x00000000089362dc                Palette_zone_3_act_1_bg
                0x00000000089364dc                Tiles_zone_3_act_1_bg
                0x000000000893785c                Tilemap_zone_3_act_1_bg
                0x000000000893805c                zone_3_act_1_bg
                0x0000000008938078                Palette_music_plant_moving_stars
                0x0000000008938278                Tiles_music_plant_moving_stars
                0x0000000008938bf8                Tilemap_music_plant_moving_stars
                0x00000000089393f8                music_plant_moving_stars
                0x0000000008939414                Palette_zone_4_act_1_bg
                0x0000000008939614                Tiles_zone_4_act_1_bg
                0x000000000893b3f4                Tilemap_zone_4_act_1_bg
                0x000000000893bbf4                zone_4_act_1_bg
                0x000000000893bc10                Palette_spotlight_snow
                0x000000000893be10                Tiles_spotlight_snow
                0x000000000893bf10                Tiles_AnimTiles_spotlight_snow
                0x000000000893c090                Tilemap_spotlight_snow
                0x000000000893c890                spotlight_snow
                0x000000000893c8ac                Palette_zone_2_act_1_bg
                0x000000000893caac                Tiles_zone_2_act_1_bg
                0x000000000894058c                Tilemap_zone_2_act_1_bg
                0x000000000894158c                zone_2_act_1_bg
                0x00000000089415a8                Palette_sky_canyon_clouds_foreground
                0x00000000089417a8                Tiles_sky_canyon_clouds_foreground
                0x0000000008942088                Tilemap_sky_canyon_clouds_foreground
                0x0000000008942648                sky_canyon_clouds_foreground
                0x0000000008942664                Palette_zone_5_act_1_bg
                0x0000000008942864                Tiles_zone_5_act_1_bg
                0x00000000089445c4                Tilemap_zone_5_act_1_bg
                0x0000000008944b84                zone_5_act_1_bg
                0x0000000008944ba0                Palette_unk_space_bg
                0x0000000008944da0                Tiles_unk_space_bg
                0x0000000008944fe0                Tilemap_unk_space_bg
                0x00000000089454e0                unk_space_bg
                0x00000000089454fc                Palette_zone_7_act_1_bg
                0x00000000089456fc                Tiles_zone_7_act_1_bg
                0x00000000089476fc                Tilemap_zone_7_act_1_bg
                0x0000000008947efc                zone_7_act_1_bg
                0x0000000008947f18                Palette_zone_6_act_1_bg
                0x0000000008948118                Tiles_zone_6_act_1_bg
                0x0000000008948c18                Tilemap_zone_6_act_1_bg
                0x0000000008949418                zone_6_act_1_bg
                0x0000000008949434                Palette_techno_base_bg_purple_grid
                0x0000000008949634                Tiles_techno_base_bg_purple_grid
                0x0000000008949a74                Tilemap_techno_base_bg_purple_grid
                0x000000000894a274                techno_base_bg_purple_grid
                0x000000000894a290                Palette_techno_base_bg_circuit_mask
                0x000000000894a490                Tiles_techno_base_bg_circuit_mask
                0x000000000894a650                Tilemap_techno_base_bg_circuit_mask
                0x000000000894ae50                techno_base_bg_circuit_mask
                0x000000000894ae6c                Palette_zone_1_act_dummy_bg
                0x000000000894b06c                Tiles_zone_1_act_dummy_bg
                0x000000000894d84c                Tilemap_zone_1_act_dummy_bg
                0x000000000894e04c                zone_1_act_dummy_bg
                0x000000000894e068                Palette_zone_final_act_ta53_bg
                0x000000000894e268                Tiles_zone_final_act_ta53_bg
                0x0000000008950008                Tilemap_zone_final_act_ta53_bg
                0x0000000008950508                zone_final_act_ta53_bg
                0x0000000008950524                Palette_zone_final_act_unused_bg
                0x0000000008950724                Tiles_zone_final_act_unused_bg
                0x0000000008951944                Tilemap_zone_final_act_unused_bg
                0x00000000089520c4                zone_final_act_unused_bg
                0x00000000089520e0                Palette_character_select_background
                0x00000000089522e0                Tiles_character_select_background
                0x0000000008953e80                Tilemap_character_select_background
                0x0000000008954330                character_select_background
                0x000000000895434c                Palette_character_select_wheel
                0x000000000895454c                Tiles_character_select_wheel
                0x0000000008954b6c                Tilemap_character_select_wheel
                0x000000000895501c                character_select_wheel
                0x0000000008955038                Palette_character_select_background_0
                0x0000000008955238                Tiles_character_select_background_0
                0x00000000089552b8                Tilemap_character_select_background_0
                0x0000000008955ab8                character_select_background_0
                0x0000000008955ad4                Palette_character_select_background_1
                0x0000000008955cd4                Tiles_character_select_background_1
                0x00000000089563b4                Tilemap_character_select_background_1
                0x0000000008956bb4                character_select_background_1
                0x0000000008956bd0                Palette_stage_select_bg_sonic
                0x0000000008956dd0                Tiles_stage_select_bg_sonic
                0x0000000008956f90                Tilemap_stage_select_bg_sonic
                0x0000000008957440                stage_select_bg_sonic
                0x000000000895745c                Palette_stage_select_bg_cream
                0x000000000895765c                Tiles_stage_select_bg_cream
                0x000000000895781c                Tilemap_stage_select_bg_cream
                0x0000000008957ccc                stage_select_bg_cream
                0x0000000008957ce8                Palette_stage_select_bg_tails
                0x0000000008957ee8                Tiles_stage_select_bg_tails
                0x00000000089580a8                Tilemap_stage_select_bg_tails
                0x0000000008958558                stage_select_bg_tails
                0x0000000008958574                Palette_stage_select_bg_knuckles
                0x0000000008958774                Tiles_stage_select_bg_knuckles
                0x0000000008958934                Tilemap_stage_select_bg_knuckles
                0x0000000008958de4                stage_select_bg_knuckles
                0x0000000008958e00                Palette_stage_select_bg_amy
                0x0000000008959000                Tiles_stage_select_bg_amy
                0x00000000089591c0                Tilemap_stage_select_bg_amy
                0x0000000008959670                stage_select_bg_amy
                0x000000000895968c                Palette_stage_select_map
                0x000000000895988c                Tiles_stage_select_map
                0x000000000895db4c                Tilemap_stage_select_map
                0x000000000895e4ac                stage_select_map
                0x000000000895e4c8                Palette_unknown_options_bg
                0x000000000895e6c8                Tiles_unknown_options_bg
                0x000000000895e708                Tilemap_unknown_options_bg
                0x000000000895ef08                unknown_options_bg
                0x000000000895ef24                Palette_tilemap_108
                0x000000000895f124                Tiles_tilemap_108
                0x000000000895f144                Tilemap_tilemap_108
                0x000000000895f5f4                tilemap_108
                0x000000000895f610                Palette_sa2_title_logo_jp
                0x000000000895f810                Tiles_sa2_title_logo_jp
                0x0000000008962950                Tilemap_sa2_title_logo_jp
                0x0000000008962a54                sa2_title_logo_jp
                0x0000000008962a70                Palette_ta_and_mp_white_bg
                0x0000000008962c70                Tiles_ta_and_mp_white_bg
                0x0000000008962c90                Tilemap_ta_and_mp_white_bg
                0x0000000008963490                ta_and_mp_white_bg
                0x00000000089634ac                Palette_mp_orange_bg
                0x00000000089636ac                Tiles_mp_orange_bg
                0x00000000089636cc                Tilemap_mp_orange_bg
                0x0000000008963ecc                mp_orange_bg
                0x0000000008963ee8                Palette_mp_characters_selected_jp
                0x00000000089640e8                Tiles_mp_characters_selected_jp
                0x0000000008967628                Tilemap_mp_characters_selected_jp
                0x0000000008967da8                mp_characters_selected_jp
                0x0000000008967dc4                Palette_mp_characters_selected_en
                0x0000000008967fc4                Tiles_mp_characters_selected_en
                0x000000000896b584                Tilemap_mp_characters_selected_en
                0x000000000896bd04                mp_characters_selected_en
                0x000000000896bd20                Palette_mp_characters_selected_de
                0x000000000896bf20                Tiles_mp_characters_selected_de
                0x000000000896f440                Tilemap_mp_characters_selected_de
                0x000000000896fbc0                mp_characters_selected_de
                0x000000000896fbdc                Palette_mp_characters_selected_fr
                0x000000000896fddc                Tiles_mp_characters_selected_fr
                0x000000000897341c                Tilemap_mp_characters_selected_fr
                0x0000000008973b9c                mp_characters_selected_fr
                0x0000000008973bb8                Palette_mp_characters_selected_es
                0x0000000008973db8                Tiles_mp_characters_selected_es
                0x00000000089773d8                Tilemap_mp_characters_selected_es
                0x0000000008977b58                mp_characters_selected_es
                0x0000000008977b74                Palette_mp_characters_selected_it
                0x0000000008977d74                Tiles_mp_characters_selected_it
                0x000000000897b254                Tilemap_mp_characters_selected_it
                0x000000000897b9d4                mp_characters_selected_it
                0x000000000897b9f0                Palette_mp_wait_connection
                0x000000000897bbf0                Tiles_mp_wait_connection
                0x000000000897d730                Tilemap_mp_wait_connection
                0x000000000897dbe0                mp_wait_connection
                0x000000000897dbfc                Palette_mp_message_box_unknown
                0x000000000897ddfc                Tiles_mp_message_box_unknown
                0x000000000897e0fc                Tilemap_mp_message_box_unknown
                0x000000000897e5ac                mp_message_box_unknown
                0x000000000897e5c8                Palette_mp_unknown_orange_zigzag
                0x000000000897e7c8                Tiles_mp_unknown_orange_zigzag
                0x000000000897e848                Tilemap_mp_unknown_orange_zigzag
                0x000000000897f1a8                mp_unknown_orange_zigzag
                0x000000000897f1c4                Palette_mp_unknown_green
                0x000000000897f3c4                Tiles_mp_unknown_green
                0x000000000897f3e4                Tilemap_mp_unknown_green
                0x000000000897f894                mp_unknown_green
                0x000000000897f8b0                Palette_unknown_message_box_white
                0x000000000897fab0                Tiles_unknown_message_box_white
                0x000000000897fbf0                Tilemap_unknown_message_box_white
                0x000000000897fe48                unknown_message_box_white
                0x000000000897fe64                Palette_unknown_message_box_white_small
                0x0000000008980064                Tiles_unknown_message_box_white_small
                0x00000000089801a4                Tilemap_unknown_message_box_white_small
                0x0000000008980348                unknown_message_box_white_small
                0x0000000008980364                Palette_mp_vs_background_text
                0x0000000008980564                Tiles_mp_vs_background_text
                0x00000000089808e4                Tilemap_mp_vs_background_text
                0x00000000089810e4                mp_vs_background_text
                0x0000000008981100                Palette_egg_saucer_wheel_copy
                0x0000000008981300                Tiles_egg_saucer_wheel_copy
                0x00000000089824a0                Tilemap_egg_saucer_wheel_copy
                0x0000000008982628                egg_saucer_wheel_copy
                0x0000000008982644                Palette_regular_final_boss
                0x0000000008982844                Tiles_regular_final_boss
                0x00000000089839e4                Tilemap_regular_final_boss
                0x0000000008983e94                regular_final_boss
                0x0000000008983eb0                Palette_extra_boss_cockpit
                0x00000000089840b0                Tiles_extra_boss_cockpit
                0x0000000008985170                Tilemap_extra_boss_cockpit
                0x00000000089851cc                extra_boss_cockpit
                0x00000000089851e8                Palette_extra_boss_background_copy
                0x00000000089853e8                Tiles_extra_boss_background_copy
                0x00000000089874c8                Tilemap_extra_boss_background_copy
                0x00000000089879c8                extra_boss_background_copy
                0x00000000089879e4                Palette_cutscene_vanilla_kidnapped_full_map
                0x0000000008987be4                Tiles_cutscene_vanilla_kidnapped_full_map
                0x0000000008989a44                Tilemap_cutscene_vanilla_kidnapped_full_map
                0x000000000898a244                cutscene_vanilla_kidnapped_full_map
                0x000000000898a260                Palette_cutscene_vanilla_kidnapped_full_map_copy
                0x000000000898a460                Tiles_cutscene_vanilla_kidnapped_full_map_copy
                0x000000000898c2c0                Tilemap_cutscene_vanilla_kidnapped_full_map_copy
                0x000000000898cac0                cutscene_vanilla_kidnapped_full_map_copy
                0x000000000898cadc                Palette_cutscene_vanilla_kidnapped_super_sonic_art
                0x000000000898ccdc                Tiles_cutscene_vanilla_kidnapped_super_sonic_art
                0x000000000898ea3c                Tilemap_cutscene_vanilla_kidnapped_super_sonic_art
                0x000000000898ec2c                cutscene_vanilla_kidnapped_super_sonic_art
                0x000000000898ec48                Palette_options_time_record_bg0
                0x000000000898ee48                Tiles_options_time_record_bg0
                0x000000000898ee88                Tilemap_options_time_record_bg0
                0x000000000898f338                options_time_record_bg0
                0x000000000898f354                Palette_options_enter_name_characters
                0x000000000898f554                Tiles_options_enter_name_characters
                0x0000000008993f94                Tilemap_options_enter_name_characters
                0x0000000008994724                options_enter_name_characters
                0x0000000008994740                Palette_options_enter_name
                0x0000000008994940                Tiles_options_enter_name
                0x0000000008994da0                Tilemap_options_enter_name
                0x0000000008995250                options_enter_name
                0x000000000899526c                Palette_options_bg0
                0x000000000899546c                Tiles_options_bg0
                0x000000000899562c                Tilemap_options_bg0
                0x0000000008995adc                options_bg0
                0x0000000008995af8                Palette_unused_options_window
                0x0000000008995cf8                Tiles_unused_options_window
                0x00000000089960f8                Tilemap_unused_options_window
                0x00000000089965a8                unused_options_window
                0x00000000089965c4                Palette_options_time_record_bg1
                0x00000000089967c4                Tiles_options_time_record_bg1
                0x00000000089969a4                Tilemap_options_time_record_bg1
                0x0000000008996e54                options_time_record_bg1
                0x0000000008996e70                Palette_options_vs_record_bg1
                0x0000000008997070                Tiles_options_vs_record_bg1
                0x00000000089972f0                Tilemap_options_vs_record_bg1
                0x00000000089977a0                options_vs_record_bg1
                0x00000000089977bc                Palette_options_language_select
                0x00000000089979bc                Tiles_options_language_select
                0x0000000008997afc                Tilemap_options_language_select
                0x0000000008997fac                options_language_select
                0x0000000008997fc8                Palette_mp_character_selected_sonic_bg
                0x00000000089981c8                Tiles_mp_character_selected_sonic_bg
                0x0000000008998228                Tilemap_mp_character_selected_sonic_bg
                0x00000000089983b8                mp_character_selected_sonic_bg
                0x00000000089983d4                Palette_mp_character_selected_sonic
                0x00000000089985d4                Tiles_mp_character_selected_sonic
                0x0000000008999194                Tilemap_mp_character_selected_sonic
                0x0000000008999324                mp_character_selected_sonic
                0x0000000008999340                Palette_mp_character_selected_tails_bg
                0x0000000008999540                Tiles_mp_character_selected_tails_bg
                0x00000000089995a0                Tilemap_mp_character_selected_tails_bg
                0x0000000008999730                mp_character_selected_tails_bg
                0x000000000899974c                Palette_mp_character_selected_tails
                0x000000000899994c                Tiles_mp_character_selected_tails
                0x000000000899a3ac                Tilemap_mp_character_selected_tails
                0x000000000899a53c                mp_character_selected_tails
                0x000000000899a558                Palette_mp_character_selected_knuckles_bg
                0x000000000899a758                Tiles_mp_character_selected_knuckles_bg
                0x000000000899a7b8                Tilemap_mp_character_selected_knuckles_bg
                0x000000000899a948                mp_character_selected_knuckles_bg
                0x000000000899a964                Palette_mp_character_selected_knuckles
                0x000000000899ab64                Tiles_mp_character_selected_knuckles
                0x000000000899b7a4                Tilemap_mp_character_selected_knuckles
                0x000000000899b934                mp_character_selected_knuckles
                0x000000000899b950                Palette_mp_character_selected_amy_bg
                0x000000000899bb50                Tiles_mp_character_selected_amy_bg
                0x000000000899bbb0                Tilemap_mp_character_selected_amy_bg
                0x000000000899bd40                mp_character_selected_amy_bg
                0x000000000899bd5c                Palette_mp_character_selected_amy
                0x000000000899bf5c                Tiles_mp_character_selected_amy
                0x000000000899ca7c                Tilemap_mp_character_selected_amy
                0x000000000899cc0c                mp_character_selected_amy
                0x000000000899cc28                Palette_mp_character_selected_cream_bg
                0x000000000899ce28                Tiles_mp_character_selected_cream_bg
                0x000000000899ce88                Tilemap_mp_character_selected_cream_bg
                0x000000000899d018                mp_character_selected_cream_bg
                0x000000000899d034                Palette_mp_character_selected_cream
                0x000000000899d234                Tiles_mp_character_selected_cream
                0x000000000899dcb4                Tilemap_mp_character_selected_cream
                0x000000000899de44                mp_character_selected_cream
                0x000000000899de60                Palette_tilemap_139
                0x000000000899e060                Tiles_tilemap_139
                0x000000000899e080                Tilemap_tilemap_139
                0x000000000899e530                tilemap_139
                0x000000000899e54c                Palette_special_stage_1
                0x000000000899e74c                Tiles_special_stage_1
                0x00000000089a034c                Tilemap_special_stage_1
                0x00000000089a434c                special_stage_1
                0x00000000089a4368                Palette_special_stage_1_bg
                0x00000000089a4568                Tiles_special_stage_1_bg
                0x00000000089a5068                Tilemap_special_stage_1_bg
                0x00000000089a5868                special_stage_1_bg
                0x00000000089a5884                Palette_special_stage_2
                0x00000000089a5a84                Tiles_special_stage_2
                0x00000000089a6e44                Tilemap_special_stage_2
                0x00000000089aae44                special_stage_2
                0x00000000089aae60                Palette_special_stage_2_bg
                0x00000000089ab060                Tiles_special_stage_2_bg
                0x00000000089acee0                Tilemap_special_stage_2_bg
                0x00000000089ad6e0                special_stage_2_bg
                0x00000000089ad6fc                Palette_special_stage_3
                0x00000000089ad8fc                Tiles_special_stage_3
                0x00000000089aed3c                Tilemap_special_stage_3
                0x00000000089b2d3c                special_stage_3
                0x00000000089b2d58                Palette_special_stage_3_bg
                0x00000000089b2f58                Tiles_special_stage_3_bg
                0x00000000089b45f8                Tilemap_special_stage_3_bg
                0x00000000089b4df8                special_stage_3_bg
                0x00000000089b4e14                Palette_special_stage_4
                0x00000000089b5014                Tiles_special_stage_4
                0x00000000089b6514                Tilemap_special_stage_4
                0x00000000089ba514                special_stage_4
                0x00000000089ba530                Palette_special_stage_4_bg
                0x00000000089ba730                Tiles_special_stage_4_bg
                0x00000000089bb230                Tilemap_special_stage_4_bg
                0x00000000089bba30                special_stage_4_bg
                0x00000000089bba4c                Palette_special_stage_5
                0x00000000089bbc4c                Tiles_special_stage_5
                0x00000000089bd24c                Tilemap_special_stage_5
                0x00000000089c124c                special_stage_5
                0x00000000089c1268                Palette_special_stage_5_bg
                0x00000000089c1468                Tiles_special_stage_5_bg
                0x00000000089c32c8                Tilemap_special_stage_5_bg
                0x00000000089c3ac8                special_stage_5_bg
                0x00000000089c3ae4                Palette_special_stage_6
                0x00000000089c3ce4                Tiles_special_stage_6
                0x00000000089c5d24                Tilemap_special_stage_6
                0x00000000089c9d24                special_stage_6
                0x00000000089c9d40                Palette_special_stage_6_bg
                0x00000000089c9f40                Tiles_special_stage_6_bg
                0x00000000089cb5e0                Tilemap_special_stage_6_bg
                0x00000000089cbde0                special_stage_6_bg
                0x00000000089cbdfc                Palette_special_stage_7
                0x00000000089cbffc                Tiles_special_stage_7
                0x00000000089cd07c                Tilemap_special_stage_7
                0x00000000089d107c                special_stage_7
                0x00000000089d1098                Palette_special_stage_7_bg
                0x00000000089d1298                Tiles_special_stage_7_bg
                0x00000000089d28d8                Tilemap_special_stage_7_bg
                0x00000000089d30d8                special_stage_7_bg
                0x00000000089d30f4                Palette_mp_cheese_please_wait_jp
                0x00000000089d32f4                Tiles_mp_cheese_please_wait_jp
                0x00000000089d4334                Tilemap_mp_cheese_please_wait_jp
                0x00000000089d47e4                mp_cheese_please_wait_jp
                0x00000000089d4800                Palette_mp_cheese_please_wait_en
                0x00000000089d4a00                Tiles_mp_cheese_please_wait_en
                0x00000000089d5ac0                Tilemap_mp_cheese_please_wait_en
                0x00000000089d5f70                mp_cheese_please_wait_en
                0x00000000089d5f8c                Palette_mp_cheese_please_wait_de
                0x00000000089d618c                Tiles_mp_cheese_please_wait_de
                0x00000000089d72ec                Tilemap_mp_cheese_please_wait_de
                0x00000000089d779c                mp_cheese_please_wait_de
                0x00000000089d77b8                Palette_mp_cheese_please_wait_fr
                0x00000000089d79b8                Tiles_mp_cheese_please_wait_fr
                0x00000000089d8cb8                Tilemap_mp_cheese_please_wait_fr
                0x00000000089d9168                mp_cheese_please_wait_fr
                0x00000000089d9184                Palette_mp_cheese_please_wait_es
                0x00000000089d9384                Tiles_mp_cheese_please_wait_es
                0x00000000089da584                Tilemap_mp_cheese_please_wait_es
                0x00000000089daa34                mp_cheese_please_wait_es
                0x00000000089daa50                Palette_mp_cheese_please_wait_it
                0x00000000089dac50                Tiles_mp_cheese_please_wait_it
                0x00000000089dbdd0                Tilemap_mp_cheese_please_wait_it
                0x00000000089dc280                mp_cheese_please_wait_it
                0x00000000089dc29c                Palette_ta_orange_bg
                0x00000000089dc49c                Tiles_ta_orange_bg
                0x00000000089dc4bc                Tilemap_ta_orange_bg
                0x00000000089dccbc                ta_orange_bg
                0x00000000089dccd8                Palette_message_box_black
                0x00000000089dced8                Tiles_message_box_black
                0x00000000089dcf78                Tilemap_message_box_black
                0x00000000089dd218                message_box_black
                0x00000000089dd234                Palette_green_caret
                0x00000000089dd434                Tiles_green_caret
                0x00000000089dd474                Tilemap_green_caret
                0x00000000089dd924                green_caret
                0x00000000089dd940                Palette_sound_test_bg
                0x00000000089ddb40                Tiles_sound_test_bg
                0x00000000089ddc80                Tilemap_sound_test_bg
                0x00000000089de480                sound_test_bg
                0x00000000089de49c                Palette_title_screen_bg
                0x00000000089de69c                Tiles_title_screen_bg
                0x00000000089e2b9c                Tilemap_title_screen_bg
                0x00000000089e3b9c                title_screen_bg
                0x00000000089e3bb8                Palette_intro_water
                0x00000000089e3db8                Tiles_intro_water
                0x00000000089e4578                Tilemap_intro_water
                0x00000000089e4978                intro_water
                0x00000000089e4994                Palette_lens_flare_bg
                0x00000000089e4b94                Tiles_lens_flare_bg
                0x00000000089e5134                Tilemap_lens_flare_bg
                0x00000000089e5214                lens_flare_bg
                0x00000000089e5230                Palette_sa2_logo_jp
                0x00000000089e5430                Tiles_sa2_logo_jp
                0x00000000089e7ff0                Tilemap_sa2_logo_jp
                0x00000000089e80f4                sa2_logo_jp
                0x00000000089e8110                Palette_sa2_logo_en
                0x00000000089e8310                Tiles_sa2_logo_en
                0x00000000089eb350                Tilemap_sa2_logo_en
                0x00000000089eb454                sa2_logo_en
                0x00000000089eb470                Palette_storyframe_cream_unlock_0
                0x00000000089eb670                Tiles_storyframe_cream_unlock_0
                0x00000000089ed430                Tilemap_storyframe_cream_unlock_0
                0x00000000089ed8e0                storyframe_cream_unlock_0
                0x00000000089ed8fc                Palette_storyframe_cream_unlock_0_dlg_en
                0x00000000089edafc                Tiles_storyframe_cream_unlock_0_dlg_en
                0x00000000089ee1fc                Tilemap_storyframe_cream_unlock_0_dlg_en
                0x00000000089ee328                storyframe_cream_unlock_0_dlg_en
                0x00000000089ee344                Palette_storyframe_cream_unlock_0_dlg_fr
                0x00000000089ee544                Tiles_storyframe_cream_unlock_0_dlg_fr
                0x00000000089eec44                Tilemap_storyframe_cream_unlock_0_dlg_fr
                0x00000000089eed70                storyframe_cream_unlock_0_dlg_fr
                0x00000000089eed8c                Palette_storyframe_cream_unlock_0_dlg_de
                0x00000000089eef8c                Tiles_storyframe_cream_unlock_0_dlg_de
                0x00000000089ef42c                Tilemap_storyframe_cream_unlock_0_dlg_de
                0x00000000089ef558                storyframe_cream_unlock_0_dlg_de
                0x00000000089ef574                Palette_storyframe_cream_unlock_0_dlg_it
                0x00000000089ef774                Tiles_storyframe_cream_unlock_0_dlg_it
                0x00000000089efab4                Tilemap_storyframe_cream_unlock_0_dlg_it
                0x00000000089efbe0                storyframe_cream_unlock_0_dlg_it
                0x00000000089efbfc                Palette_storyframe_cream_unlock_0_dlg_jp
                0x00000000089efdfc                Tiles_storyframe_cream_unlock_0_dlg_jp
                0x00000000089f033c                Tilemap_storyframe_cream_unlock_0_dlg_jp
                0x00000000089f0468                storyframe_cream_unlock_0_dlg_jp
                0x00000000089f0484                Palette_storyframe_cream_unlock_0_dlg_es
                0x00000000089f0684                Tiles_storyframe_cream_unlock_0_dlg_es
                0x00000000089f0a04                Tilemap_storyframe_cream_unlock_0_dlg_es
                0x00000000089f0b30                storyframe_cream_unlock_0_dlg_es
                0x00000000089f0b4c                Palette_storyframe_cream_unlock_1
                0x00000000089f0d4c                Tiles_storyframe_cream_unlock_1
                0x00000000089f2a4c                Tilemap_storyframe_cream_unlock_1
                0x00000000089f2efc                storyframe_cream_unlock_1
                0x00000000089f2f18                Palette_storyframe_cream_unlock_1_dlg_en
                0x00000000089f3118                Tiles_storyframe_cream_unlock_1_dlg_en
                0x00000000089f3bf8                Tilemap_storyframe_cream_unlock_1_dlg_en
                0x00000000089f3d24                storyframe_cream_unlock_1_dlg_en
                0x00000000089f3d40                Palette_storyframe_cream_unlock_1_dlg_fr
                0x00000000089f3f40                Tiles_storyframe_cream_unlock_1_dlg_fr
                0x00000000089f4660                Tilemap_storyframe_cream_unlock_1_dlg_fr
                0x00000000089f478c                storyframe_cream_unlock_1_dlg_fr
                0x00000000089f47a8                Palette_storyframe_cream_unlock_1_dlg_de
                0x00000000089f49a8                Tiles_storyframe_cream_unlock_1_dlg_de
                0x00000000089f5868                Tilemap_storyframe_cream_unlock_1_dlg_de
                0x00000000089f5994                storyframe_cream_unlock_1_dlg_de
                0x00000000089f59b0                Palette_storyframe_cream_unlock_1_dlg_it
                0x00000000089f5bb0                Tiles_storyframe_cream_unlock_1_dlg_it
                0x00000000089f6110                Tilemap_storyframe_cream_unlock_1_dlg_it
                0x00000000089f623c                storyframe_cream_unlock_1_dlg_it
                0x00000000089f6258                Palette_storyframe_cream_unlock_1_dlg_jp
                0x00000000089f6458                Tiles_storyframe_cream_unlock_1_dlg_jp
                0x00000000089f6bd8                Tilemap_storyframe_cream_unlock_1_dlg_jp
                0x00000000089f6d04                storyframe_cream_unlock_1_dlg_jp
                0x00000000089f6d20                Palette_storyframe_cream_unlock_1_dlg_es
                0x00000000089f6f20                Tiles_storyframe_cream_unlock_1_dlg_es
                0x00000000089f7520                Tilemap_storyframe_cream_unlock_1_dlg_es
                0x00000000089f764c                storyframe_cream_unlock_1_dlg_es
                0x00000000089f7668                Palette_storyframe_cream_unlock_2
                0x00000000089f7868                Tiles_storyframe_cream_unlock_2
                0x00000000089f9608                Tilemap_storyframe_cream_unlock_2
                0x00000000089f9ab8                storyframe_cream_unlock_2
                0x00000000089f9ad4                Palette_storyframe_cream_unlock_2_dlg_en
                0x00000000089f9cd4                Tiles_storyframe_cream_unlock_2_dlg_en
                0x00000000089fa694                Tilemap_storyframe_cream_unlock_2_dlg_en
                0x00000000089fa7c0                storyframe_cream_unlock_2_dlg_en
                0x00000000089fa7dc                Palette_storyframe_cream_unlock_2_dlg_fr
                0x00000000089fa9dc                Tiles_storyframe_cream_unlock_2_dlg_fr
                0x00000000089fb01c                Tilemap_storyframe_cream_unlock_2_dlg_fr
                0x00000000089fb148                storyframe_cream_unlock_2_dlg_fr
                0x00000000089fb164                Palette_storyframe_cream_unlock_2_dlg_de
                0x00000000089fb364                Tiles_storyframe_cream_unlock_2_dlg_de
                0x00000000089fbea4                Tilemap_storyframe_cream_unlock_2_dlg_de
                0x00000000089fbfd0                storyframe_cream_unlock_2_dlg_de
                0x00000000089fbfec                Palette_storyframe_cream_unlock_2_dlg_it
                0x00000000089fc1ec                Tiles_storyframe_cream_unlock_2_dlg_it
                0x00000000089fcdcc                Tilemap_storyframe_cream_unlock_2_dlg_it
                0x00000000089fcef8                storyframe_cream_unlock_2_dlg_it
                0x00000000089fcf14                Palette_storyframe_cream_unlock_2_dlg_jp
                0x00000000089fd114                Tiles_storyframe_cream_unlock_2_dlg_jp
                0x00000000089fd874                Tilemap_storyframe_cream_unlock_2_dlg_jp
                0x00000000089fd9a0                storyframe_cream_unlock_2_dlg_jp
                0x00000000089fd9bc                Palette_storyframe_cream_unlock_2_dlg_es
                0x00000000089fdbbc                Tiles_storyframe_cream_unlock_2_dlg_es
                0x00000000089fe87c                Tilemap_storyframe_cream_unlock_2_dlg_es
                0x00000000089fe9a8                storyframe_cream_unlock_2_dlg_es
                0x00000000089fe9c4                Palette_storyframe_cream_unlock_3
                0x00000000089febc4                Tiles_storyframe_cream_unlock_3
                0x0000000008a008c4                Tilemap_storyframe_cream_unlock_3
                0x0000000008a00d74                storyframe_cream_unlock_3
                0x0000000008a00d90                Palette_storyframe_cream_unlock_3_dlg_en
                0x0000000008a00f90                Tiles_storyframe_cream_unlock_3_dlg_en
                0x0000000008a01830                Tilemap_storyframe_cream_unlock_3_dlg_en
                0x0000000008a0195c                storyframe_cream_unlock_3_dlg_en
                0x0000000008a01978                Palette_storyframe_cream_unlock_3_dlg_fr
                0x0000000008a01b78                Tiles_storyframe_cream_unlock_3_dlg_fr
                0x0000000008a02078                Tilemap_storyframe_cream_unlock_3_dlg_fr
                0x0000000008a021a4                storyframe_cream_unlock_3_dlg_fr
                0x0000000008a021c0                Palette_storyframe_cream_unlock_3_dlg_de
                0x0000000008a023c0                Tiles_storyframe_cream_unlock_3_dlg_de
                0x0000000008a029c0                Tilemap_storyframe_cream_unlock_3_dlg_de
                0x0000000008a02aec                storyframe_cream_unlock_3_dlg_de
                0x0000000008a02b08                Palette_storyframe_cream_unlock_3_dlg_it
                0x0000000008a02d08                Tiles_storyframe_cream_unlock_3_dlg_it
                0x0000000008a031a8                Tilemap_storyframe_cream_unlock_3_dlg_it
                0x0000000008a032d4                storyframe_cream_unlock_3_dlg_it
                0x0000000008a032f0                Palette_storyframe_cream_unlock_3_dlg_jp
                0x0000000008a034f0                Tiles_storyframe_cream_unlock_3_dlg_jp
                0x0000000008a03990                Tilemap_storyframe_cream_unlock_3_dlg_jp
                0x0000000008a03abc                storyframe_cream_unlock_3_dlg_jp
                0x0000000008a03ad8                Palette_storyframe_cream_unlock_3_dlg_es
                0x0000000008a03cd8                Tiles_storyframe_cream_unlock_3_dlg_es
                0x0000000008a04338                Tilemap_storyframe_cream_unlock_3_dlg_es
                0x0000000008a04464                storyframe_cream_unlock_3_dlg_es
                0x0000000008a04480                Palette_storyframe_cream_unlocked_en
                0x0000000008a04680                Tiles_storyframe_cream_unlocked_en
                0x0000000008a04a60                Tilemap_storyframe_cream_unlocked_en
                0x0000000008a04b8c                storyframe_cream_unlocked_en
                0x0000000008a04ba8                Palette_storyframe_cream_unlocked_fr
                0x0000000008a04da8                Tiles_storyframe_cream_unlocked_fr
                0x0000000008a05188                Tilemap_storyframe_cream_unlocked_fr
                0x0000000008a052b4                storyframe_cream_unlocked_fr
                0x0000000008a052d0                Palette_storyframe_cream_unlocked_de
                0x0000000008a054d0                Tiles_storyframe_cream_unlocked_de
                0x0000000008a058b0                Tilemap_storyframe_cream_unlocked_de
                0x0000000008a059dc                storyframe_cream_unlocked_de
                0x0000000008a059f8                Palette_storyframe_cream_unlocked_it
                0x0000000008a05bf8                Tiles_storyframe_cream_unlocked_it
                0x0000000008a06358                Tilemap_storyframe_cream_unlocked_it
                0x0000000008a06484                storyframe_cream_unlocked_it
                0x0000000008a064a0                Palette_storyframe_cream_unlocked_jp
                0x0000000008a066a0                Tiles_storyframe_cream_unlocked_jp
                0x0000000008a07200                Tilemap_storyframe_cream_unlocked_jp
                0x0000000008a0732c                storyframe_cream_unlocked_jp
                0x0000000008a07348                Palette_storyframe_cream_unlocked_es
                0x0000000008a07548                Tiles_storyframe_cream_unlocked_es
                0x0000000008a07b48                Tilemap_storyframe_cream_unlocked_es
                0x0000000008a07c74                storyframe_cream_unlocked_es
                0x0000000008a07c90                Palette_storyframe_knuckles_unlock_0
                0x0000000008a07e90                Tiles_storyframe_knuckles_unlock_0
                0x0000000008a09c90                Tilemap_storyframe_knuckles_unlock_0
                0x0000000008a0a140                storyframe_knuckles_unlock_0
                0x0000000008a0a15c                Palette_storyframe_knuckles_unlock_0_dlg_en
                0x0000000008a0a35c                Tiles_storyframe_knuckles_unlock_0_dlg_en
                0x0000000008a0ac5c                Tilemap_storyframe_knuckles_unlock_0_dlg_en
                0x0000000008a0ad88                storyframe_knuckles_unlock_0_dlg_en
                0x0000000008a0ada4                Palette_storyframe_knuckles_unlock_0_dlg_fr
                0x0000000008a0afa4                Tiles_storyframe_knuckles_unlock_0_dlg_fr
                0x0000000008a0b584                Tilemap_storyframe_knuckles_unlock_0_dlg_fr
                0x0000000008a0b6b0                storyframe_knuckles_unlock_0_dlg_fr
                0x0000000008a0b6cc                Palette_storyframe_knuckles_unlock_0_dlg_de
                0x0000000008a0b8cc                Tiles_storyframe_knuckles_unlock_0_dlg_de
                0x0000000008a0beac                Tilemap_storyframe_knuckles_unlock_0_dlg_de
                0x0000000008a0bfd8                storyframe_knuckles_unlock_0_dlg_de
                0x0000000008a0bff4                Palette_storyframe_knuckles_unlock_0_dlg_it
                0x0000000008a0c1f4                Tiles_storyframe_knuckles_unlock_0_dlg_it
                0x0000000008a0c6f4                Tilemap_storyframe_knuckles_unlock_0_dlg_it
                0x0000000008a0c820                storyframe_knuckles_unlock_0_dlg_it
                0x0000000008a0c83c                Palette_storyframe_knuckles_unlock_0_dlg_jp
                0x0000000008a0ca3c                Tiles_storyframe_knuckles_unlock_0_dlg_jp
                0x0000000008a0ce1c                Tilemap_storyframe_knuckles_unlock_0_dlg_jp
                0x0000000008a0cf48                storyframe_knuckles_unlock_0_dlg_jp
                0x0000000008a0cf64                Palette_storyframe_knuckles_unlock_0_dlg_es
                0x0000000008a0d164                Tiles_storyframe_knuckles_unlock_0_dlg_es
                0x0000000008a0d6e4                Tilemap_storyframe_knuckles_unlock_0_dlg_es
                0x0000000008a0d810                storyframe_knuckles_unlock_0_dlg_es
                0x0000000008a0d82c                Palette_storyframe_knuckles_unlock_1
                0x0000000008a0da2c                Tiles_storyframe_knuckles_unlock_1
                0x0000000008a0f44c                Tilemap_storyframe_knuckles_unlock_1
                0x0000000008a0f8fc                storyframe_knuckles_unlock_1
                0x0000000008a0f918                Palette_storyframe_knuckles_unlock_1_dlg_en
                0x0000000008a0fb18                Tiles_storyframe_knuckles_unlock_1_dlg_en
                0x0000000008a104d8                Tilemap_storyframe_knuckles_unlock_1_dlg_en
                0x0000000008a10604                storyframe_knuckles_unlock_1_dlg_en
                0x0000000008a10620                Palette_storyframe_knuckles_unlock_1_dlg_fr
                0x0000000008a10820                Tiles_storyframe_knuckles_unlock_1_dlg_fr
                0x0000000008a10e20                Tilemap_storyframe_knuckles_unlock_1_dlg_fr
                0x0000000008a10f4c                storyframe_knuckles_unlock_1_dlg_fr
                0x0000000008a10f68                Palette_storyframe_knuckles_unlock_1_dlg_de
                0x0000000008a11168                Tiles_storyframe_knuckles_unlock_1_dlg_de
                0x0000000008a11d88                Tilemap_storyframe_knuckles_unlock_1_dlg_de
                0x0000000008a11eb4                storyframe_knuckles_unlock_1_dlg_de
                0x0000000008a11ed0                Palette_storyframe_knuckles_unlock_1_dlg_it
                0x0000000008a120d0                Tiles_storyframe_knuckles_unlock_1_dlg_it
                0x0000000008a12c10                Tilemap_storyframe_knuckles_unlock_1_dlg_it
                0x0000000008a12d3c                storyframe_knuckles_unlock_1_dlg_it
                0x0000000008a12d58                Palette_storyframe_knuckles_unlock_1_dlg_jp
                0x0000000008a12f58                Tiles_storyframe_knuckles_unlock_1_dlg_jp
                0x0000000008a13598                Tilemap_storyframe_knuckles_unlock_1_dlg_jp
                0x0000000008a136c4                storyframe_knuckles_unlock_1_dlg_jp
                0x0000000008a136e0                Palette_storyframe_knuckles_unlock_1_dlg_es
                0x0000000008a138e0                Tiles_storyframe_knuckles_unlock_1_dlg_es
                0x0000000008a13ea0                Tilemap_storyframe_knuckles_unlock_1_dlg_es
                0x0000000008a13fcc                storyframe_knuckles_unlock_1_dlg_es
                0x0000000008a13fe8                Palette_storyframe_knuckles_unlock_2
                0x0000000008a141e8                Tiles_storyframe_knuckles_unlock_2
                0x0000000008a15e28                Tilemap_storyframe_knuckles_unlock_2
                0x0000000008a162d8                storyframe_knuckles_unlock_2
                0x0000000008a162f4                Palette_storyframe_knuckles_unlock_2_dlg_en
                0x0000000008a164f4                Tiles_storyframe_knuckles_unlock_2_dlg_en
                0x0000000008a16c74                Tilemap_storyframe_knuckles_unlock_2_dlg_en
                0x0000000008a16da0                storyframe_knuckles_unlock_2_dlg_en
                0x0000000008a16dbc                Palette_storyframe_knuckles_unlock_2_dlg_fr
                0x0000000008a16fbc                Tiles_storyframe_knuckles_unlock_2_dlg_fr
                0x0000000008a1747c                Tilemap_storyframe_knuckles_unlock_2_dlg_fr
                0x0000000008a175a8                storyframe_knuckles_unlock_2_dlg_fr
                0x0000000008a175c4                Palette_storyframe_knuckles_unlock_2_dlg_de
                0x0000000008a177c4                Tiles_storyframe_knuckles_unlock_2_dlg_de
                0x0000000008a17b64                Tilemap_storyframe_knuckles_unlock_2_dlg_de
                0x0000000008a17c90                storyframe_knuckles_unlock_2_dlg_de
                0x0000000008a17cac                Palette_storyframe_knuckles_unlock_2_dlg_it
                0x0000000008a17eac                Tiles_storyframe_knuckles_unlock_2_dlg_it
                0x0000000008a182cc                Tilemap_storyframe_knuckles_unlock_2_dlg_it
                0x0000000008a183f8                storyframe_knuckles_unlock_2_dlg_it
                0x0000000008a18414                Palette_storyframe_knuckles_unlock_2_dlg_jp
                0x0000000008a18614                Tiles_storyframe_knuckles_unlock_2_dlg_jp
                0x0000000008a18bd4                Tilemap_storyframe_knuckles_unlock_2_dlg_jp
                0x0000000008a18d00                storyframe_knuckles_unlock_2_dlg_jp
                0x0000000008a18d1c                Palette_storyframe_knuckles_unlock_2_dlg_es
                0x0000000008a18f1c                Tiles_storyframe_knuckles_unlock_2_dlg_es
                0x0000000008a196dc                Tilemap_storyframe_knuckles_unlock_2_dlg_es
                0x0000000008a19808                storyframe_knuckles_unlock_2_dlg_es
                0x0000000008a19824                Palette_storyframe_knuckles_unlock_3
                0x0000000008a19a24                Tiles_storyframe_knuckles_unlock_3
                0x0000000008a1b644                Tilemap_storyframe_knuckles_unlock_3
                0x0000000008a1baf4                storyframe_knuckles_unlock_3
                0x0000000008a1bb10                Palette_storyframe_knuckles_unlock_3_dlg_en
                0x0000000008a1bd10                Tiles_storyframe_knuckles_unlock_3_dlg_en
                0x0000000008a1c5b0                Tilemap_storyframe_knuckles_unlock_3_dlg_en
                0x0000000008a1c6dc                storyframe_knuckles_unlock_3_dlg_en
                0x0000000008a1c6f8                Palette_storyframe_knuckles_unlock_3_dlg_fr
                0x0000000008a1c8f8                Tiles_storyframe_knuckles_unlock_3_dlg_fr
                0x0000000008a1cef8                Tilemap_storyframe_knuckles_unlock_3_dlg_fr
                0x0000000008a1d024                storyframe_knuckles_unlock_3_dlg_fr
                0x0000000008a1d040                Palette_storyframe_knuckles_unlock_3_dlg_de
                0x0000000008a1d240                Tiles_storyframe_knuckles_unlock_3_dlg_de
                0x0000000008a1dba0                Tilemap_storyframe_knuckles_unlock_3_dlg_de
                0x0000000008a1dccc                storyframe_knuckles_unlock_3_dlg_de
                0x0000000008a1dce8                Palette_storyframe_knuckles_unlock_3_dlg_it
                0x0000000008a1dee8                Tiles_storyframe_knuckles_unlock_3_dlg_it
                0x0000000008a1e468                Tilemap_storyframe_knuckles_unlock_3_dlg_it
                0x0000000008a1e594                storyframe_knuckles_unlock_3_dlg_it
                0x0000000008a1e5b0                Palette_storyframe_knuckles_unlock_3_dlg_jp
                0x0000000008a1e7b0                Tiles_storyframe_knuckles_unlock_3_dlg_jp
                0x0000000008a1ed10                Tilemap_storyframe_knuckles_unlock_3_dlg_jp
                0x0000000008a1ee3c                storyframe_knuckles_unlock_3_dlg_jp
                0x0000000008a1ee58                Palette_storyframe_knuckles_unlock_3_dlg_es
                0x0000000008a1f058                Tiles_storyframe_knuckles_unlock_3_dlg_es
                0x0000000008a1f618                Tilemap_storyframe_knuckles_unlock_3_dlg_es
                0x0000000008a1f744                storyframe_knuckles_unlock_3_dlg_es
                0x0000000008a1f760                Palette_storyframe_knuckles_unlocked_en
                0x0000000008a1f960                Tiles_storyframe_knuckles_unlocked_en
                0x0000000008a1fd80                Tilemap_storyframe_knuckles_unlocked_en
                0x0000000008a1feac                storyframe_knuckles_unlocked_en
                0x0000000008a1fec8                Palette_storyframe_knuckles_unlocked_fr
                0x0000000008a200c8                Tiles_storyframe_knuckles_unlocked_fr
                0x0000000008a204e8                Tilemap_storyframe_knuckles_unlocked_fr
                0x0000000008a20614                storyframe_knuckles_unlocked_fr
                0x0000000008a20630                Palette_storyframe_knuckles_unlocked_de
                0x0000000008a20830                Tiles_storyframe_knuckles_unlocked_de
                0x0000000008a20c10                Tilemap_storyframe_knuckles_unlocked_de
                0x0000000008a20d3c                storyframe_knuckles_unlocked_de
                0x0000000008a20d58                Palette_storyframe_knuckles_unlocked_it
                0x0000000008a20f58                Tiles_storyframe_knuckles_unlocked_it
                0x0000000008a21778                Tilemap_storyframe_knuckles_unlocked_it
                0x0000000008a218a4                storyframe_knuckles_unlocked_it
                0x0000000008a218c0                Palette_storyframe_knuckles_unlocked_jp
                0x0000000008a21ac0                Tiles_storyframe_knuckles_unlocked_jp
                0x0000000008a22720                Tilemap_storyframe_knuckles_unlocked_jp
                0x0000000008a2284c                storyframe_knuckles_unlocked_jp
                0x0000000008a22868                Palette_storyframe_knuckles_unlocked_es
                0x0000000008a22a68                Tiles_storyframe_knuckles_unlocked_es
                0x0000000008a23148                Tilemap_storyframe_knuckles_unlocked_es
                0x0000000008a23274                storyframe_knuckles_unlocked_es
                0x0000000008a23290                Palette_storyframe_tails_unlock_0
                0x0000000008a23490                Tiles_storyframe_tails_unlock_0
                0x0000000008a252b0                Tilemap_storyframe_tails_unlock_0
                0x0000000008a25760                storyframe_tails_unlock_0
                0x0000000008a2577c                Palette_storyframe_tails_unlock_0_dlg_en
                0x0000000008a2597c                Tiles_storyframe_tails_unlock_0_dlg_en
                0x0000000008a25cdc                Tilemap_storyframe_tails_unlock_0_dlg_en
                0x0000000008a25e08                storyframe_tails_unlock_0_dlg_en
                0x0000000008a25e24                Palette_storyframe_tails_unlock_0_dlg_fr
                0x0000000008a26024                Tiles_storyframe_tails_unlock_0_dlg_fr
                0x0000000008a26204                Tilemap_storyframe_tails_unlock_0_dlg_fr
                0x0000000008a26330                storyframe_tails_unlock_0_dlg_fr
                0x0000000008a2634c                Palette_storyframe_tails_unlock_0_dlg_de
                0x0000000008a2654c                Tiles_storyframe_tails_unlock_0_dlg_de
                0x0000000008a266ec                Tilemap_storyframe_tails_unlock_0_dlg_de
                0x0000000008a26818                storyframe_tails_unlock_0_dlg_de
                0x0000000008a26834                Palette_storyframe_tails_unlock_0_dlg_it
                0x0000000008a26a34                Tiles_storyframe_tails_unlock_0_dlg_it
                0x0000000008a26c14                Tilemap_storyframe_tails_unlock_0_dlg_it
                0x0000000008a26d40                storyframe_tails_unlock_0_dlg_it
                0x0000000008a26d5c                Palette_storyframe_tails_unlock_0_dlg_jp
                0x0000000008a26f5c                Tiles_storyframe_tails_unlock_0_dlg_jp
                0x0000000008a2723c                Tilemap_storyframe_tails_unlock_0_dlg_jp
                0x0000000008a27368                storyframe_tails_unlock_0_dlg_jp
                0x0000000008a27384                Palette_storyframe_tails_unlock_0_dlg_es
                0x0000000008a27584                Tiles_storyframe_tails_unlock_0_dlg_es
                0x0000000008a277c4                Tilemap_storyframe_tails_unlock_0_dlg_es
                0x0000000008a278f0                storyframe_tails_unlock_0_dlg_es
                0x0000000008a2790c                Palette_storyframe_tails_unlock_1
                0x0000000008a27b0c                Tiles_storyframe_tails_unlock_1
                0x0000000008a2970c                Tilemap_storyframe_tails_unlock_1
                0x0000000008a29bbc                storyframe_tails_unlock_1
                0x0000000008a29bd8                Palette_storyframe_tails_unlock_1_dlg_en
                0x0000000008a29dd8                Tiles_storyframe_tails_unlock_1_dlg_en
                0x0000000008a2ab18                Tilemap_storyframe_tails_unlock_1_dlg_en
                0x0000000008a2ac44                storyframe_tails_unlock_1_dlg_en
                0x0000000008a2ac60                Palette_storyframe_tails_unlock_1_dlg_fr
                0x0000000008a2ae60                Tiles_storyframe_tails_unlock_1_dlg_fr
                0x0000000008a2b520                Tilemap_storyframe_tails_unlock_1_dlg_fr
                0x0000000008a2b64c                storyframe_tails_unlock_1_dlg_fr
                0x0000000008a2b668                Palette_storyframe_tails_unlock_1_dlg_de
                0x0000000008a2b868                Tiles_storyframe_tails_unlock_1_dlg_de
                0x0000000008a2bf88                Tilemap_storyframe_tails_unlock_1_dlg_de
                0x0000000008a2c0b4                storyframe_tails_unlock_1_dlg_de
                0x0000000008a2c0d0                Palette_storyframe_tails_unlock_1_dlg_it
                0x0000000008a2c2d0                Tiles_storyframe_tails_unlock_1_dlg_it
                0x0000000008a2d050                Tilemap_storyframe_tails_unlock_1_dlg_it
                0x0000000008a2d17c                storyframe_tails_unlock_1_dlg_it
                0x0000000008a2d198                Palette_storyframe_tails_unlock_1_dlg_jp
                0x0000000008a2d398                Tiles_storyframe_tails_unlock_1_dlg_jp
                0x0000000008a2dc58                Tilemap_storyframe_tails_unlock_1_dlg_jp
                0x0000000008a2dd84                storyframe_tails_unlock_1_dlg_jp
                0x0000000008a2dda0                Palette_storyframe_tails_unlock_1_dlg_es
                0x0000000008a2dfa0                Tiles_storyframe_tails_unlock_1_dlg_es
                0x0000000008a2ec40                Tilemap_storyframe_tails_unlock_1_dlg_es
                0x0000000008a2ed6c                storyframe_tails_unlock_1_dlg_es
                0x0000000008a2ed88                Palette_storyframe_tails_unlock_2
                0x0000000008a2ef88                Tiles_storyframe_tails_unlock_2
                0x0000000008a30888                Tilemap_storyframe_tails_unlock_2
                0x0000000008a30d38                storyframe_tails_unlock_2
                0x0000000008a30d54                Palette_storyframe_tails_unlock_2_dlg_en
                0x0000000008a30f54                Tiles_storyframe_tails_unlock_2_dlg_en
                0x0000000008a31674                Tilemap_storyframe_tails_unlock_2_dlg_en
                0x0000000008a317a0                storyframe_tails_unlock_2_dlg_en
                0x0000000008a317bc                Palette_storyframe_tails_unlock_2_dlg_fr
                0x0000000008a319bc                Tiles_storyframe_tails_unlock_2_dlg_fr
                0x0000000008a31ebc                Tilemap_storyframe_tails_unlock_2_dlg_fr
                0x0000000008a31fe8                storyframe_tails_unlock_2_dlg_fr
                0x0000000008a32004                Palette_storyframe_tails_unlock_2_dlg_de
                0x0000000008a32204                Tiles_storyframe_tails_unlock_2_dlg_de
                0x0000000008a32664                Tilemap_storyframe_tails_unlock_2_dlg_de
                0x0000000008a32790                storyframe_tails_unlock_2_dlg_de
                0x0000000008a327ac                Palette_storyframe_tails_unlock_2_dlg_it
                0x0000000008a329ac                Tiles_storyframe_tails_unlock_2_dlg_it
                0x0000000008a32e0c                Tilemap_storyframe_tails_unlock_2_dlg_it
                0x0000000008a32f38                storyframe_tails_unlock_2_dlg_it
                0x0000000008a32f54                Palette_storyframe_tails_unlock_2_dlg_jp
                0x0000000008a33154                Tiles_storyframe_tails_unlock_2_dlg_jp
                0x0000000008a33694                Tilemap_storyframe_tails_unlock_2_dlg_jp
                0x0000000008a337c0                storyframe_tails_unlock_2_dlg_jp
                0x0000000008a337dc                Palette_storyframe_tails_unlock_2_dlg_es
                0x0000000008a339dc                Tiles_storyframe_tails_unlock_2_dlg_es
                0x0000000008a3423c                Tilemap_storyframe_tails_unlock_2_dlg_es
                0x0000000008a34368                storyframe_tails_unlock_2_dlg_es
                0x0000000008a34384                Palette_storyframe_tails_unlock_3
                0x0000000008a34584                Tiles_storyframe_tails_unlock_3
                0x0000000008a362a4                Tilemap_storyframe_tails_unlock_3
                0x0000000008a36754                storyframe_tails_unlock_3
                0x0000000008a36770                Palette_storyframe_tails_unlock_3_dlg_en
                0x0000000008a36970                Tiles_storyframe_tails_unlock_3_dlg_en
                0x0000000008a36d90                Tilemap_storyframe_tails_unlock_3_dlg_en
                0x0000000008a36ebc                storyframe_tails_unlock_3_dlg_en
                0x0000000008a36ed8                Palette_storyframe_tails_unlock_3_dlg_fr
                0x0000000008a370d8                Tiles_storyframe_tails_unlock_3_dlg_fr
                0x0000000008a37338                Tilemap_storyframe_tails_unlock_3_dlg_fr
                0x0000000008a37464                storyframe_tails_unlock_3_dlg_fr
                0x0000000008a37480                Palette_storyframe_tails_unlock_3_dlg_de
                0x0000000008a37680                Tiles_storyframe_tails_unlock_3_dlg_de
                0x0000000008a37920                Tilemap_storyframe_tails_unlock_3_dlg_de
                0x0000000008a37a4c                storyframe_tails_unlock_3_dlg_de
                0x0000000008a37a68                Palette_storyframe_tails_unlock_3_dlg_it
                0x0000000008a37c68                Tiles_storyframe_tails_unlock_3_dlg_it
                0x0000000008a37e88                Tilemap_storyframe_tails_unlock_3_dlg_it
                0x0000000008a37fb4                storyframe_tails_unlock_3_dlg_it
                0x0000000008a37fd0                Palette_storyframe_tails_unlock_3_dlg_jp
                0x0000000008a381d0                Tiles_storyframe_tails_unlock_3_dlg_jp
                0x0000000008a38510                Tilemap_storyframe_tails_unlock_3_dlg_jp
                0x0000000008a3863c                storyframe_tails_unlock_3_dlg_jp
                0x0000000008a38658                Palette_storyframe_tails_unlock_3_dlg_es
                0x0000000008a38858                Tiles_storyframe_tails_unlock_3_dlg_es
                0x0000000008a38b38                Tilemap_storyframe_tails_unlock_3_dlg_es
                0x0000000008a38c64                storyframe_tails_unlock_3_dlg_es
                0x0000000008a38c80                Palette_storyframe_tails_unlocked_en
                0x0000000008a38e80                Tiles_storyframe_tails_unlocked_en
                0x0000000008a39220                Tilemap_storyframe_tails_unlocked_en
                0x0000000008a3934c                storyframe_tails_unlocked_en
                0x0000000008a39368                Palette_storyframe_tails_unlocked_fr
                0x0000000008a39568                Tiles_storyframe_tails_unlocked_fr
                0x0000000008a39948                Tilemap_storyframe_tails_unlocked_fr
                0x0000000008a39a74                storyframe_tails_unlocked_fr
                0x0000000008a39a90                Palette_storyframe_tails_unlocked_de
                0x0000000008a39c90                Tiles_storyframe_tails_unlocked_de
                0x0000000008a3a030                Tilemap_storyframe_tails_unlocked_de
                0x0000000008a3a15c                storyframe_tails_unlocked_de
                0x0000000008a3a178                Palette_storyframe_tails_unlocked_it
                0x0000000008a3a378                Tiles_storyframe_tails_unlocked_it
                0x0000000008a3a9d8                Tilemap_storyframe_tails_unlocked_it
                0x0000000008a3ab04                storyframe_tails_unlocked_it
                0x0000000008a3ab20                Palette_storyframe_tails_unlocked_jp
                0x0000000008a3ad20                Tiles_storyframe_tails_unlocked_jp
                0x0000000008a3b8e0                Tilemap_storyframe_tails_unlocked_jp
                0x0000000008a3ba0c                storyframe_tails_unlocked_jp
                0x0000000008a3ba28                Palette_storyframe_tails_unlocked_es
                0x0000000008a3bc28                Tiles_storyframe_tails_unlocked_es
                0x0000000008a3c208                Tilemap_storyframe_tails_unlocked_es
                0x0000000008a3c334                storyframe_tails_unlocked_es
                0x0000000008a3c350                Palette_unlocked_amy_it
                0x0000000008a3c550                Tiles_unlocked_amy_it
                0x0000000008a3d2d0                Tilemap_unlocked_amy_it
                0x0000000008a3d474                unlocked_amy_it
                0x0000000008a3d490                Palette_storyframe_knuckles_unlock_1_sepia
                0x0000000008a3d690                Tiles_storyframe_knuckles_unlock_1_sepia
                0x0000000008a3efb0                Tilemap_storyframe_knuckles_unlock_1_sepia
                0x0000000008a3f460                storyframe_knuckles_unlock_1_sepia
                0x0000000008a3f47c                Palette_cutscene_final_ending_fall_bg
                0x0000000008a3f67c                Tiles_cutscene_final_ending_fall_bg
                0x0000000008a4123c                Tilemap_cutscene_final_ending_fall_bg
                0x0000000008a41a3c                cutscene_final_ending_fall_bg
                0x0000000008a41a58                Palette_unlocked_amy_jp
                0x0000000008a41c58                Tiles_unlocked_amy_jp
                0x0000000008a42638                Tilemap_unlocked_amy_jp
                0x0000000008a427dc                unlocked_amy_jp
                0x0000000008a427f8                Palette_storyframe_cream_unlock_3_sepia
                0x0000000008a429f8                Tiles_storyframe_cream_unlock_3_sepia
                0x0000000008a44518                Tilemap_storyframe_cream_unlock_3_sepia
                0x0000000008a449c8                storyframe_cream_unlock_3_sepia
                0x0000000008a449e4                Palette_cutscene_final_ending_fall_clouds
                0x0000000008a44be4                Tiles_cutscene_final_ending_fall_clouds
                0x0000000008a48544                Tilemap_cutscene_final_ending_fall_clouds
                0x0000000008a48d44                cutscene_final_ending_fall_clouds
                0x0000000008a48d60                Palette_unlocked_amy_es
                0x0000000008a48f60                Tiles_unlocked_amy_es
                0x0000000008a49be0                Tilemap_unlocked_amy_es
                0x0000000008a49d84                unlocked_amy_es
                0x0000000008a49da0                Palette_credits_0
                0x0000000008a49fa0                Tiles_credits_0
                0x0000000008a4a760                Tilemap_credits_0
                0x0000000008a4ac10                credits_0
                0x0000000008a4ac2c                Palette_cutscene_final_ending_fall_bg_dark
                0x0000000008a4ae2c                Tiles_cutscene_final_ending_fall_bg_dark
                0x0000000008a4beac                Tilemap_cutscene_final_ending_fall_bg_dark
                0x0000000008a4c6ac                cutscene_final_ending_fall_bg_dark
                0x0000000008a4c6c8                Palette_credits_sa2_logo_jp
                0x0000000008a4c8c8                Tiles_credits_sa2_logo_jp
                0x0000000008a4f748                Tilemap_credits_sa2_logo_jp
                0x0000000008a4fbf8                credits_sa2_logo_jp
                0x0000000008a4fc14                Palette_credits_1
                0x0000000008a4fe14                Tiles_credits_1
                0x0000000008a500b4                Tilemap_credits_1
                0x0000000008a50564                credits_1
                0x0000000008a50580                Palette_cutscene_final_ending_fall_bg_dark_2
                0x0000000008a50780                Tiles_cutscene_final_ending_fall_bg_dark_2
                0x0000000008a520c0                Tilemap_cutscene_final_ending_fall_bg_dark_2
                0x0000000008a528c0                cutscene_final_ending_fall_bg_dark_2
                0x0000000008a528dc                Palette_credits_sa2_logo_en
                0x0000000008a52adc                Tiles_credits_sa2_logo_en
                0x0000000008a5599c                Tilemap_credits_sa2_logo_en
                0x0000000008a55e4c                credits_sa2_logo_en
                0x0000000008a55e68                Palette_credits_2
                0x0000000008a56068                Tiles_credits_2
                0x0000000008a56628                Tilemap_credits_2
                0x0000000008a56ad8                credits_2
                0x0000000008a56af4                Palette_collect_all_chaos_emeralds_jp
                0x0000000008a56cf4                Tiles_collect_all_chaos_emeralds_jp
                0x0000000008a59354                Tilemap_collect_all_chaos_emeralds_jp
                0x0000000008a59804                collect_all_chaos_emeralds_jp
                0x0000000008a59820                Palette_cutscene_final_ending_land_flower_field
                0x0000000008a59a20                Tiles_cutscene_final_ending_land_flower_field
                0x0000000008a5b7a0                Tilemap_cutscene_final_ending_land_flower_field
                0x0000000008a5bfa0                cutscene_final_ending_land_flower_field
                0x0000000008a5bfbc                Palette_credits_3
                0x0000000008a5c1bc                Tiles_credits_3
                0x0000000008a5c95c                Tilemap_credits_3
                0x0000000008a5ce0c                credits_3
                0x0000000008a5ce28                Palette_collect_all_chaos_emeralds_en
                0x0000000008a5d028                Tiles_collect_all_chaos_emeralds_en
                0x0000000008a5d748                Tilemap_collect_all_chaos_emeralds_en
                0x0000000008a5d8b0                collect_all_chaos_emeralds_en
                0x0000000008a5d8cc                Palette_cutscene_final_ending_land_bg_alt
                0x0000000008a5dacc                Tiles_cutscene_final_ending_land_bg_alt
                0x0000000008a5ebcc                Tilemap_cutscene_final_ending_land_bg_alt
                0x0000000008a5f3cc                cutscene_final_ending_land_bg_alt
                0x0000000008a5f3e8                Palette_credits_4
                0x0000000008a5f5e8                Tiles_credits_4
                0x0000000008a5fe48                Tilemap_credits_4
                0x0000000008a602f8                credits_4
                0x0000000008a60314                Palette_collect_all_chaos_emeralds_fr
                0x0000000008a60514                Tiles_collect_all_chaos_emeralds_fr
                0x0000000008a60f14                Tilemap_collect_all_chaos_emeralds_fr
                0x0000000008a6107c                collect_all_chaos_emeralds_fr
                0x0000000008a61098                Palette_cutscene_final_ending_land_fg
                0x0000000008a61298                Tiles_cutscene_final_ending_land_fg
                0x0000000008a62818                Tilemap_cutscene_final_ending_land_fg
                0x0000000008a63018                cutscene_final_ending_land_fg
                0x0000000008a63034                Palette_credits_5
                0x0000000008a63234                Tiles_credits_5
                0x0000000008a638b4                Tilemap_credits_5
                0x0000000008a63d64                credits_5
                0x0000000008a63d80                Palette_collect_all_chaos_emeralds_de
                0x0000000008a63f80                Tiles_collect_all_chaos_emeralds_de
                0x0000000008a64600                Tilemap_collect_all_chaos_emeralds_de
                0x0000000008a64768                collect_all_chaos_emeralds_de
                0x0000000008a64784                Palette_cutscene_final_ending_land_bg
                0x0000000008a64984                Tiles_cutscene_final_ending_land_bg
                0x0000000008a66424                Tilemap_cutscene_final_ending_land_bg
                0x0000000008a66c24                cutscene_final_ending_land_bg
                0x0000000008a66c40                Palette_credits_6
                0x0000000008a66e40                Tiles_credits_6
                0x0000000008a67480                Tilemap_credits_6
                0x0000000008a67930                credits_6
                0x0000000008a6794c                Palette_collect_all_chaos_emeralds_it
                0x0000000008a67b4c                Tiles_collect_all_chaos_emeralds_it
                0x0000000008a6846c                Tilemap_collect_all_chaos_emeralds_it
                0x0000000008a685d4                collect_all_chaos_emeralds_it
                0x0000000008a685f0                Palette_credits_7
                0x0000000008a687f0                Tiles_credits_7
                0x0000000008a68fd0                Tilemap_credits_7
                0x0000000008a69480                credits_7
                0x0000000008a6949c                Palette_collect_all_chaos_emeralds_es
                0x0000000008a6969c                Tiles_collect_all_chaos_emeralds_es
                0x0000000008a69fdc                Tilemap_collect_all_chaos_emeralds_es
                0x0000000008a6a144                collect_all_chaos_emeralds_es
                0x0000000008a6a160                Palette_credits_8
                0x0000000008a6a360                Tiles_credits_8
                0x0000000008a6a980                Tilemap_credits_8
                0x0000000008a6ae30                credits_8
                0x0000000008a6ae4c                Palette_unlocked_tiny_chao_garden_en
                0x0000000008a6b04c                Tiles_unlocked_tiny_chao_garden_en
                0x0000000008a6be0c                Tilemap_unlocked_tiny_chao_garden_en
                0x0000000008a6bfb0                unlocked_tiny_chao_garden_en
                0x0000000008a6bfcc                Palette_storyframe_sonic_catches_vanilla
                0x0000000008a6c1cc                Tiles_storyframe_sonic_catches_vanilla
                0x0000000008a6e0cc                Tilemap_storyframe_sonic_catches_vanilla
                0x0000000008a6e57c                storyframe_sonic_catches_vanilla
                0x0000000008a6e598                Palette_credits_9
                0x0000000008a6e798                Tiles_credits_9
                0x0000000008a6f658                Tilemap_credits_9
                0x0000000008a6fb08                credits_9
                0x0000000008a6fb24                Palette_unlocked_tiny_chao_garden_fr
                0x0000000008a6fd24                Tiles_unlocked_tiny_chao_garden_fr
                0x0000000008a70b44                Tilemap_unlocked_tiny_chao_garden_fr
                0x0000000008a70ce8                unlocked_tiny_chao_garden_fr
                0x0000000008a70d04                Palette_storyframe_sonic_finds_friends
                0x0000000008a70f04                Tiles_storyframe_sonic_finds_friends
                0x0000000008a72f84                Tilemap_storyframe_sonic_finds_friends
                0x0000000008a73434                storyframe_sonic_finds_friends
                0x0000000008a73450                Palette_credits_10
                0x0000000008a73650                Tiles_credits_10
                0x0000000008a74430                Tilemap_credits_10
                0x0000000008a748e0                credits_10
                0x0000000008a748fc                Palette_unlocked_tiny_chao_garden_de
                0x0000000008a74afc                Tiles_unlocked_tiny_chao_garden_de
                0x0000000008a75b1c                Tilemap_unlocked_tiny_chao_garden_de
                0x0000000008a75cc0                unlocked_tiny_chao_garden_de
                0x0000000008a75cdc                Palette_storyframe_sonic_pats_tails
                0x0000000008a75edc                Tiles_storyframe_sonic_pats_tails
                0x0000000008a77e9c                Tilemap_storyframe_sonic_pats_tails
                0x0000000008a7834c                storyframe_sonic_pats_tails
                0x0000000008a78368                Palette_credits_11
                0x0000000008a78568                Tiles_credits_11
                0x0000000008a78e48                Tilemap_credits_11
                0x0000000008a792f8                credits_11
                0x0000000008a79314                Palette_unlocked_tiny_chao_garden_it
                0x0000000008a79514                Tiles_unlocked_tiny_chao_garden_it
                0x0000000008a7a0f4                Tilemap_unlocked_tiny_chao_garden_it
                0x0000000008a7a298                unlocked_tiny_chao_garden_it
                0x0000000008a7a2b4                Palette_storyframe_cream_hugs_vanilla
                0x0000000008a7a4b4                Tiles_storyframe_cream_hugs_vanilla
                0x0000000008a7c4d4                Tilemap_storyframe_cream_hugs_vanilla
                0x0000000008a7c984                storyframe_cream_hugs_vanilla
                0x0000000008a7c9a0                Palette_credits_12
                0x0000000008a7cba0                Tiles_credits_12
                0x0000000008a7d4e0                Tilemap_credits_12
                0x0000000008a7d990                credits_12
                0x0000000008a7d9ac                Palette_unlocked_tiny_chao_garden_jp
                0x0000000008a7dbac                Tiles_unlocked_tiny_chao_garden_jp
                0x0000000008a7e80c                Tilemap_unlocked_tiny_chao_garden_jp
                0x0000000008a7ecbc                unlocked_tiny_chao_garden_jp
                0x0000000008a7ecd8                Palette_storyframe_cream_tails_vanilla_look_around
                0x0000000008a7eed8                Tiles_storyframe_cream_tails_vanilla_look_around
                0x0000000008a80f58                Tilemap_storyframe_cream_tails_vanilla_look_around
                0x0000000008a81408                storyframe_cream_tails_vanilla_look_around
                0x0000000008a81424                Palette_credits_13
                0x0000000008a81624                Tiles_credits_13
                0x0000000008a81f64                Tilemap_credits_13
                0x0000000008a82414                credits_13
                0x0000000008a82430                Palette_unlocked_tiny_chao_garden_es
                0x0000000008a82630                Tiles_unlocked_tiny_chao_garden_es
                0x0000000008a834d0                Tilemap_unlocked_tiny_chao_garden_es
                0x0000000008a83674                unlocked_tiny_chao_garden_es
                0x0000000008a83690                Palette_storyframe_cream_cheese_vanilla_happy
                0x0000000008a83890                Tiles_storyframe_cream_cheese_vanilla_happy
                0x0000000008a858d0                Tilemap_storyframe_cream_cheese_vanilla_happy
                0x0000000008a85d80                storyframe_cream_cheese_vanilla_happy
                0x0000000008a85d9c                Palette_credits_14
                0x0000000008a85f9c                Tiles_credits_14
                0x0000000008a86b9c                Tilemap_credits_14
                0x0000000008a8704c                credits_14
                0x0000000008a87068                Palette_unlocked_sound_test_en
                0x0000000008a87268                Tiles_unlocked_sound_test_en
                0x0000000008a87fc8                Tilemap_unlocked_sound_test_en
                0x0000000008a8816c                unlocked_sound_test_en
                0x0000000008a88188                Palette_unused_credits_frame_sonic_leaves
                0x0000000008a88388                Tiles_unused_credits_frame_sonic_leaves
                0x0000000008a88a08                Tilemap_unused_credits_frame_sonic_leaves
                0x0000000008a88eb8                unused_credits_frame_sonic_leaves
                0x0000000008a88ed4                Palette_credits_15
                0x0000000008a890d4                Tiles_credits_15
                0x0000000008a899b4                Tilemap_credits_15
                0x0000000008a89e64                credits_15
                0x0000000008a89e80                Palette_unlocked_sound_test_fr
                0x0000000008a8a080                Tiles_unlocked_sound_test_fr
                0x0000000008a8ad20                Tilemap_unlocked_sound_test_fr
                0x0000000008a8aec4                unlocked_sound_test_fr
                0x0000000008a8aee0                Palette_storyframe_sonic_leaves_0
                0x0000000008a8b0e0                Tiles_storyframe_sonic_leaves_0
                0x0000000008a8d4e0                Tilemap_storyframe_sonic_leaves_0
                0x0000000008a8d990                storyframe_sonic_leaves_0
                0x0000000008a8d9ac                Palette_credits_16
                0x0000000008a8dbac                Tiles_credits_16
                0x0000000008a8ef0c                Tilemap_credits_16
                0x0000000008a8f3bc                credits_16
                0x0000000008a8f3d8                Palette_unlocked_sound_test_de
                0x0000000008a8f5d8                Tiles_unlocked_sound_test_de
                0x0000000008a90538                Tilemap_unlocked_sound_test_de
                0x0000000008a906dc                unlocked_sound_test_de
                0x0000000008a906f8                Palette_storyframe_sonic_leaves_1
                0x0000000008a908f8                Tiles_storyframe_sonic_leaves_1
                0x0000000008a92cd8                Tilemap_storyframe_sonic_leaves_1
                0x0000000008a93188                storyframe_sonic_leaves_1
                0x0000000008a931a4                Palette_credits_17
                0x0000000008a933a4                Tiles_credits_17
                0x0000000008a94444                Tilemap_credits_17
                0x0000000008a948f4                credits_17
                0x0000000008a94910                Palette_unlocked_sound_test_it
                0x0000000008a94b10                Tiles_unlocked_sound_test_it
                0x0000000008a957f0                Tilemap_unlocked_sound_test_it
                0x0000000008a95994                unlocked_sound_test_it
                0x0000000008a959b0                Palette_storyframe_sonic_leaves_10
                0x0000000008a95bb0                Tiles_storyframe_sonic_leaves_10
                0x0000000008a97fd0                Tilemap_storyframe_sonic_leaves_10
                0x0000000008a98480                storyframe_sonic_leaves_10
                0x0000000008a9849c                Palette_credits_18
                0x0000000008a9869c                Tiles_credits_18
                0x0000000008a98fdc                Tilemap_credits_18
                0x0000000008a9948c                credits_18
                0x0000000008a994a8                Palette_unlocked_sound_test_jp
                0x0000000008a996a8                Tiles_unlocked_sound_test_jp
                0x0000000008a9a428                Tilemap_unlocked_sound_test_jp
                0x0000000008a9a5cc                unlocked_sound_test_jp
                0x0000000008a9a5e8                Palette_storyframe_sonic_leaves_2
                0x0000000008a9a7e8                Tiles_storyframe_sonic_leaves_2
                0x0000000008a9cbc8                Tilemap_storyframe_sonic_leaves_2
                0x0000000008a9d078                storyframe_sonic_leaves_2
                0x0000000008a9d094                Palette_credits_19
                0x0000000008a9d294                Tiles_credits_19
                0x0000000008a9d814                Tilemap_credits_19
                0x0000000008a9dcc4                credits_19
                0x0000000008a9dce0                Palette_unlocked_sound_test_es
                0x0000000008a9dee0                Tiles_unlocked_sound_test_es
                0x0000000008a9ef80                Tilemap_unlocked_sound_test_es
                0x0000000008a9f124                unlocked_sound_test_es
                0x0000000008a9f140                Palette_storyframe_sonic_leaves_3
                0x0000000008a9f340                Tiles_storyframe_sonic_leaves_3
                0x0000000008aa1700                Tilemap_storyframe_sonic_leaves_3
                0x0000000008aa1bb0                storyframe_sonic_leaves_3
                0x0000000008aa1bcc                Palette_credits_20
                0x0000000008aa1dcc                Tiles_credits_20
                0x0000000008aa30ac                Tilemap_credits_20
                0x0000000008aa355c                credits_20
                0x0000000008aa3578                Palette_unlocked_bosses_time_attack_en
                0x0000000008aa3778                Tiles_unlocked_bosses_time_attack_en
                0x0000000008aa43b8                Tilemap_unlocked_bosses_time_attack_en
                0x0000000008aa455c                unlocked_bosses_time_attack_en
                0x0000000008aa4578                Palette_storyframe_sonic_leaves_4
                0x0000000008aa4778                Tiles_storyframe_sonic_leaves_4
                0x0000000008aa67f8                Tilemap_storyframe_sonic_leaves_4
                0x0000000008aa6ca8                storyframe_sonic_leaves_4
                0x0000000008aa6cc4                Palette_credits_21
                0x0000000008aa6ec4                Tiles_credits_21
                0x0000000008aa7744                Tilemap_credits_21
                0x0000000008aa7bf4                credits_21
                0x0000000008aa7c10                Palette_unlocked_bosses_time_attack_fr
                0x0000000008aa7e10                Tiles_unlocked_bosses_time_attack_fr
                0x0000000008aa8d90                Tilemap_unlocked_bosses_time_attack_fr
                0x0000000008aa8f34                unlocked_bosses_time_attack_fr
                0x0000000008aa8f50                Palette_storyframe_sonic_leaves_5
                0x0000000008aa9150                Tiles_storyframe_sonic_leaves_5
                0x0000000008aab210                Tilemap_storyframe_sonic_leaves_5
                0x0000000008aab6c0                storyframe_sonic_leaves_5
                0x0000000008aab6dc                Palette_credits_22
                0x0000000008aab8dc                Tiles_credits_22
                0x0000000008aac95c                Tilemap_credits_22
                0x0000000008aace0c                credits_22
                0x0000000008aace28                Palette_unlocked_bosses_time_attack_de
                0x0000000008aad028                Tiles_unlocked_bosses_time_attack_de
                0x0000000008aadea8                Tilemap_unlocked_bosses_time_attack_de
                0x0000000008aae04c                unlocked_bosses_time_attack_de
                0x0000000008aae068                Palette_storyframe_sonic_leaves_6
                0x0000000008aae268                Tiles_storyframe_sonic_leaves_6
                0x0000000008ab03c8                Tilemap_storyframe_sonic_leaves_6
                0x0000000008ab0878                storyframe_sonic_leaves_6
                0x0000000008ab0894                Palette_credits_23
                0x0000000008ab0a94                Tiles_credits_23
                0x0000000008ab13d4                Tilemap_credits_23
                0x0000000008ab1884                credits_23
                0x0000000008ab18a0                Palette_unlocked_bosses_time_attack_it
                0x0000000008ab1aa0                Tiles_unlocked_bosses_time_attack_it
                0x0000000008ab2bc0                Tilemap_unlocked_bosses_time_attack_it
                0x0000000008ab2d64                unlocked_bosses_time_attack_it
                0x0000000008ab2d80                Palette_storyframe_sonic_leaves_7
                0x0000000008ab2f80                Tiles_storyframe_sonic_leaves_7
                0x0000000008ab52a0                Tilemap_storyframe_sonic_leaves_7
                0x0000000008ab5750                storyframe_sonic_leaves_7
                0x0000000008ab576c                Palette_credits_24
                0x0000000008ab596c                Tiles_credits_24
                0x0000000008ab5dcc                Tilemap_credits_24
                0x0000000008ab627c                credits_24
                0x0000000008ab6298                Palette_unlocked_bosses_time_attack_jp
                0x0000000008ab6498                Tiles_unlocked_bosses_time_attack_jp
                0x0000000008ab7458                Tilemap_unlocked_bosses_time_attack_jp
                0x0000000008ab75fc                unlocked_bosses_time_attack_jp
                0x0000000008ab7618                Palette_storyframe_sonic_leaves_8
                0x0000000008ab7818                Tiles_storyframe_sonic_leaves_8
                0x0000000008ab9c38                Tilemap_storyframe_sonic_leaves_8
                0x0000000008aba0e8                storyframe_sonic_leaves_8
                0x0000000008aba104                Palette_credits_copyright
                0x0000000008aba304                Tiles_credits_copyright
                0x0000000008abaa24                Tilemap_credits_copyright
                0x0000000008abaad8                credits_copyright
                0x0000000008abaaf4                Palette_unlocked_bosses_time_attack_es
                0x0000000008abacf4                Tiles_unlocked_bosses_time_attack_es
                0x0000000008abba94                Tilemap_unlocked_bosses_time_attack_es
                0x0000000008abbc38                unlocked_bosses_time_attack_es
                0x0000000008abbc54                Palette_storyframe_sonic_leaves_9
                0x0000000008abbe54                Tiles_storyframe_sonic_leaves_9
                0x0000000008abe274                Tilemap_storyframe_sonic_leaves_9
                0x0000000008abe724                storyframe_sonic_leaves_9
                0x0000000008abe740                Palette_credits_presented_by_sega
                0x0000000008abe940                Tiles_credits_presented_by_sega
                0x0000000008abff20                Tilemap_credits_presented_by_sega
                0x0000000008ac03d0                credits_presented_by_sega
                0x0000000008ac03ec                Palette_unlocked_amy_en
                0x0000000008ac05ec                Tiles_unlocked_amy_en
                0x0000000008ac0eec                Tilemap_unlocked_amy_en
                0x0000000008ac1090                unlocked_amy_en
                0x0000000008ac10ac                Palette_storyframe_cream_unlock_0_sepia
                0x0000000008ac12ac                Tiles_storyframe_cream_unlock_0_sepia
                0x0000000008ac2f8c                Tilemap_storyframe_cream_unlock_0_sepia
                0x0000000008ac343c                storyframe_cream_unlock_0_sepia
                0x0000000008ac3458                Palette_unused_credits_frame_manual_production_copy
                0x0000000008ac3658                Tiles_unused_credits_frame_manual_production_copy
                0x0000000008ac4858                Tilemap_unused_credits_frame_manual_production_copy
                0x0000000008ac4d08                unused_credits_frame_manual_production_copy
                0x0000000008ac4d24                Palette_unlocked_amy_fr
                0x0000000008ac4f24                Tiles_unlocked_amy_fr
                0x0000000008ac5d44                Tilemap_unlocked_amy_fr
                0x0000000008ac5ee8                unlocked_amy_fr
                0x0000000008ac5f04                Palette_storyframe_cream_unlock_1_sepia
                0x0000000008ac6104                Tiles_storyframe_cream_unlock_1_sepia
                0x0000000008ac7bc4                Tilemap_storyframe_cream_unlock_1_sepia
                0x0000000008ac8074                storyframe_cream_unlock_1_sepia
                0x0000000008ac8090                Palette_unlocked_amy_de
                0x0000000008ac8290                Tiles_unlocked_amy_de
                0x0000000008ac9210                Tilemap_unlocked_amy_de
                0x0000000008ac93b4                unlocked_amy_de
                0x0000000008ac93d0                Palette_storyframe_tails_unlock_1_sepia
                0x0000000008ac95d0                Tiles_storyframe_tails_unlock_1_sepia
                0x0000000008acb1b0                Tilemap_storyframe_tails_unlock_1_sepia
                0x0000000008acb660                storyframe_tails_unlock_1_sepia
                0x0000000008acb67c                Palette_cutscene_post_extra_boss_bg
                0x0000000008acb87c                Tiles_cutscene_post_extra_boss_bg
                0x0000000008accc5c                Tilemap_cutscene_post_extra_boss_bg
                0x0000000008acdc5c                cutscene_post_extra_boss_bg
 src/lib/m4a/m4a_tables.o(.rodata)
 .rodata        0x0000000008acdc78      0x2d8 src/lib/m4a/m4a_tables.o
                0x0000000008acdc78                gMPlayJumpTableTemplate
                0x0000000008acdd08                gScaleTable
                0x0000000008acddbc                gFreqTable
                0x0000000008acddec                gPcmSamplesPerVBlankTable
                0x0000000008acde04                gCgbScaleTable
                0x0000000008acde88                gCgbFreqTable
                0x0000000008acdea0                gNoiseTable
                0x0000000008acdedc                gCgb3Vol
                0x0000000008acdeec                gClockTable
                0x0000000008acdf20                gXcmdTable
 data/sound_data.o(.rodata)
 .rodata        0x0000000008acdf50   0x18564b data/sound_data.o
                0x0000000008acdf50                voicegroup000
                0x0000000008ace3a0                voicegroup001
                0x0000000008ace550                voicegroup002
                0x0000000008ace784                voicegroup003
                0x0000000008acebd4                voicegroup004
                0x0000000008aced90                voicegroup005
                0x0000000008acf384                voicegroup006
                0x0000000008acf510                voicegroup007
                0x0000000008acfb10                voicegroup008
                0x0000000008ad0110                voicegroup009
                0x0000000008ad0710                voicegroup010
                0x0000000008ad0d10                voicegroup011
                0x0000000008ad1160                voicegroup012
                0x0000000008ad1544                voicegroup013
                0x0000000008ad1b44                voicegroup014
                0x0000000008ad1f94                voicegroup015
                0x0000000008ad2108                voicegroup016
                0x0000000008ad2558                voicegroup017
                0x0000000008ad2948                voicegroup018
                0x0000000008ad2abc                voicegroup019
                0x0000000008ad30bc                voicegroup020
                0x0000000008ad36bc                voicegroup021
                0x0000000008ad3cbc                voicegroup022
                0x0000000008ad42bc                voicegroup023
                0x0000000008ad470c                voicegroup024
                0x0000000008ad4f1c                gMPlayTable
                0x0000000008ad4f4c                gSongTable
                0x0000000008ad5f28                DirectSoundWaveData_1
                0x0000000008ad73fc                DirectSoundWaveData_2
                0x0000000008ad8810                DirectSoundWaveData_3
                0x0000000008ad9140                DirectSoundWaveData_4
                0x0000000008ad98b0                DirectSoundWaveData_5
                0x0000000008adb1a4                DirectSoundWaveData_6
                0x0000000008ade2d0                DirectSoundWaveData_7
                0x0000000008ade918                DirectSoundWaveData_8
                0x0000000008ae200c                DirectSoundWaveData_9
                0x0000000008ae4fe8                DirectSoundWaveData_10
                0x0000000008ae7f2c                DirectSoundWaveData_11
                0x0000000008ae98b4                DirectSoundWaveData_12
                0x0000000008ae9bb4                DirectSoundWaveData_13
                0x0000000008aea788                DirectSoundWaveData_14
                0x0000000008aed36c                DirectSoundWaveData_15
                0x0000000008af0160                DirectSoundWaveData_16
                0x0000000008af2584                DirectSoundWaveData_17
 sound/songs/midi/mus_intro.o(.rodata)
 *fill*         0x0000000008c5359b        0x1 00000000
 .rodata        0x0000000008c5359c      0x8d0 sound/songs/midi/mus_intro.o
                0x0000000008c53e40                mus_intro
 sound/songs/midi/mus_title_fanfare.o(.rodata)
 .rodata        0x0000000008c53e6c      0x314 sound/songs/midi/mus_title_fanfare.o
                0x0000000008c5415c                mus_title_fanfare
 sound/songs/midi/mus_character_selection.o(.rodata)
 .rodata        0x0000000008c54180      0x2f4 sound/songs/midi/mus_character_selection.o
                0x0000000008c54460                mus_character_selection
 sound/songs/midi/mus_ta_course_selection.o(.rodata)
 .rodata        0x0000000008c54474      0x66c sound/songs/midi/mus_ta_course_selection.o
                0x0000000008c54ab8                mus_ta_course_selection
 sound/songs/midi/mus_course_selection_2.o(.rodata)
 .rodata        0x0000000008c54ae0      0x7f4 sound/songs/midi/mus_course_selection_2.o
                0x0000000008c552a4                mus_course_selection_2
 sound/songs/midi/mus_course_selection_3.o(.rodata)
 .rodata        0x0000000008c552d4      0x6d0 sound/songs/midi/mus_course_selection_3.o
                0x0000000008c55974                mus_course_selection_3
 sound/songs/midi/mus_time_attack_menu.o(.rodata)
 .rodata        0x0000000008c559a4      0x7f0 sound/songs/midi/mus_time_attack_menu.o
                0x0000000008c56174                mus_time_attack_menu
 sound/songs/midi/mus_options.o(.rodata)
 .rodata        0x0000000008c56194      0xd14 sound/songs/midi/mus_options.o
                0x0000000008c56e78                mus_options
 sound/songs/midi/mus_leaf_forest__act_1.o(.rodata)
 .rodata        0x0000000008c56ea8     0x13ac sound/songs/midi/mus_leaf_forest__act_1.o
                0x0000000008c5820c                mus_leaf_forest__act_1
 sound/songs/midi/mus_leaf_forest__act_2.o(.rodata)
 .rodata        0x0000000008c58254     0x1248 sound/songs/midi/mus_leaf_forest__act_2.o
                0x0000000008c59458                mus_leaf_forest__act_2
 sound/songs/midi/mus_hot_crater__act_1.o(.rodata)
 .rodata        0x0000000008c5949c      0xd9c sound/songs/midi/mus_hot_crater__act_1.o
                0x0000000008c5a208                mus_hot_crater__act_1
 sound/songs/midi/mus_hot_crater__act_2.o(.rodata)
 .rodata        0x0000000008c5a238     0x1280 sound/songs/midi/mus_hot_crater__act_2.o
                0x0000000008c5b47c                mus_hot_crater__act_2
 sound/songs/midi/mus_music_plant__act_1.o(.rodata)
 .rodata        0x0000000008c5b4b8     0x1244 sound/songs/midi/mus_music_plant__act_1.o
                0x0000000008c5c6cc                mus_music_plant__act_1
 sound/songs/midi/mus_music_plant__act_2.o(.rodata)
 .rodata        0x0000000008c5c6fc     0x16d8 sound/songs/midi/mus_music_plant__act_2.o
                0x0000000008c5dd98                mus_music_plant__act_2
 sound/songs/midi/mus_ice_paradise__act_1.o(.rodata)
 .rodata        0x0000000008c5ddd4     0x1b78 sound/songs/midi/mus_ice_paradise__act_1.o
                0x0000000008c5f90c                mus_ice_paradise__act_1
 sound/songs/midi/mus_ice_paradise__act_2.o(.rodata)
 .rodata        0x0000000008c5f94c     0x2e18 sound/songs/midi/mus_ice_paradise__act_2.o
                0x0000000008c6271c                mus_ice_paradise__act_2
 sound/songs/midi/mus_sky_canyon__act_1.o(.rodata)
 .rodata        0x0000000008c62764     0x1198 sound/songs/midi/mus_sky_canyon__act_1.o
                0x0000000008c638c8                mus_sky_canyon__act_1
 sound/songs/midi/mus_sky_canyon__act_2.o(.rodata)
 .rodata        0x0000000008c638fc     0x1454 sound/songs/midi/mus_sky_canyon__act_2.o
                0x0000000008c64d24                mus_sky_canyon__act_2
 sound/songs/midi/mus_techno_base__act_1.o(.rodata)
 .rodata        0x0000000008c64d50     0x1cc8 sound/songs/midi/mus_techno_base__act_1.o
                0x0000000008c669d8                mus_techno_base__act_1
 sound/songs/midi/mus_techno_base__act_2.o(.rodata)
 .rodata        0x0000000008c66a18     0x3054 sound/songs/midi/mus_techno_base__act_2.o
                0x0000000008c69a24                mus_techno_base__act_2
 sound/songs/midi/mus_egg_utopia__act_1.o(.rodata)
 .rodata        0x0000000008c69a6c     0x1184 sound/songs/midi/mus_egg_utopia__act_1.o
                0x0000000008c6abbc                mus_egg_utopia__act_1
 sound/songs/midi/mus_egg_utopia__act_2.o(.rodata)
 .rodata        0x0000000008c6abf0      0xe70 sound/songs/midi/mus_egg_utopia__act_2.o
                0x0000000008c6ba2c                mus_egg_utopia__act_2
 sound/songs/midi/mus_xx__final_zone.o(.rodata)
 .rodata        0x0000000008c6ba60      0x800 sound/songs/midi/mus_xx__final_zone.o
                0x0000000008c6c23c                mus_xx__final_zone
 sound/songs/midi/mus_true_area_53.o(.rodata)
 .rodata        0x0000000008c6c260     0x12c0 sound/songs/midi/mus_true_area_53.o
                0x0000000008c6d4ec                mus_true_area_53
 sound/songs/midi/mus_invincibility.o(.rodata)
 .rodata        0x0000000008c6d520      0x804 sound/songs/midi/mus_invincibility.o
                0x0000000008c6dcfc                mus_invincibility
 sound/songs/midi/mus_drowning.o(.rodata)
 .rodata        0x0000000008c6dd24      0x1ac sound/songs/midi/mus_drowning.o
                0x0000000008c6debc                mus_drowning
 sound/songs/midi/mus_boss.o(.rodata)
 .rodata        0x0000000008c6ded0     0x1618 sound/songs/midi/mus_boss.o
                0x0000000008c6f4c0                mus_boss
 sound/songs/midi/mus_boss_pinch.o(.rodata)
 .rodata        0x0000000008c6f4e8      0x780 sound/songs/midi/mus_boss_pinch.o
                0x0000000008c6fc3c                mus_boss_pinch
 sound/songs/midi/mus_boss_knuckles.o(.rodata)
 .rodata        0x0000000008c6fc68     0x33dc sound/songs/midi/mus_boss_knuckles.o
                0x0000000008c73008                mus_boss_knuckles
 sound/songs/midi/mus_7_boss.o(.rodata)
 .rodata        0x0000000008c73044     0x1214 sound/songs/midi/mus_7_boss.o
                0x0000000008c74210                mus_7_boss
 sound/songs/midi/mus_7_boss_pinch.o(.rodata)
 .rodata        0x0000000008c74258      0xd18 sound/songs/midi/mus_7_boss_pinch.o
                0x0000000008c74f3c                mus_7_boss_pinch
 sound/songs/midi/mus_final_boss.o(.rodata)
 .rodata        0x0000000008c74f70      0xcdc sound/songs/midi/mus_final_boss.o
                0x0000000008c75c14                mus_final_boss
 sound/songs/midi/mus_final_boss_pinch.o(.rodata)
 .rodata        0x0000000008c75c4c      0x70c sound/songs/midi/mus_final_boss_pinch.o
                0x0000000008c7632c                mus_final_boss_pinch
 sound/songs/midi/mus_game_over.o(.rodata)
 .rodata        0x0000000008c76358      0x1bc sound/songs/midi/mus_game_over.o
                0x0000000008c764fc                mus_game_over
 sound/songs/midi/mus_final_ending.o(.rodata)
 .rodata        0x0000000008c76514      0xa0c sound/songs/midi/mus_final_ending.o
                0x0000000008c76ef8                mus_final_ending
 sound/songs/midi/mus_extra_ending.o(.rodata)
 .rodata        0x0000000008c76f20     0x138c sound/songs/midi/mus_extra_ending.o
                0x0000000008c78270                mus_extra_ending
 sound/songs/midi/mus_staff_credits.o(.rodata)
 .rodata        0x0000000008c782ac     0x1e0c sound/songs/midi/mus_staff_credits.o
                0x0000000008c7a070                mus_staff_credits
 sound/songs/midi/mus_demo_1.o(.rodata)
 .rodata        0x0000000008c7a0b8      0xcf0 sound/songs/midi/mus_demo_1.o
                0x0000000008c7ad88                mus_demo_1
 sound/songs/midi/mus_demo_2.o(.rodata)
 .rodata        0x0000000008c7ada8      0x6a8 sound/songs/midi/mus_demo_2.o
                0x0000000008c7b430                mus_demo_2
 sound/songs/midi/mus_extra_demo_1.o(.rodata)
 .rodata        0x0000000008c7b450      0xb20 sound/songs/midi/mus_extra_demo_1.o
                0x0000000008c7bf48                mus_extra_demo_1
 sound/songs/midi/mus_extra_demo_2.o(.rodata)
 .rodata        0x0000000008c7bf70      0xd50 sound/songs/midi/mus_extra_demo_2.o
                0x0000000008c7cc88                mus_extra_demo_2
 sound/songs/midi/mus_special_stage_intro.o(.rodata)
 .rodata        0x0000000008c7ccc0      0x128 sound/songs/midi/mus_special_stage_intro.o
                0x0000000008c7cdcc                mus_special_stage_intro
 sound/songs/midi/mus_special_stage.o(.rodata)
 .rodata        0x0000000008c7cde8      0xc60 sound/songs/midi/mus_special_stage.o
                0x0000000008c7da24                mus_special_stage
 sound/songs/midi/mus_special_stage_pinch.o(.rodata)
 .rodata        0x0000000008c7da48      0x6cc sound/songs/midi/mus_special_stage_pinch.o
                0x0000000008c7e0f8                mus_special_stage_pinch
 sound/songs/midi/mus_achievement.o(.rodata)
 .rodata        0x0000000008c7e114       0xf8 sound/songs/midi/mus_achievement.o
                0x0000000008c7e1f0                mus_achievement
 sound/songs/midi/mus_special_stage_clear.o(.rodata)
 .rodata        0x0000000008c7e20c      0x1bc sound/songs/midi/mus_special_stage_clear.o
                0x0000000008c7e3a8                mus_special_stage_clear
 sound/songs/midi/mus_special_stage_result.o(.rodata)
 .rodata        0x0000000008c7e3c8      0x534 sound/songs/midi/mus_special_stage_result.o
                0x0000000008c7e8dc                mus_special_stage_result
 sound/songs/midi/mus_chaos_emerald.o(.rodata)
 .rodata        0x0000000008c7e8fc      0x16c sound/songs/midi/mus_chaos_emerald.o
                0x0000000008c7ea40                mus_chaos_emerald
 sound/songs/midi/mus_special_stage_result_lose.o(.rodata)
 .rodata        0x0000000008c7ea68      0x17c sound/songs/midi/mus_special_stage_result_lose.o
                0x0000000008c7ebc8                mus_special_stage_result_lose
 sound/songs/midi/mus_vs_2.o(.rodata)
 .rodata        0x0000000008c7ebe4      0xcc8 sound/songs/midi/mus_vs_2.o
                0x0000000008c7f888                mus_vs_2
 sound/songs/midi/mus_vs_3.o(.rodata)
 .rodata        0x0000000008c7f8ac      0x37c sound/songs/midi/mus_vs_3.o
                0x0000000008c7fc04                mus_vs_3
 sound/songs/midi/mus_connection_pending.o(.rodata)
 .rodata        0x0000000008c7fc28      0x3f0 sound/songs/midi/mus_connection_pending.o
                0x0000000008c7fff4                mus_connection_pending
 sound/songs/midi/mus_vs_lobby.o(.rodata)
 .rodata        0x0000000008c80018      0x588 sound/songs/midi/mus_vs_lobby.o
                0x0000000008c8057c                mus_vs_lobby
 sound/songs/midi/mus_vs_select_pak_mode.o(.rodata)
 .rodata        0x0000000008c805a0      0x6e8 sound/songs/midi/mus_vs_select_pak_mode.o
                0x0000000008c80c64                mus_vs_select_pak_mode
 sound/songs/midi/se_ring.o(.rodata)
 .rodata        0x0000000008c80c88       0x1c sound/songs/midi/se_ring.o
                0x0000000008c80c98                se_ring
 sound/songs/midi/se_shift.o(.rodata)
 .rodata        0x0000000008c80ca4       0x4c sound/songs/midi/se_shift.o
                0x0000000008c80ce4                se_shift
 sound/songs/midi/se_success.o(.rodata)
 .rodata        0x0000000008c80cf0       0x30 sound/songs/midi/se_success.o
                0x0000000008c80d14                se_success
 sound/songs/midi/se_abort.o(.rodata)
 .rodata        0x0000000008c80d20       0x28 sound/songs/midi/se_abort.o
                0x0000000008c80d3c                se_abort
 sound/songs/midi/se_select.o(.rodata)
 .rodata        0x0000000008c80d48       0x28 sound/songs/midi/se_select.o
                0x0000000008c80d64                se_select
 sound/songs/midi/se_return.o(.rodata)
 .rodata        0x0000000008c80d70       0x24 sound/songs/midi/se_return.o
                0x0000000008c80d88                se_return
 sound/songs/midi/se_menu_cursor_move.o(.rodata)
 .rodata        0x0000000008c80d94       0x20 sound/songs/midi/se_menu_cursor_move.o
                0x0000000008c80da8                se_menu_cursor_move
 sound/songs/midi/se_spin_attack.o(.rodata)
 .rodata        0x0000000008c80db4       0x20 sound/songs/midi/se_spin_attack.o
                0x0000000008c80dc8                se_spin_attack
 sound/songs/midi/se_spin_dash_release.o(.rodata)
 .rodata        0x0000000008c80dd4       0xcc sound/songs/midi/se_spin_dash_release.o
                0x0000000008c80e94                se_spin_dash_release
 sound/songs/midi/se_sonic_skid_attack.o(.rodata)
 .rodata        0x0000000008c80ea0       0x24 sound/songs/midi/se_sonic_skid_attack.o
                0x0000000008c80eb8                se_sonic_skid_attack
 sound/songs/midi/se_sonic_midair_somersault.o(.rodata)
 .rodata        0x0000000008c80ec4       0x64 sound/songs/midi/se_sonic_midair_somersault.o
                0x0000000008c80f1c                se_sonic_midair_somersault
 sound/songs/midi/se_sonic_insta_shield.o(.rodata)
 .rodata        0x0000000008c80f28       0xa8 sound/songs/midi/se_sonic_insta_shield.o
                0x0000000008c80fc4                se_sonic_insta_shield
 sound/songs/midi/se_114.o(.rodata)
 .rodata        0x0000000008c80fd0       0x3c sound/songs/midi/se_114.o
                0x0000000008c81000                se_114
 sound/songs/midi/se_brake.o(.rodata)
 .rodata        0x0000000008c8100c       0x5c sound/songs/midi/se_brake.o
                0x0000000008c8105c                se_brake
 sound/songs/midi/se_jump.o(.rodata)
 .rodata        0x0000000008c81068       0x4c sound/songs/midi/se_jump.o
                0x0000000008c810a8                se_jump
 sound/songs/midi/se_ring_copy.o(.rodata)
 .rodata        0x0000000008c810b4       0x1c sound/songs/midi/se_ring_copy.o
                0x0000000008c810c4                se_ring_copy
 sound/songs/midi/se_rings_lost.o(.rodata)
 .rodata        0x0000000008c810d0       0x1c sound/songs/midi/se_rings_lost.o
                0x0000000008c810e0                se_rings_lost
 sound/songs/midi/se_life_lost.o(.rodata)
 .rodata        0x0000000008c810ec       0x24 sound/songs/midi/se_life_lost.o
                0x0000000008c81104                se_life_lost
 sound/songs/midi/se_tails_propeller_flying.o(.rodata)
 .rodata        0x0000000008c81110       0x68 sound/songs/midi/se_tails_propeller_flying.o
                0x0000000008c8116c                se_tails_propeller_flying
 sound/songs/midi/se_tails_tail_swipe.o(.rodata)
 .rodata        0x0000000008c81178       0x24 sound/songs/midi/se_tails_tail_swipe.o
                0x0000000008c81190                se_tails_tail_swipe
 sound/songs/midi/se_125.o(.rodata)
 .rodata        0x0000000008c8119c       0xe0 sound/songs/midi/se_125.o
                0x0000000008c81270                se_125
 sound/songs/midi/se_126.o(.rodata)
 .rodata        0x0000000008c8127c       0xe0 sound/songs/midi/se_126.o
                0x0000000008c81350                se_126
 sound/songs/midi/se_127.o(.rodata)
 .rodata        0x0000000008c8135c       0xf4 sound/songs/midi/se_127.o
                0x0000000008c81444                se_127
 sound/songs/midi/se_amy_ground_hammer.o(.rodata)
 .rodata        0x0000000008c81450       0x1c sound/songs/midi/se_amy_ground_hammer.o
                0x0000000008c81460                se_amy_ground_hammer
 sound/songs/midi/se_amy_super_hammer_attack.o(.rodata)
 .rodata        0x0000000008c8146c       0x1c sound/songs/midi/se_amy_super_hammer_attack.o
                0x0000000008c8147c                se_amy_super_hammer_attack
 sound/songs/midi/se_amy_hammer_swirl.o(.rodata)
 .rodata        0x0000000008c81488       0x74 sound/songs/midi/se_amy_hammer_swirl.o
                0x0000000008c814f0                se_amy_hammer_swirl
 sound/songs/midi/se_sa1_goal_post.o(.rodata)
 .rodata        0x0000000008c814fc       0x20 sound/songs/midi/se_sa1_goal_post.o
                0x0000000008c81510                se_sa1_goal_post
 sound/songs/midi/se_item_box.o(.rodata)
 .rodata        0x0000000008c8151c       0x60 sound/songs/midi/se_item_box.o
                0x0000000008c8156c                se_item_box
 sound/songs/midi/se_timer.o(.rodata)
 .rodata        0x0000000008c8157c       0x28 sound/songs/midi/se_timer.o
                0x0000000008c81598                se_timer
 sound/songs/midi/se_stage_result_counter.o(.rodata)
 .rodata        0x0000000008c815a4       0x20 sound/songs/midi/se_stage_result_counter.o
                0x0000000008c815b8                se_stage_result_counter
 sound/songs/midi/se_stage_result_counter_done.o(.rodata)
 .rodata        0x0000000008c815c4       0x20 sound/songs/midi/se_stage_result_counter_done.o
                0x0000000008c815d8                se_stage_result_counter_done
 sound/songs/midi/se_pause_screen.o(.rodata)
 .rodata        0x0000000008c815e4       0x2c sound/songs/midi/se_pause_screen.o
                0x0000000008c81604                se_pause_screen
 sound/songs/midi/se_143.o(.rodata)
 .rodata        0x0000000008c81610       0xd0 sound/songs/midi/se_143.o
                0x0000000008c816d4                se_143
 sound/songs/midi/se_144.o(.rodata)
 .rodata        0x0000000008c816e0       0x24 sound/songs/midi/se_144.o
                0x0000000008c816f8                se_144
 sound/songs/midi/se_145.o(.rodata)
 .rodata        0x0000000008c81704       0xd0 sound/songs/midi/se_145.o
                0x0000000008c817c8                se_145
 sound/songs/midi/se_146.o(.rodata)
 .rodata        0x0000000008c817d4       0x54 sound/songs/midi/se_146.o
                0x0000000008c8181c                se_146
 sound/songs/midi/se_spin.o(.rodata)
 .rodata        0x0000000008c81828       0x20 sound/songs/midi/se_spin.o
                0x0000000008c8183c                se_spin
 sound/songs/midi/se_148.o(.rodata)
 .rodata        0x0000000008c81848       0x4c sound/songs/midi/se_148.o
                0x0000000008c81888                se_148
 sound/songs/midi/se_time_up.o(.rodata)
 .rodata        0x0000000008c81894       0x60 sound/songs/midi/se_time_up.o
                0x0000000008c818e8                se_time_up
 sound/songs/midi/se_item_box_2.o(.rodata)
 .rodata        0x0000000008c818f4       0x60 sound/songs/midi/se_item_box_2.o
                0x0000000008c81944                se_item_box_2
 sound/songs/midi/se_151.o(.rodata)
 .rodata        0x0000000008c81954       0x28 sound/songs/midi/se_151.o
                0x0000000008c81970                se_151
 sound/songs/midi/se_checkpoint.o(.rodata)
 .rodata        0x0000000008c8197c       0x28 sound/songs/midi/se_checkpoint.o
                0x0000000008c81998                se_checkpoint
 sound/songs/midi/se_spring.o(.rodata)
 .rodata        0x0000000008c819a4       0x4c sound/songs/midi/se_spring.o
                0x0000000008c819e4                se_spring
 sound/songs/midi/se_spikes.o(.rodata)
 .rodata        0x0000000008c819f0       0x74 sound/songs/midi/se_spikes.o
                0x0000000008c81a58                se_spikes
 sound/songs/midi/se_speed_booster.o(.rodata)
 .rodata        0x0000000008c81a64       0xe0 sound/songs/midi/se_speed_booster.o
                0x0000000008c81b38                se_speed_booster
 sound/songs/midi/se_156.o(.rodata)
 .rodata        0x0000000008c81b44       0xb4 sound/songs/midi/se_156.o
                0x0000000008c81bec                se_156
 sound/songs/midi/se_157.o(.rodata)
 .rodata        0x0000000008c81bf8       0x44 sound/songs/midi/se_157.o
                0x0000000008c81c30                se_157
 sound/songs/midi/se_air_bubble.o(.rodata)
 .rodata        0x0000000008c81c3c       0x54 sound/songs/midi/se_air_bubble.o
                0x0000000008c81c84                se_air_bubble
 sound/songs/midi/se_alarm_1.o(.rodata)
 .rodata        0x0000000008c81c90       0x20 sound/songs/midi/se_alarm_1.o
                0x0000000008c81ca4                se_alarm_1
 sound/songs/midi/se_alarm_2.o(.rodata)
 .rodata        0x0000000008c81cb0       0x20 sound/songs/midi/se_alarm_2.o
                0x0000000008c81cc4                se_alarm_2
 sound/songs/midi/se_alarm_3.o(.rodata)
 .rodata        0x0000000008c81cd0       0x20 sound/songs/midi/se_alarm_3.o
                0x0000000008c81ce4                se_alarm_3
 sound/songs/midi/se_alarm_4.o(.rodata)
 .rodata        0x0000000008c81cf0       0x20 sound/songs/midi/se_alarm_4.o
                0x0000000008c81d04                se_alarm_4
 sound/songs/midi/se_alarm_5.o(.rodata)
 .rodata        0x0000000008c81d10       0x20 sound/songs/midi/se_alarm_5.o
                0x0000000008c81d24                se_alarm_5
 sound/songs/midi/se_alarm_6.o(.rodata)
 .rodata        0x0000000008c81d30       0x20 sound/songs/midi/se_alarm_6.o
                0x0000000008c81d44                se_alarm_6
 sound/songs/midi/se_alarm_7.o(.rodata)
 .rodata        0x0000000008c81d50       0x20 sound/songs/midi/se_alarm_7.o
                0x0000000008c81d64                se_alarm_7
 sound/songs/midi/se_alarm_8.o(.rodata)
 .rodata        0x0000000008c81d70       0x20 sound/songs/midi/se_alarm_8.o
                0x0000000008c81d84                se_alarm_8
 sound/songs/midi/se_alarm_9.o(.rodata)
 .rodata        0x0000000008c81d90       0x20 sound/songs/midi/se_alarm_9.o
                0x0000000008c81da4                se_alarm_9
 sound/songs/midi/se_alarm_10.o(.rodata)
 .rodata        0x0000000008c81db0       0x20 sound/songs/midi/se_alarm_10.o
                0x0000000008c81dc4                se_alarm_10
 sound/songs/midi/se_springy_pole.o(.rodata)
 .rodata        0x0000000008c81dd0       0xb8 sound/songs/midi/se_springy_pole.o
                0x0000000008c81e7c                se_springy_pole
 sound/songs/midi/se_springy_spring.o(.rodata)
 .rodata        0x0000000008c81e88       0xb8 sound/songs/midi/se_springy_spring.o
                0x0000000008c81f34                se_springy_spring
 sound/songs/midi/voice__announcer__sonic_advance_2.o(.rodata)
 .rodata        0x0000000008c81f40       0x1c sound/songs/midi/voice__announcer__sonic_advance_2.o
                0x0000000008c81f50                voice__announcer__sonic_advance_2
 sound/songs/midi/voice__announcer__sonic.o(.rodata)
 .rodata        0x0000000008c81f5c       0x1c sound/songs/midi/voice__announcer__sonic.o
                0x0000000008c81f6c                voice__announcer__sonic
 sound/songs/midi/voice__announcer__tails.o(.rodata)
 .rodata        0x0000000008c81f78       0x1c sound/songs/midi/voice__announcer__tails.o
                0x0000000008c81f88                voice__announcer__tails
 sound/songs/midi/voice__announcer__knuckles.o(.rodata)
 .rodata        0x0000000008c81f94       0x1c sound/songs/midi/voice__announcer__knuckles.o
                0x0000000008c81fa4                voice__announcer__knuckles
 sound/songs/midi/voice__announcer__amy.o(.rodata)
 .rodata        0x0000000008c81fb0       0x1c sound/songs/midi/voice__announcer__amy.o
                0x0000000008c81fc0                voice__announcer__amy
 sound/songs/midi/voice__announcer__cream.o(.rodata)
 .rodata        0x0000000008c81fcc       0x1c sound/songs/midi/voice__announcer__cream.o
                0x0000000008c81fdc                voice__announcer__cream
 sound/songs/midi/voice__announcer__3.o(.rodata)
 .rodata        0x0000000008c81fe8       0x1c sound/songs/midi/voice__announcer__3.o
                0x0000000008c81ff8                voice__announcer__3
 sound/songs/midi/voice__announcer__2.o(.rodata)
 .rodata        0x0000000008c82004       0x1c sound/songs/midi/voice__announcer__2.o
                0x0000000008c82014                voice__announcer__2
 sound/songs/midi/voice__announcer__1.o(.rodata)
 .rodata        0x0000000008c82020       0x1c sound/songs/midi/voice__announcer__1.o
                0x0000000008c82030                voice__announcer__1
 sound/songs/midi/voice__announcer__go.o(.rodata)
 .rodata        0x0000000008c8203c       0x1c sound/songs/midi/voice__announcer__go.o
                0x0000000008c8204c                voice__announcer__go
 sound/songs/midi/voice__announcer__congratulations.o(.rodata)
 .rodata        0x0000000008c82058       0x1c sound/songs/midi/voice__announcer__congratulations.o
                0x0000000008c82068                voice__announcer__congratulations
 sound/songs/midi/se_map_move.o(.rodata)
 .rodata        0x0000000008c82074       0x94 sound/songs/midi/se_map_move.o
                0x0000000008c820fc                se_map_move
 sound/songs/midi/se_map_214.o(.rodata)
 .rodata        0x0000000008c82108       0xa0 sound/songs/midi/se_map_214.o
                0x0000000008c8219c                se_map_214
 sound/songs/midi/se_map_move_end.o(.rodata)
 .rodata        0x0000000008c821a8       0x94 sound/songs/midi/se_map_move_end.o
                0x0000000008c82230                se_map_move_end
 sound/songs/midi/se_216.o(.rodata)
 .rodata        0x0000000008c8223c       0xa8 sound/songs/midi/se_216.o
                0x0000000008c822d8                se_216
 sound/songs/midi/se_217.o(.rodata)
 .rodata        0x0000000008c822e4       0x5c sound/songs/midi/se_217.o
                0x0000000008c82334                se_217
 sound/songs/midi/se_218.o(.rodata)
 .rodata        0x0000000008c82340       0x44 sound/songs/midi/se_218.o
                0x0000000008c82378                se_218
 sound/songs/midi/se_219.o(.rodata)
 .rodata        0x0000000008c82384       0x30 sound/songs/midi/se_219.o
                0x0000000008c823a8                se_219
 sound/songs/midi/se_delete_game_data.o(.rodata)
 .rodata        0x0000000008c823b4       0x24 sound/songs/midi/se_delete_game_data.o
                0x0000000008c823cc                se_delete_game_data
 sound/songs/midi/se_221.o(.rodata)
 .rodata        0x0000000008c823d8       0xa4 sound/songs/midi/se_221.o
                0x0000000008c82470                se_221
 sound/songs/midi/se_222.o(.rodata)
 .rodata        0x0000000008c8247c       0x3c sound/songs/midi/se_222.o
                0x0000000008c824ac                se_222
 sound/songs/midi/se_223.o(.rodata)
 .rodata        0x0000000008c824b8       0x88 sound/songs/midi/se_223.o
                0x0000000008c82534                se_223
 sound/songs/midi/se_224.o(.rodata)
 .rodata        0x0000000008c82540       0x30 sound/songs/midi/se_224.o
                0x0000000008c82564                se_224
 sound/songs/midi/se_225.o(.rodata)
 .rodata        0x0000000008c82570      0x104 sound/songs/midi/se_225.o
                0x0000000008c82668                se_225
 sound/songs/midi/se_226.o(.rodata)
 .rodata        0x0000000008c82674       0x74 sound/songs/midi/se_226.o
                0x0000000008c826dc                se_226
 sound/songs/midi/se_cream_flying.o(.rodata)
 .rodata        0x0000000008c826e8       0x80 sound/songs/midi/se_cream_flying.o
                0x0000000008c8275c                se_cream_flying
 sound/songs/midi/se_228.o(.rodata)
 .rodata        0x0000000008c82768       0x30 sound/songs/midi/se_228.o
                0x0000000008c8278c                se_228
 sound/songs/midi/se_cream_cheese_attack.o(.rodata)
 .rodata        0x0000000008c82798       0x1c sound/songs/midi/se_cream_cheese_attack.o
                0x0000000008c827a8                se_cream_cheese_attack
 sound/songs/midi/se_230.o(.rodata)
 .rodata        0x0000000008c827b4       0xa4 sound/songs/midi/se_230.o
                0x0000000008c8284c                se_230
 sound/songs/midi/se_231.o(.rodata)
 .rodata        0x0000000008c82858       0x30 sound/songs/midi/se_231.o
                0x0000000008c8287c                se_231
 sound/songs/midi/se_long_brake.o(.rodata)
 .rodata        0x0000000008c82888      0x1fc sound/songs/midi/se_long_brake.o
                0x0000000008c82a78                se_long_brake
 sound/songs/midi/se_234.o(.rodata)
 .rodata        0x0000000008c82a84       0xa4 sound/songs/midi/se_234.o
                0x0000000008c82b1c                se_234
 sound/songs/midi/se_235.o(.rodata)
 .rodata        0x0000000008c82b28       0xd4 sound/songs/midi/se_235.o
                0x0000000008c82bf0                se_235
 sound/songs/midi/se_236.o(.rodata)
 .rodata        0x0000000008c82bfc      0x12c sound/songs/midi/se_236.o
                0x0000000008c82d1c                se_236
 sound/songs/midi/se_237.o(.rodata)
 .rodata        0x0000000008c82d28       0x84 sound/songs/midi/se_237.o
                0x0000000008c82da0                se_237
 sound/songs/midi/se_238.o(.rodata)
 .rodata        0x0000000008c82dac       0x24 sound/songs/midi/se_238.o
                0x0000000008c82dc4                se_238
 sound/songs/midi/se_239.o(.rodata)
 .rodata        0x0000000008c82dd0       0x64 sound/songs/midi/se_239.o
                0x0000000008c82e28                se_239
 sound/songs/midi/se_241.o(.rodata)
 .rodata        0x0000000008c82e34       0xe0 sound/songs/midi/se_241.o
                0x0000000008c82f08                se_241
 sound/songs/midi/se_242.o(.rodata)
 .rodata        0x0000000008c82f14       0xd0 sound/songs/midi/se_242.o
                0x0000000008c82fd8                se_242
 sound/songs/midi/se_243.o(.rodata)
 .rodata        0x0000000008c82fe4       0x24 sound/songs/midi/se_243.o
                0x0000000008c82ffc                se_243
 sound/songs/midi/se_244.o(.rodata)
 .rodata        0x0000000008c83008       0x7c sound/songs/midi/se_244.o
                0x0000000008c83078                se_244
 sound/songs/midi/se_245.o(.rodata)
 .rodata        0x0000000008c83084       0x2c sound/songs/midi/se_245.o
                0x0000000008c830a4                se_245
 sound/songs/midi/se_246.o(.rodata)
 .rodata        0x0000000008c830b0       0x5c sound/songs/midi/se_246.o
                0x0000000008c83100                se_246
 sound/songs/midi/se_248.o(.rodata)
 .rodata        0x0000000008c8310c      0x12c sound/songs/midi/se_248.o
                0x0000000008c8322c                se_248
 sound/songs/midi/se_249.o(.rodata)
 .rodata        0x0000000008c83238       0x24 sound/songs/midi/se_249.o
                0x0000000008c83250                se_249
 sound/songs/midi/se_250.o(.rodata)
 .rodata        0x0000000008c8325c       0x74 sound/songs/midi/se_250.o
                0x0000000008c832c4                se_250
 sound/songs/midi/se_251.o(.rodata)
 .rodata        0x0000000008c832d0       0x24 sound/songs/midi/se_251.o
                0x0000000008c832e8                se_251
 sound/songs/midi/se_252.o(.rodata)
 .rodata        0x0000000008c832f4       0x9c sound/songs/midi/se_252.o
                0x0000000008c83384                se_252
 sound/songs/midi/se_253.o(.rodata)
 .rodata        0x0000000008c83390       0x8c sound/songs/midi/se_253.o
                0x0000000008c83410                se_253
 sound/songs/midi/se_254.o(.rodata)
 .rodata        0x0000000008c8341c       0x68 sound/songs/midi/se_254.o
                0x0000000008c83478                se_254
 sound/songs/midi/se_255.o(.rodata)
 .rodata        0x0000000008c83484       0x28 sound/songs/midi/se_255.o
                0x0000000008c834a0                se_255
 sound/songs/midi/se_256.o(.rodata)
 .rodata        0x0000000008c834ac       0x54 sound/songs/midi/se_256.o
                0x0000000008c834f4                se_256
 sound/songs/midi/se_257.o(.rodata)
 .rodata        0x0000000008c83500       0x6c sound/songs/midi/se_257.o
                0x0000000008c83560                se_257
 sound/songs/midi/se_258.o(.rodata)
 .rodata        0x0000000008c8356c       0xe4 sound/songs/midi/se_258.o
                0x0000000008c83644                se_258
 sound/songs/midi/se_259.o(.rodata)
 .rodata        0x0000000008c83650       0x30 sound/songs/midi/se_259.o
                0x0000000008c83674                se_259
 sound/songs/midi/se_260.o(.rodata)
 .rodata        0x0000000008c83680       0x6c sound/songs/midi/se_260.o
                0x0000000008c836e0                se_260
 sound/songs/midi/se_261.o(.rodata)
 .rodata        0x0000000008c836ec       0x50 sound/songs/midi/se_261.o
                0x0000000008c83730                se_261
 sound/songs/midi/se_262.o(.rodata)
 .rodata        0x0000000008c8373c       0x54 sound/songs/midi/se_262.o
                0x0000000008c83784                se_262
 sound/songs/midi/se_263.o(.rodata)
 .rodata        0x0000000008c83790       0xa4 sound/songs/midi/se_263.o
                0x0000000008c83828                se_263
 sound/songs/midi/se_264.o(.rodata)
 .rodata        0x0000000008c83834       0xbc sound/songs/midi/se_264.o
                0x0000000008c838e4                se_264
 sound/songs/midi/se_265.o(.rodata)
 .rodata        0x0000000008c838f0       0xd4 sound/songs/midi/se_265.o
                0x0000000008c839b8                se_265
 sound/songs/midi/se_266.o(.rodata)
 .rodata        0x0000000008c839c4       0x54 sound/songs/midi/se_266.o
                0x0000000008c83a0c                se_266
 sound/songs/midi/se_267.o(.rodata)
 .rodata        0x0000000008c83a18       0x24 sound/songs/midi/se_267.o
                0x0000000008c83a30                se_267
 sound/songs/midi/se_268.o(.rodata)
 .rodata        0x0000000008c83a3c       0x88 sound/songs/midi/se_268.o
                0x0000000008c83ab8                se_268
 sound/songs/midi/se_269.o(.rodata)
 .rodata        0x0000000008c83ac4       0xb4 sound/songs/midi/se_269.o
                0x0000000008c83b6c                se_269
 sound/songs/midi/se_suction.o(.rodata)
 .rodata        0x0000000008c83b78       0x88 sound/songs/midi/se_suction.o
                0x0000000008c83bf4                se_suction
 sound/songs/midi/se_271.o(.rodata)
 .rodata        0x0000000008c83c00       0xb4 sound/songs/midi/se_271.o
                0x0000000008c83ca8                se_271
 sound/songs/midi/se_272.o(.rodata)
 .rodata        0x0000000008c83cb4       0x70 sound/songs/midi/se_272.o
                0x0000000008c83d18                se_272
 sound/songs/midi/se_273.o(.rodata)
 .rodata        0x0000000008c83d24       0xb8 sound/songs/midi/se_273.o
                0x0000000008c83dd0                se_273
 sound/songs/midi/se_274.o(.rodata)
 .rodata        0x0000000008c83ddc       0x40 sound/songs/midi/se_274.o
                0x0000000008c83e0c                se_274
 sound/songs/midi/se_275.o(.rodata)
 .rodata        0x0000000008c83e1c       0x84 sound/songs/midi/se_275.o
                0x0000000008c83e94                se_275
 sound/songs/midi/se_276.o(.rodata)
 .rodata        0x0000000008c83ea0       0xe0 sound/songs/midi/se_276.o
                0x0000000008c83f74                se_276
 sound/songs/midi/se_277.o(.rodata)
 .rodata        0x0000000008c83f80       0xe4 sound/songs/midi/se_277.o
                0x0000000008c84058                se_277
 sound/songs/midi/se_278.o(.rodata)
 .rodata        0x0000000008c84064       0x54 sound/songs/midi/se_278.o
                0x0000000008c840ac                se_278
 sound/songs/midi/se_279.o(.rodata)
 .rodata        0x0000000008c840b8       0xb8 sound/songs/midi/se_279.o
                0x0000000008c84164                se_279
 sound/songs/midi/se_280.o(.rodata)
 .rodata        0x0000000008c84170       0xbc sound/songs/midi/se_280.o
                0x0000000008c84220                se_280
 sound/songs/midi/se_281.o(.rodata)
 .rodata        0x0000000008c8422c       0x30 sound/songs/midi/se_281.o
                0x0000000008c84250                se_281
 sound/songs/midi/se_282.o(.rodata)
 .rodata        0x0000000008c8425c       0x2c sound/songs/midi/se_282.o
                0x0000000008c8427c                se_282
 sound/songs/midi/se_283.o(.rodata)
 .rodata        0x0000000008c84288       0xbc sound/songs/midi/se_283.o
                0x0000000008c84338                se_283
 sound/songs/midi/se_284.o(.rodata)
 .rodata        0x0000000008c84344       0xb8 sound/songs/midi/se_284.o
                0x0000000008c843f0                se_284
 sound/songs/midi/se_285.o(.rodata)
 .rodata        0x0000000008c843fc       0x88 sound/songs/midi/se_285.o
                0x0000000008c84478                se_285
 sound/songs/midi/se_286.o(.rodata)
 .rodata        0x0000000008c84484       0x50 sound/songs/midi/se_286.o
                0x0000000008c844c8                se_286
 sound/songs/midi/se_287.o(.rodata)
 .rodata        0x0000000008c844d4       0xa4 sound/songs/midi/se_287.o
                0x0000000008c8456c                se_287
 sound/songs/midi/se_288.o(.rodata)
 .rodata        0x0000000008c84578       0x68 sound/songs/midi/se_288.o
                0x0000000008c845d4                se_288
 sound/songs/midi/se_289.o(.rodata)
 .rodata        0x0000000008c845e0       0x38 sound/songs/midi/se_289.o
                0x0000000008c8460c                se_289
 sound/songs/midi/se_290.o(.rodata)
 .rodata        0x0000000008c84618       0xbc sound/songs/midi/se_290.o
                0x0000000008c846c8                se_290
 sound/songs/se_291.o(.rodata)
 .rodata        0x0000000008c846d4       0x64 sound/songs/se_291.o
                0x0000000008c8472c                se_291
 sound/songs/midi/se_ice_paradise_slide.o(.rodata)
 .rodata        0x0000000008c84738      0x110 sound/songs/midi/se_ice_paradise_slide.o
                0x0000000008c8483c                se_ice_paradise_slide
 sound/songs/midi/se_293.o(.rodata)
 .rodata        0x0000000008c84848       0x8c sound/songs/midi/se_293.o
                0x0000000008c848c8                se_293
 sound/songs/midi/se_techno_base_note_block.o(.rodata)
 .rodata        0x0000000008c848d4       0x88 sound/songs/midi/se_techno_base_note_block.o
                0x0000000008c84950                se_techno_base_note_block
 sound/songs/midi/se_295.o(.rodata)
 .rodata        0x0000000008c8495c       0x24 sound/songs/midi/se_295.o
                0x0000000008c84974                se_295
 sound/songs/midi/se_296.o(.rodata)
 .rodata        0x0000000008c84980       0x4c sound/songs/midi/se_296.o
                0x0000000008c849c0                se_296
 sound/songs/midi/se_297.o(.rodata)
 .rodata        0x0000000008c849cc       0x68 sound/songs/midi/se_297.o
                0x0000000008c84a28                se_297
 sound/songs/midi/se_special_ring.o(.rodata)
 .rodata        0x0000000008c84a34       0x24 sound/songs/midi/se_special_ring.o
                0x0000000008c84a4c                se_special_ring
 sound/songs/midi/se_music_plant_spring_1.o(.rodata)
 .rodata        0x0000000008c84a58       0x24 sound/songs/midi/se_music_plant_spring_1.o
                0x0000000008c84a70                se_music_plant_spring_1
 sound/songs/midi/se_music_plant_spring_2.o(.rodata)
 .rodata        0x0000000008c84a7c       0x24 sound/songs/midi/se_music_plant_spring_2.o
                0x0000000008c84a94                se_music_plant_spring_2
 sound/songs/midi/se_music_plant_spring_3.o(.rodata)
 .rodata        0x0000000008c84aa0       0x24 sound/songs/midi/se_music_plant_spring_3.o
                0x0000000008c84ab8                se_music_plant_spring_3
 sound/songs/midi/se_music_plant_spring_4.o(.rodata)
 .rodata        0x0000000008c84ac4       0x24 sound/songs/midi/se_music_plant_spring_4.o
                0x0000000008c84adc                se_music_plant_spring_4
 sound/songs/midi/se_music_plant_crash_hit.o(.rodata)
 .rodata        0x0000000008c84ae8       0x24 sound/songs/midi/se_music_plant_crash_hit.o
                0x0000000008c84b00                se_music_plant_crash_hit
 sound/songs/midi/se_music_plant_notes_1.o(.rodata)
 .rodata        0x0000000008c84b0c       0x24 sound/songs/midi/se_music_plant_notes_1.o
                0x0000000008c84b24                se_music_plant_notes_1
 sound/songs/midi/se_music_plant_notes_2.o(.rodata)
 .rodata        0x0000000008c84b30       0x24 sound/songs/midi/se_music_plant_notes_2.o
                0x0000000008c84b48                se_music_plant_notes_2
 sound/songs/midi/se_music_plant_notes_3.o(.rodata)
 .rodata        0x0000000008c84b54       0x24 sound/songs/midi/se_music_plant_notes_3.o
                0x0000000008c84b6c                se_music_plant_notes_3
 sound/songs/midi/se_music_plant_notes_4.o(.rodata)
 .rodata        0x0000000008c84b78       0x24 sound/songs/midi/se_music_plant_notes_4.o
                0x0000000008c84b90                se_music_plant_notes_4
 sound/songs/midi/se_music_plant_notes_5.o(.rodata)
 .rodata        0x0000000008c84b9c       0x24 sound/songs/midi/se_music_plant_notes_5.o
                0x0000000008c84bb4                se_music_plant_notes_5
 sound/songs/midi/se_music_plant_notes_6.o(.rodata)
 .rodata        0x0000000008c84bc0       0x24 sound/songs/midi/se_music_plant_notes_6.o
                0x0000000008c84bd8                se_music_plant_notes_6
 sound/songs/midi/se_music_plant_notes_7.o(.rodata)
 .rodata        0x0000000008c84be4       0x24 sound/songs/midi/se_music_plant_notes_7.o
                0x0000000008c84bfc                se_music_plant_notes_7
 sound/songs/midi/se_music_plant_notes_8.o(.rodata)
 .rodata        0x0000000008c84c08       0x24 sound/songs/midi/se_music_plant_notes_8.o
                0x0000000008c84c20                se_music_plant_notes_8
 sound/songs/midi/se_music_plant_glockenspiel_1.o(.rodata)
 .rodata        0x0000000008c84c2c       0x24 sound/songs/midi/se_music_plant_glockenspiel_1.o
                0x0000000008c84c44                se_music_plant_glockenspiel_1
 sound/songs/midi/se_music_plant_glockenspiel_2.o(.rodata)
 .rodata        0x0000000008c84c50       0x24 sound/songs/midi/se_music_plant_glockenspiel_2.o
                0x0000000008c84c68                se_music_plant_glockenspiel_2
 sound/songs/midi/se_music_plant_glockenspiel_3.o(.rodata)
 .rodata        0x0000000008c84c74       0x24 sound/songs/midi/se_music_plant_glockenspiel_3.o
                0x0000000008c84c8c                se_music_plant_glockenspiel_3
 sound/songs/midi/se_music_plant_glockenspiel_4.o(.rodata)
 .rodata        0x0000000008c84c98       0x24 sound/songs/midi/se_music_plant_glockenspiel_4.o
                0x0000000008c84cb0                se_music_plant_glockenspiel_4
 sound/songs/midi/se_music_plant_glockenspiel_5.o(.rodata)
 .rodata        0x0000000008c84cbc       0x24 sound/songs/midi/se_music_plant_glockenspiel_5.o
                0x0000000008c84cd4                se_music_plant_glockenspiel_5
 sound/songs/midi/se_music_plant_glockenspiel_6.o(.rodata)
 .rodata        0x0000000008c84ce0       0x24 sound/songs/midi/se_music_plant_glockenspiel_6.o
                0x0000000008c84cf8                se_music_plant_glockenspiel_6
 sound/songs/midi/se_music_plant_enter_horn.o(.rodata)
 .rodata        0x0000000008c84d04       0x24 sound/songs/midi/se_music_plant_enter_horn.o
                0x0000000008c84d1c                se_music_plant_enter_horn
 sound/songs/midi/se_music_plant_exit_horn.o(.rodata)
 .rodata        0x0000000008c84d28       0x2c sound/songs/midi/se_music_plant_exit_horn.o
                0x0000000008c84d48                se_music_plant_exit_horn
 sound/songs/midi/se_music_plant_enter_horn2.o(.rodata)
 .rodata        0x0000000008c84d54       0x24 sound/songs/midi/se_music_plant_enter_horn2.o
                0x0000000008c84d6c                se_music_plant_enter_horn2
 sound/songs/midi/se_music_plant_exit_horn2.o(.rodata)
 .rodata        0x0000000008c84d78       0x40 sound/songs/midi/se_music_plant_exit_horn2.o
                0x0000000008c84dac                se_music_plant_exit_horn2
 sound/songs/midi/se_music_plant_horn3.o(.rodata)
 .rodata        0x0000000008c84db8       0x38 sound/songs/midi/se_music_plant_horn3.o
                0x0000000008c84de4                se_music_plant_horn3
 sound/songs/midi/se_music_plant_bouncy_chain.o(.rodata)
 .rodata        0x0000000008c84df0       0x24 sound/songs/midi/se_music_plant_bouncy_chain.o
                0x0000000008c84e08                se_music_plant_bouncy_chain
 sound/songs/midi/se_music_plant_piano.o(.rodata)
 .rodata        0x0000000008c84e14       0x24 sound/songs/midi/se_music_plant_piano.o
                0x0000000008c84e2c                se_music_plant_piano
 sound/songs/midi/se_music_plant_flute_1.o(.rodata)
 .rodata        0x0000000008c84e38       0x24 sound/songs/midi/se_music_plant_flute_1.o
                0x0000000008c84e50                se_music_plant_flute_1
 sound/songs/midi/se_music_plant_flute_2.o(.rodata)
 .rodata        0x0000000008c84e5c       0x24 sound/songs/midi/se_music_plant_flute_2.o
                0x0000000008c84e74                se_music_plant_flute_2
 sound/songs/midi/se_music_plant_flute_3.o(.rodata)
 .rodata        0x0000000008c84e80       0x24 sound/songs/midi/se_music_plant_flute_3.o
                0x0000000008c84e98                se_music_plant_flute_3
 sound/songs/midi/se_music_plant_flute_4.o(.rodata)
 .rodata        0x0000000008c84ea4       0x24 sound/songs/midi/se_music_plant_flute_4.o
                0x0000000008c84ebc                se_music_plant_flute_4
 sound/songs/midi/se_331.o(.rodata)
 .rodata        0x0000000008c84ec8       0x1c sound/songs/midi/se_331.o
                0x0000000008c84ed8                se_331
 sound/songs/midi/se_332.o(.rodata)
 .rodata        0x0000000008c84ee4       0x1c sound/songs/midi/se_332.o
                0x0000000008c84ef4                se_332
 sound/songs/midi/se_333.o(.rodata)
 .rodata        0x0000000008c84f00       0x9c sound/songs/midi/se_333.o
                0x0000000008c84f90                se_333
 sound/songs/midi/mus_act_clear.o(.rodata)
 .rodata        0x0000000008c84f9c      0x108 sound/songs/midi/mus_act_clear.o
                0x0000000008c8508c                mus_act_clear
 sound/songs/midi/mus_boss_clear.o(.rodata)
 .rodata        0x0000000008c850a4      0x1f4 sound/songs/midi/mus_boss_clear.o
                0x0000000008c85270                mus_boss_clear
 sound/songs/midi/mus_final_clear.o(.rodata)
 .rodata        0x0000000008c85298      0x294 sound/songs/midi/mus_final_clear.o
                0x0000000008c85500                mus_final_clear
 sound/songs/midi/mus_extra_clear.o(.rodata)
 .rodata        0x0000000008c8552c      0x210 sound/songs/midi/mus_extra_clear.o
                0x0000000008c85718                mus_extra_clear
 sound/songs/midi/mus_time_attack_2.o(.rodata)
 .rodata        0x0000000008c8573c      0x19c sound/songs/midi/mus_time_attack_2.o
                0x0000000008c858b0                mus_time_attack_2
 sound/songs/midi/mus_time_attack_3.o(.rodata)
 .rodata        0x0000000008c858d8      0x3a0 sound/songs/midi/mus_time_attack_3.o
                0x0000000008c85c4c                mus_time_attack_3
 sound/songs/midi/mus_1_up.o(.rodata)
 .rodata        0x0000000008c85c78      0x120 sound/songs/midi/mus_1_up.o
                0x0000000008c85d80                mus_1_up
 sound/songs/midi/mus_message_2.o(.rodata)
 .rodata        0x0000000008c85d98      0x2e4 sound/songs/midi/mus_message_2.o
                0x0000000008c8605c                mus_message_2
 sound/songs/midi/mus_got_all_chaos_emeralds.o(.rodata)
 .rodata        0x0000000008c8607c      0x1a8 sound/songs/midi/mus_got_all_chaos_emeralds.o
                0x0000000008c861fc                mus_got_all_chaos_emeralds
 sound/songs/midi/mus_fanfare.o(.rodata)
 .rodata        0x0000000008c86224      0x214 sound/songs/midi/mus_fanfare.o
                0x0000000008c86410                mus_fanfare
 sound/songs/midi/mus_vs_exit.o(.rodata)
 .rodata        0x0000000008c86438       0x90 sound/songs/midi/mus_vs_exit.o
                0x0000000008c864ac                mus_vs_exit
 sound/songs/midi/mus_vs_success.o(.rodata)
 .rodata        0x0000000008c864c8       0xd0 sound/songs/midi/mus_vs_success.o
                0x0000000008c86580                mus_vs_success
 sound/songs/midi/mus_vs_miss.o(.rodata)
 .rodata        0x0000000008c86598       0x80 sound/songs/midi/mus_vs_miss.o
                0x0000000008c86600                mus_vs_miss
 sound/songs/midi/mus_message.o(.rodata)
 .rodata        0x0000000008c86618      0x300 sound/songs/midi/mus_message.o
                0x0000000008c868f8                mus_message
 sound/songs/midi/mus_504.o(.rodata)
 .rodata        0x0000000008c86918      0x158 sound/songs/midi/mus_504.o
                0x0000000008c86a4c                mus_504
 sound/songs/midi/mus_505.o(.rodata)
 .rodata        0x0000000008c86a70      0x1f0 sound/songs/midi/mus_505.o
                0x0000000008c86c34                mus_505
 sound/songs/midi/mus_506.o(.rodata)
 .rodata        0x0000000008c86c60      0x158 sound/songs/midi/mus_506.o
                0x0000000008c86d94                mus_506
 src/lib/agb_flash/agb_flash.o(.rodata)
 .rodata        0x0000000008c86db8       0x70 src/lib/agb_flash/agb_flash.o
 src/lib/agb_flash/agb_flash_512k.o(.rodata)
 .rodata        0x0000000008c86e28       0x48 src/lib/agb_flash/agb_flash_512k.o
                0x0000000008c86e38                gSetup512KInfos
 src/lib/agb_flash/agb_flash_le_512k.o(.rodata)
 .rodata        0x0000000008c86e70       0x98 src/lib/agb_flash/agb_flash_le_512k.o
                0x0000000008c86e70                le512kMaxTime
                0x0000000008c86e88                DefaultFlash512K
                0x0000000008c86eb4                LE39FW512
 src/lib/agb_flash/agb_flash_mx_512k.o(.rodata)
 .rodata        0x0000000008c86f08       0x90 src/lib/agb_flash/agb_flash_mx_512k.o
                0x0000000008c86f08                mx512kMaxTime
                0x0000000008c86f20                paMaxTime
                0x0000000008c86f38                MX29L512
                0x0000000008c86f64                MN63F805MNP
 *libgcc.a:_divdi3.o(.rodata)
 .rodata        0x0000000008c86f98      0x100 /home/runner/work/sa2/sa2/tools/agbcc/lib/libgcc.a(_divdi3.o)
 src/game/sa1_sa2_shared/input_buffer.o(.data)
 .data          0x0000000008c87098      0x150 src/game/sa1_sa2_shared/input_buffer.o
                0x0000000008c87098                gUnknown_08c87098_unused
                0x0000000008c87198                unk_8C87198
                0x0000000008c871a4                unk_8C871A4
                0x0000000008c871b0                unk_8C871B0
                0x0000000008c871bc                unk_8C871BC
                0x0000000008c871c8                unk_8C871C8
                0x0000000008c871d4                gUnknown_08C871D4
 data/special_stage_levels.o(.rodata)
 .rodata        0x0000000008c871e8      0x754 data/special_stage_levels.o
                0x0000000008c878e8                gUnknown_08C878E8
                0x0000000008c87904                gUnknown_08C87904
                0x0000000008c87920                gUnknown_08C87920
 src/data/handlers_ia_pipe_horn_sequences.o(.rodata)
 .rodata        0x0000000008c8793c       0x30 src/data/handlers_ia_pipe_horn_sequences.o
                0x0000000008c8793c                gUnknown_08C8793C
                0x0000000008c87960                gUnknown_08C87960
 src/data/palettes.o(.rodata)
 .rodata        0x0000000008c8796c      0x140 src/data/palettes.o
                0x0000000008c8796c                gBgGradientPalette
 src/data/recordings.o(.rodata)
 .rodata        0x0000000008c87aac      0x95c src/data/recordings.o
                0x0000000008c87aac                gDemoRecordings
 data/multiboot_collect_rings.o(.rodata)
 .rodata        0x0000000008c88408    0x48320 data/multiboot_collect_rings.o
                0x0000000008c88408                gCollectRingsTilemaps
                0x0000000008c92208                gCollectRingsBgStageTileset
                0x0000000008c94408                gCollectRingsAnimations_Unused_Compressed
                0x0000000008ca6760                gCollectRingsAnimations_Cream_Compressed
                0x0000000008cad1dc                gCollectRingsAnimations_Tails_Compressed
                0x0000000008cb41c0                gCollectRingsAnimations_Knuckles_Compressed
                0x0000000008cbac04                gCollectRingsRom_Compressed
 data/multiboot_subgame_loader.o(.rodata)
 .rodata        0x0000000008cd0728     0x5f28 data/multiboot_subgame_loader.o
                0x0000000008cd0728                gUnknown_08CD0728
                0x0000000008cd3504                gMultiBootProgram_SubgameLoader
                0x0000000008cd6650                gMultiBootProgram_SubgameLoaderEnd
 data/build_info.o(.rodata)
 .rodata        0x0000000008cd6650       0x20 data/build_info.o

.debug
 *(.debug)

.line
 *(.line)

.debug_srcinfo
 *(.debug_srcinfo)

.debug_sfnames
 *(.debug_sfnames)

.debug_aranges
 *(.debug_aranges)

.debug_pubnames
 *(.debug_pubnames)

.debug_info
 *(.debug_info .gnu.linkonce.wi.*)

.debug_abbrev
 *(.debug_abbrev)

.debug_line
 *(.debug_line)

.debug_frame
 *(.debug_frame)

.debug_str
 *(.debug_str)

.debug_loc
 *(.debug_loc)

.debug_macinfo
 *(.debug_macinfo)

/DISCARD/
 *(*)
LOAD src/game/interactables_2/hot_crater/crane.o
LOAD src/game/interactables_2/hot_crater/hook_rail.o
LOAD src/game/interactables_2/hot_crater/windup_stick.o
LOAD src/game/interactables_2/hot_crater/floating_spring.o
LOAD src/game/interactables_2/hot_crater/dash_ring.o
LOAD src/game/interactables_2/hot_crater/turnaround_bar.o
LOAD src/game/interactables_2/techno_base/light_globe.o
LOAD src/game/interactables_2/techno_base/spike_platform.o
LOAD src/game/interactables_2/techno_base/bounce_block.o
LOAD src/game/interactables_2/techno_base/arrow_platform.o
LOAD src/game/interactables_2/techno_base/light_bridge.o
LOAD src/game/interactables_2/sky_canyon_init.o
LOAD src/game/interactables_2/music_plant/note_sphere.o
LOAD src/game/interactables_2/music_plant/note_block.o
LOAD src/game/interactables_2/music_plant/keyboard.o
LOAD src/game/interactables_2/music_plant/pipe_horn.o
LOAD src/game/interactables_2/music_plant/german_flute.o
LOAD src/game/interactables_2/music_plant/bouncy_chain.o
LOAD src/game/interactables_2/ice_paradise/big_snowball.o
LOAD src/game/interactables_2/ice_paradise/funnel_sphere.o
LOAD src/game/interactables_2/ice_paradise/half_pipe.o
LOAD src/game/interactables_2/ice_paradise/slowing_snow.o
LOAD src/game/interactables_2/sky_canyon/fan.o
LOAD src/game/interactables_2/sky_canyon/whirlwind.o
LOAD src/game/interactables_2/sky_canyon/small_windmill.o
LOAD src/game/interactables_2/sky_canyon/propeller.o
LOAD src/game/interactables_2/sky_canyon/propeller_spring.o
LOAD src/game/interactables_2/105.o
LOAD src/game/interactables_2/notification_ring_bonus.o
LOAD src/game/interactables_2/egg_utopia/iron_ball.o
LOAD src/game/interactables_2/egg_utopia/gravity_toggle.o
LOAD src/game/interactables_2/egg_utopia/cannon.o
LOAD src/game/interactables_2/egg_utopia/flying_handle.o
LOAD src/game/interactables_2/egg_utopia/speeding_platform.o
LOAD src/game/interactables_2/egg_utopia/pole.o
LOAD src/game/interactables_2/egg_utopia/launcher.o
LOAD src/game/interactables_2/note_particle.o
LOAD src/game/interactables_2/special_ring.o
LOAD src/game/game_over.o
LOAD src/game/multiboot/connection.o
LOAD src/game/multiboot/collect_rings/time_display.o
LOAD src/game/multiboot/collect_rings/results.o
LOAD src/game/assets/compressed/entities.o
LOAD src/game/assets/compressed/roms.o
LOAD src/game/mystery_item_box.o
LOAD src/game/math.o
LOAD src/game/multiplayer_lobby.o
LOAD src/game/character_select.o
LOAD src/game/countdown.o
LOAD src/game/amy_attack_heart_effect.o
LOAD src/game/cutscenes/final_ending_land.o
LOAD src/game/cutscenes/level_endings.o
LOAD src/game/cutscenes/extra_ending_slides.o
LOAD src/game/cutscenes/missing_emeralds.o
LOAD src/game/cutscenes/credits.o
LOAD src/game/cutscenes/credits_end.o
LOAD src/game/cutscenes/extra_ending_fall.o
LOAD src/game/cutscenes/credits_slides.o
LOAD src/game/cutscenes/endings.o
LOAD src/game/cutscenes/final_ending_fall.o
LOAD src/game/interactables_1/checkpoint.o
LOAD src/game/interactables_1/toggle_player_layer.o
LOAD src/game/interactables_1/decoration.o
LOAD src/game/interactables_1/incline_ramp.o
LOAD src/game/interactables_1/stage_goal.o
LOAD src/game/interactables_1/gapped_loop.o
LOAD src/game/interactables_1/platform_crumbling.o
LOAD src/game/interactables_1/spring_bouncy.o
LOAD src/game/interactables_1/rotating_handle.o
LOAD src/game/interactables_1/windmill.o
LOAD src/game/interactables_1/bouncy_bar.o
LOAD src/game/interactables_1/spikes.o
LOAD src/game/interactables_1/corkscrew.o
LOAD src/game/interactables_1/booster.o
LOAD src/game/interactables_1/corkscrew_3d.o
LOAD src/game/multiplayer/multipak_connection.o
LOAD src/game/multiplayer/team_play.o
LOAD src/game/multiplayer/mode_select.o
LOAD src/game/multiplayer/multiplayer_event_mgr.o
LOAD src/game/multiplayer/mp_player.o
LOAD src/game/multiplayer/mp_attack_1_effect.o
LOAD src/game/multiplayer/finish.o
LOAD src/game/multiplayer/results.o
LOAD src/game/multiplayer/communication_outcome.o
LOAD src/game/multiplayer/multiplayer_event_recv_mgr.o
LOAD src/game/multiplayer/indicators.o
LOAD src/game/multiplayer/mp_attack_2_effect.o
LOAD src/game/water_effects.o
LOAD src/game/options_screen.o
LOAD src/game/sound_test.o
LOAD src/game/stage/stage.o
LOAD src/game/stage/screen_fade.o
LOAD src/game/stage/screen_shake.o
LOAD src/game/stage/item_tasks.o
LOAD src/game/stage/spawn_positions.o
LOAD src/game/stage/game_7.o
LOAD src/game/stage/grind_effect_1.o
LOAD src/game/stage/boss_results_transition.o
LOAD src/game/stage/camera_destroy.o
LOAD src/game/stage/ui.o
LOAD src/game/stage/results.o
LOAD src/game/stage/backgrounds.o
LOAD src/game/stage/mp_sprite_task.o
LOAD src/game/stage/intro.o
LOAD src/game/stage/dust_effect_spindash.o
LOAD src/game/stage/collision.o
LOAD src/game/stage/debug_text_printer.o
LOAD src/game/stage/dust_effect_braking.o
LOAD src/game/stage/tilemap_table.o
LOAD src/game/stage/camera.o
LOAD src/game/stage/player_super_sonic.o
LOAD src/game/stage/underwater_effects.o
LOAD src/game/stage/player_controls.o
LOAD src/game/stage/trapped_animals.o
LOAD src/game/stage/rings_scatter.o
LOAD src/game/stage/background/zone_7_1.o
LOAD src/game/stage/background/zone_4.o
LOAD src/game/stage/background/zone_2.o
LOAD src/game/stage/background/zone_1.o
LOAD src/game/stage/background/zone_2_boss.o
LOAD src/game/stage/background/zone_5.o
LOAD src/game/stage/background/zone_6_boss.o
LOAD src/game/stage/background/zone_final.o
LOAD src/game/stage/background/zone_final_boss.o
LOAD src/game/stage/background/callbacks.o
LOAD src/game/stage/background/dummy.o
LOAD src/game/stage/background/zone_5_boss.o
LOAD src/game/stage/background/zone_extra_boss.o
LOAD src/game/stage/background/zone_1_boss.o
LOAD src/game/stage/background/zone_2_init.o
LOAD src/game/stage/background/zone_7_2.o
LOAD src/game/stage/background/zone_6.o
LOAD src/game/stage/background/zone_7_boss.o
LOAD src/game/stage/background/zone_3.o
LOAD src/game/stage/background/zone_3_boss.o
LOAD src/game/stage/player.o
LOAD src/game/special_stage/world.o
LOAD src/game/special_stage/collectables.o
LOAD src/game/special_stage/tables.o
LOAD src/game/special_stage/ui.o
LOAD src/game/special_stage/guard_robo.o
LOAD src/game/special_stage/data.o
LOAD src/game/special_stage/physics.o
LOAD src/game/special_stage/main.o
LOAD src/game/special_stage/utils.o
LOAD src/game/special_stage/player.o
LOAD src/game/title_screen.o
LOAD src/game/boost_effect.o
LOAD src/game/enemies/spinner.o
LOAD src/game/enemies/kura_kura.o
LOAD src/game/enemies/mouse.o
LOAD src/game/enemies/mon.o
LOAD src/game/enemies/koura.o
LOAD src/game/enemies/buzzer.o
LOAD src/game/enemies/bullet_buzzer.o
LOAD src/game/enemies/kyura.o
LOAD src/game/enemies/balloon.o
LOAD src/game/enemies/madillo.o
LOAD src/game/enemies/gohla.o
LOAD src/game/enemies/kubinaga.o
LOAD src/game/enemies/bell.o
LOAD src/game/enemies/flickey.o
LOAD src/game/enemies/yado.o
LOAD src/game/enemies/hammerhead.o
LOAD src/game/enemies/circus.o
LOAD src/game/enemies/geji_geji.o
LOAD src/game/enemies/piko_piko.o
LOAD src/game/enemies/pen.o
LOAD src/game/enemies/kiki.o
LOAD src/game/enemies/star.o
LOAD src/game/enemies/straw.o
LOAD src/game/enemies/projectiles.o
LOAD src/game/heart_particles_effect.o
LOAD src/game/save.o
LOAD src/game/dummy_task.o
LOAD src/game/player_callbacks.o
LOAD src/game/race_progress.o
LOAD src/game/game.o
LOAD src/game/bg_palette_effects.o
LOAD src/game/sa1_sa2_shared/dust_cloud.o
LOAD src/game/sa1_sa2_shared/spot_light_beam_task.o
LOAD src/game/sa1_sa2_shared/spot_light.o
LOAD src/game/sa1_sa2_shared/palette_loader.o
LOAD src/game/sa1_sa2_shared/enemy_defeat_score.o
LOAD src/game/sa1_sa2_shared/demo_manager.o
LOAD src/game/sa1_sa2_shared/unused_flash_task.o
LOAD src/game/sa1_sa2_shared/magnetic_ring.o
LOAD src/game/sa1_sa2_shared/simple_sprite_particle.o
LOAD src/game/sa1_sa2_shared/unused_level_select.o
LOAD src/game/sa1_sa2_shared/pause_menu.o
LOAD src/game/sa1_sa2_shared/item_box.o
LOAD src/game/sa1_sa2_shared/globals.o
LOAD src/game/sa1_sa2_shared/music_manager.o
LOAD src/game/sa1_sa2_shared/collision.o
LOAD src/game/sa1_sa2_shared/entities_manager.o
LOAD src/game/sa1_sa2_shared/interactables/spring.o
LOAD src/game/sa1_sa2_shared/interactables/platform_thin.o
LOAD src/game/sa1_sa2_shared/interactables/platform.o
LOAD src/game/sa1_sa2_shared/interactables/platform_square.o
LOAD src/game/sa1_sa2_shared/interactables/pipe.o
LOAD src/game/sa1_sa2_shared/interactables/grind_rail.o
LOAD src/game/sa1_sa2_shared/interactables/ceiling_slope.o
LOAD src/game/sa1_sa2_shared/interactables/ramp.o
LOAD src/game/sa1_sa2_shared/interactables/slidy_ice.o
LOAD src/game/sa1_sa2_shared/input_buffer.o
LOAD src/game/sa1_sa2_shared/rings_manager.o
LOAD src/game/sa1_sa2_shared/collect_ring_effect.o
LOAD src/game/cheese.o
LOAD src/game/time_attack/lobby.o
LOAD src/game/time_attack/mode_select.o
LOAD src/game/time_attack/results.o
LOAD src/game/decomp_credits.o
LOAD src/game/boost_mode_particles.o
LOAD src/game/course_select.o
LOAD src/game/bosses/boss_6.o
LOAD src/game/bosses/boss_2.o
LOAD src/game/bosses/eggmobile_escape_sequence.o
LOAD src/game/bosses/boss_7.o
LOAD src/game/bosses/boss_4.o
LOAD src/game/bosses/boss_5.o
LOAD src/game/bosses/final_intro.o
LOAD src/game/bosses/boss_8.o
LOAD src/game/bosses/boss_1.o
LOAD src/game/bosses/boss_9.o
LOAD src/game/bosses/common.o
LOAD src/game/bosses/boss_3.o
LOAD src/game/bosses/explosion_parts.o
LOAD src/malloc_vram.o
LOAD src/core.o
LOAD src/lib/m4a/m4a_tables.o
LOAD src/lib/m4a/m4a.o
LOAD src/lib/agb_flash/agb_flash_le_512k.o
LOAD src/lib/agb_flash/agb_flash_512k.o
LOAD src/lib/agb_flash/agb_flash_mx_512k.o
LOAD src/lib/agb_flash/agb_flash.o
LOAD src/bg_triangles.o
LOAD src/multi_boot.o
LOAD src/sprite.o
LOAD src/multi_sio.o
LOAD src/trig.o
LOAD src/input_recorder.o
LOAD src/task.o
LOAD src/main.o
LOAD src/background.o
LOAD src/sio32_multi_load.o
LOAD src/data/handlers_ia_pipe_horn_sequences.o
LOAD src/data/sprite_dimensions.o
LOAD src/data/recordings.o
LOAD src/data/tileset_debug_ascii.o
LOAD src/data/tilemap_data.o
LOAD src/data/palettes.o
LOAD src/data/sprite_animation.o
LOAD src/data/sprite_oam_data.o
LOAD src/data/sprite_tables.o
LOAD src/data/tilemap_data_old_logos.o
LOAD src/data/animations/animations.o
LOAD src/data/animations/animation_table.o
LOAD src/malloc_ewram.o
LOAD src/crt0.o
LOAD src/lib/m4a/m4a0.o
LOAD src/multi_sio_asm.o
LOAD src/rom_header.o
LOAD data/build_info.o
LOAD data/multiboot_collect_rings.o
LOAD data/multiboot_subgame_loader.o
LOAD data/sound_data.o
LOAD data/special_stage_levels.o
LOAD data/sprite_animation_data.o
LOAD sound/songs/se_291.o
LOAD sound/songs/midi/mus_1_up.o
LOAD sound/songs/midi/mus_504.o
LOAD sound/songs/midi/mus_505.o
LOAD sound/songs/midi/mus_506.o
LOAD sound/songs/midi/mus_7_boss.o
LOAD sound/songs/midi/mus_7_boss_pinch.o
LOAD sound/songs/midi/mus_achievement.o
LOAD sound/songs/midi/mus_act_clear.o
LOAD sound/songs/midi/mus_boss.o
LOAD sound/songs/midi/mus_boss_clear.o
LOAD sound/songs/midi/mus_boss_knuckles.o
LOAD sound/songs/midi/mus_boss_pinch.o
LOAD sound/songs/midi/mus_chaos_emerald.o
LOAD sound/songs/midi/mus_character_selection.o
LOAD sound/songs/midi/mus_connection_pending.o
LOAD sound/songs/midi/mus_course_selection_2.o
LOAD sound/songs/midi/mus_course_selection_3.o
LOAD sound/songs/midi/mus_demo_1.o
LOAD sound/songs/midi/mus_demo_2.o
LOAD sound/songs/midi/mus_drowning.o
LOAD sound/songs/midi/mus_egg_utopia__act_1.o
LOAD sound/songs/midi/mus_egg_utopia__act_2.o
LOAD sound/songs/midi/mus_extra_clear.o
LOAD sound/songs/midi/mus_extra_demo_1.o
LOAD sound/songs/midi/mus_extra_demo_2.o
LOAD sound/songs/midi/mus_extra_ending.o
LOAD sound/songs/midi/mus_fanfare.o
LOAD sound/songs/midi/mus_final_boss.o
LOAD sound/songs/midi/mus_final_boss_pinch.o
LOAD sound/songs/midi/mus_final_clear.o
LOAD sound/songs/midi/mus_final_ending.o
LOAD sound/songs/midi/mus_game_over.o
LOAD sound/songs/midi/mus_got_all_chaos_emeralds.o
LOAD sound/songs/midi/mus_hot_crater__act_1.o
LOAD sound/songs/midi/mus_hot_crater__act_2.o
LOAD sound/songs/midi/mus_ice_paradise__act_1.o
LOAD sound/songs/midi/mus_ice_paradise__act_2.o
LOAD sound/songs/midi/mus_intro.o
LOAD sound/songs/midi/mus_invincibility.o
LOAD sound/songs/midi/mus_leaf_forest__act_1.o
LOAD sound/songs/midi/mus_leaf_forest__act_2.o
LOAD sound/songs/midi/mus_message.o
LOAD sound/songs/midi/mus_message_2.o
LOAD sound/songs/midi/mus_music_plant__act_1.o
LOAD sound/songs/midi/mus_music_plant__act_2.o
LOAD sound/songs/midi/mus_options.o
LOAD sound/songs/midi/mus_sky_canyon__act_1.o
LOAD sound/songs/midi/mus_sky_canyon__act_2.o
LOAD sound/songs/midi/mus_special_stage.o
LOAD sound/songs/midi/mus_special_stage_clear.o
LOAD sound/songs/midi/mus_special_stage_intro.o
LOAD sound/songs/midi/mus_special_stage_pinch.o
LOAD sound/songs/midi/mus_special_stage_result.o
LOAD sound/songs/midi/mus_special_stage_result_lose.o
LOAD sound/songs/midi/mus_staff_credits.o
LOAD sound/songs/midi/mus_ta_course_selection.o
LOAD sound/songs/midi/mus_techno_base__act_1.o
LOAD sound/songs/midi/mus_techno_base__act_2.o
LOAD sound/songs/midi/mus_time_attack_2.o
LOAD sound/songs/midi/mus_time_attack_3.o
LOAD sound/songs/midi/mus_time_attack_menu.o
LOAD sound/songs/midi/mus_title_fanfare.o
LOAD sound/songs/midi/mus_true_area_53.o
LOAD sound/songs/midi/mus_vs_2.o
LOAD sound/songs/midi/mus_vs_3.o
LOAD sound/songs/midi/mus_vs_exit.o
LOAD sound/songs/midi/mus_vs_lobby.o
LOAD sound/songs/midi/mus_vs_miss.o
LOAD sound/songs/midi/mus_vs_select_pak_mode.o
LOAD sound/songs/midi/mus_vs_success.o
LOAD sound/songs/midi/mus_xx__final_zone.o
LOAD sound/songs/midi/se_114.o
LOAD sound/songs/midi/se_125.o
LOAD sound/songs/midi/se_126.o
LOAD sound/songs/midi/se_127.o
LOAD sound/songs/midi/se_143.o
LOAD sound/songs/midi/se_144.o
LOAD sound/songs/midi/se_145.o
LOAD sound/songs/midi/se_146.o
LOAD sound/songs/midi/se_148.o
LOAD sound/songs/midi/se_151.o
LOAD sound/songs/midi/se_156.o
LOAD sound/songs/midi/se_157.o
LOAD sound/songs/midi/se_216.o
LOAD sound/songs/midi/se_217.o
LOAD sound/songs/midi/se_218.o
LOAD sound/songs/midi/se_219.o
LOAD sound/songs/midi/se_221.o
LOAD sound/songs/midi/se_222.o
LOAD sound/songs/midi/se_223.o
LOAD sound/songs/midi/se_224.o
LOAD sound/songs/midi/se_225.o
LOAD sound/songs/midi/se_226.o
LOAD sound/songs/midi/se_228.o
LOAD sound/songs/midi/se_230.o
LOAD sound/songs/midi/se_231.o
LOAD sound/songs/midi/se_234.o
LOAD sound/songs/midi/se_235.o
LOAD sound/songs/midi/se_236.o
LOAD sound/songs/midi/se_237.o
LOAD sound/songs/midi/se_238.o
LOAD sound/songs/midi/se_239.o
LOAD sound/songs/midi/se_241.o
LOAD sound/songs/midi/se_242.o
LOAD sound/songs/midi/se_243.o
LOAD sound/songs/midi/se_244.o
LOAD sound/songs/midi/se_245.o
LOAD sound/songs/midi/se_246.o
LOAD sound/songs/midi/se_248.o
LOAD sound/songs/midi/se_249.o
LOAD sound/songs/midi/se_250.o
LOAD sound/songs/midi/se_251.o
LOAD sound/songs/midi/se_252.o
LOAD sound/songs/midi/se_253.o
LOAD sound/songs/midi/se_254.o
LOAD sound/songs/midi/se_255.o
LOAD sound/songs/midi/se_256.o
LOAD sound/songs/midi/se_257.o
LOAD sound/songs/midi/se_258.o
LOAD sound/songs/midi/se_259.o
LOAD sound/songs/midi/se_260.o
LOAD sound/songs/midi/se_261.o
LOAD sound/songs/midi/se_262.o
LOAD sound/songs/midi/se_263.o
LOAD sound/songs/midi/se_264.o
LOAD sound/songs/midi/se_265.o
LOAD sound/songs/midi/se_266.o
LOAD sound/songs/midi/se_267.o
LOAD sound/songs/midi/se_268.o
LOAD sound/songs/midi/se_269.o
LOAD sound/songs/midi/se_271.o
LOAD sound/songs/midi/se_272.o
LOAD sound/songs/midi/se_273.o
LOAD sound/songs/midi/se_274.o
LOAD sound/songs/midi/se_275.o
LOAD sound/songs/midi/se_276.o
LOAD sound/songs/midi/se_277.o
LOAD sound/songs/midi/se_278.o
LOAD sound/songs/midi/se_279.o
LOAD sound/songs/midi/se_280.o
LOAD sound/songs/midi/se_281.o
LOAD sound/songs/midi/se_282.o
LOAD sound/songs/midi/se_283.o
LOAD sound/songs/midi/se_284.o
LOAD sound/songs/midi/se_285.o
LOAD sound/songs/midi/se_286.o
LOAD sound/songs/midi/se_287.o
LOAD sound/songs/midi/se_288.o
LOAD sound/songs/midi/se_289.o
LOAD sound/songs/midi/se_290.o
LOAD sound/songs/midi/se_293.o
LOAD sound/songs/midi/se_295.o
LOAD sound/songs/midi/se_296.o
LOAD sound/songs/midi/se_297.o
LOAD sound/songs/midi/se_331.o
LOAD sound/songs/midi/se_332.o
LOAD sound/songs/midi/se_333.o
LOAD sound/songs/midi/se_abort.o
LOAD sound/songs/midi/se_air_bubble.o
LOAD sound/songs/midi/se_alarm_1.o
LOAD sound/songs/midi/se_alarm_10.o
LOAD sound/songs/midi/se_alarm_2.o
LOAD sound/songs/midi/se_alarm_3.o
LOAD sound/songs/midi/se_alarm_4.o
LOAD sound/songs/midi/se_alarm_5.o
LOAD sound/songs/midi/se_alarm_6.o
LOAD sound/songs/midi/se_alarm_7.o
LOAD sound/songs/midi/se_alarm_8.o
LOAD sound/songs/midi/se_alarm_9.o
LOAD sound/songs/midi/se_amy_ground_hammer.o
LOAD sound/songs/midi/se_amy_hammer_swirl.o
LOAD sound/songs/midi/se_amy_super_hammer_attack.o
LOAD sound/songs/midi/se_brake.o
LOAD sound/songs/midi/se_checkpoint.o
LOAD sound/songs/midi/se_cream_cheese_attack.o
LOAD sound/songs/midi/se_cream_flying.o
LOAD sound/songs/midi/se_delete_game_data.o
LOAD sound/songs/midi/se_ice_paradise_slide.o
LOAD sound/songs/midi/se_item_box.o
LOAD sound/songs/midi/se_item_box_2.o
LOAD sound/songs/midi/se_jump.o
LOAD sound/songs/midi/se_life_lost.o
LOAD sound/songs/midi/se_long_brake.o
LOAD sound/songs/midi/se_map_214.o
LOAD sound/songs/midi/se_map_move.o
LOAD sound/songs/midi/se_map_move_end.o
LOAD sound/songs/midi/se_menu_cursor_move.o
LOAD sound/songs/midi/se_music_plant_bouncy_chain.o
LOAD sound/songs/midi/se_music_plant_crash_hit.o
LOAD sound/songs/midi/se_music_plant_enter_horn.o
LOAD sound/songs/midi/se_music_plant_enter_horn2.o
LOAD sound/songs/midi/se_music_plant_exit_horn.o
LOAD sound/songs/midi/se_music_plant_exit_horn2.o
LOAD sound/songs/midi/se_music_plant_flute_1.o
LOAD sound/songs/midi/se_music_plant_flute_2.o
LOAD sound/songs/midi/se_music_plant_flute_3.o
LOAD sound/songs/midi/se_music_plant_flute_4.o
LOAD sound/songs/midi/se_music_plant_glockenspiel_1.o
LOAD sound/songs/midi/se_music_plant_glockenspiel_2.o
LOAD sound/songs/midi/se_music_plant_glockenspiel_3.o
LOAD sound/songs/midi/se_music_plant_glockenspiel_4.o
LOAD sound/songs/midi/se_music_plant_glockenspiel_5.o
LOAD sound/songs/midi/se_music_plant_glockenspiel_6.o
LOAD sound/songs/midi/se_music_plant_horn3.o
LOAD sound/songs/midi/se_music_plant_notes_1.o
LOAD sound/songs/midi/se_music_plant_notes_2.o
LOAD sound/songs/midi/se_music_plant_notes_3.o
LOAD sound/songs/midi/se_music_plant_notes_4.o
LOAD sound/songs/midi/se_music_plant_notes_5.o
LOAD sound/songs/midi/se_music_plant_notes_6.o
LOAD sound/songs/midi/se_music_plant_notes_7.o
LOAD sound/songs/midi/se_music_plant_notes_8.o
LOAD sound/songs/midi/se_music_plant_piano.o
LOAD sound/songs/midi/se_music_plant_spring_1.o
LOAD sound/songs/midi/se_music_plant_spring_2.o
LOAD sound/songs/midi/se_music_plant_spring_3.o
LOAD sound/songs/midi/se_music_plant_spring_4.o
LOAD sound/songs/midi/se_pause_screen.o
LOAD sound/songs/midi/se_return.o
LOAD sound/songs/midi/se_ring.o
LOAD sound/songs/midi/se_ring_copy.o
LOAD sound/songs/midi/se_rings_lost.o
LOAD sound/songs/midi/se_sa1_goal_post.o
LOAD sound/songs/midi/se_select.o
LOAD sound/songs/midi/se_shift.o
LOAD sound/songs/midi/se_sonic_insta_shield.o
LOAD sound/songs/midi/se_sonic_midair_somersault.o
LOAD sound/songs/midi/se_sonic_skid_attack.o
LOAD sound/songs/midi/se_special_ring.o
LOAD sound/songs/midi/se_speed_booster.o
LOAD sound/songs/midi/se_spikes.o
LOAD sound/songs/midi/se_spin.o
LOAD sound/songs/midi/se_spin_attack.o
LOAD sound/songs/midi/se_spin_dash_release.o
LOAD sound/songs/midi/se_spring.o
LOAD sound/songs/midi/se_springy_pole.o
LOAD sound/songs/midi/se_springy_spring.o
LOAD sound/songs/midi/se_stage_result_counter.o
LOAD sound/songs/midi/se_stage_result_counter_done.o
LOAD sound/songs/midi/se_success.o
LOAD sound/songs/midi/se_suction.o
LOAD sound/songs/midi/se_tails_propeller_flying.o
LOAD sound/songs/midi/se_tails_tail_swipe.o
LOAD sound/songs/midi/se_techno_base_note_block.o
LOAD sound/songs/midi/se_time_up.o
LOAD sound/songs/midi/se_timer.o
LOAD sound/songs/midi/voice__announcer__1.o
LOAD sound/songs/midi/voice__announcer__2.o
LOAD sound/songs/midi/voice__announcer__3.o
LOAD sound/songs/midi/voice__announcer__amy.o
LOAD sound/songs/midi/voice__announcer__congratulations.o
LOAD sound/songs/midi/voice__announcer__cream.o
LOAD sound/songs/midi/voice__announcer__go.o
LOAD sound/songs/midi/voice__announcer__knuckles.o
LOAD sound/songs/midi/voice__announcer__sonic.o
LOAD sound/songs/midi/voice__announcer__sonic_advance_2.o
LOAD sound/songs/midi/voice__announcer__tails.o
LOAD /home/runner/work/sa2/sa2/tools/agbcc/lib/libgcc.a
LOAD /home/runner/work/sa2/sa2/tools/agbcc/lib/libc.a
LOAD /home/runner/work/sa2/sa2/libagbsyscall/libagbsyscall.a
OUTPUT(/home/runner/work/sa2/sa2/sa2.elf elf32-littlearm)
LOAD linker stubs
